Archive member included to satisfy reference by file (symbol)

C:/msys64/mingw64/bin/../lib/gcc/x86_64-w64-mingw32/8.2.1/../../../../x86_64-w64-mingw32/lib/../lib/libws2_32.a(dmgss00195.o)
                              C:\msys64\tmp\cc1vz69F.o (__imp_socket)
C:/msys64/mingw64/bin/../lib/gcc/x86_64-w64-mingw32/8.2.1/../../../../x86_64-w64-mingw32/lib/../lib/libws2_32.a(dmgss00194.o)
                              C:\msys64\tmp\cc1vz69F.o (__imp_shutdown)
C:/msys64/mingw64/bin/../lib/gcc/x86_64-w64-mingw32/8.2.1/../../../../x86_64-w64-mingw32/lib/../lib/libws2_32.a(dmgss00193.o)
                              C:\msys64\tmp\ccQHA7kH.o (__imp_setsockopt)
C:/msys64/mingw64/bin/../lib/gcc/x86_64-w64-mingw32/8.2.1/../../../../x86_64-w64-mingw32/lib/../lib/libws2_32.a(dmgss00192.o)
                              C:\msys64\tmp\cc1vz69F.o (__imp_sendto)
C:/msys64/mingw64/bin/../lib/gcc/x86_64-w64-mingw32/8.2.1/../../../../x86_64-w64-mingw32/lib/../lib/libws2_32.a(dmgss00191.o)
                              C:\msys64\tmp\cc1vz69F.o (__imp_send)
C:/msys64/mingw64/bin/../lib/gcc/x86_64-w64-mingw32/8.2.1/../../../../x86_64-w64-mingw32/lib/../lib/libws2_32.a(dmgss00190.o)
                              C:\msys64\tmp\cc1vz69F.o (__imp_select)
C:/msys64/mingw64/bin/../lib/gcc/x86_64-w64-mingw32/8.2.1/../../../../x86_64-w64-mingw32/lib/../lib/libws2_32.a(dmgss00189.o)
                              C:\msys64\tmp\cc1vz69F.o (__imp_recvfrom)
C:/msys64/mingw64/bin/../lib/gcc/x86_64-w64-mingw32/8.2.1/../../../../x86_64-w64-mingw32/lib/../lib/libws2_32.a(dmgss00188.o)
                              C:\msys64\tmp\cc1vz69F.o (__imp_recv)
C:/msys64/mingw64/bin/../lib/gcc/x86_64-w64-mingw32/8.2.1/../../../../x86_64-w64-mingw32/lib/../lib/libws2_32.a(dmgss00185.o)
                              C:\msys64\tmp\cc1vz69F.o (__imp_listen)
C:/msys64/mingw64/bin/../lib/gcc/x86_64-w64-mingw32/8.2.1/../../../../x86_64-w64-mingw32/lib/../lib/libws2_32.a(dmgss00184.o)
                              C:\msys64\tmp\cc1vz69F.o (__imp_ioctlsocket)
C:/msys64/mingw64/bin/../lib/gcc/x86_64-w64-mingw32/8.2.1/../../../../x86_64-w64-mingw32/lib/../lib/libws2_32.a(dmgss00181.o)
                              C:\msys64\tmp\ccQHA7kH.o (__imp_inet_ntoa)
C:/msys64/mingw64/bin/../lib/gcc/x86_64-w64-mingw32/8.2.1/../../../../x86_64-w64-mingw32/lib/../lib/libws2_32.a(dmgss00178.o)
                              C:\msys64\tmp\ccQHA7kH.o (__imp_htonl)
C:/msys64/mingw64/bin/../lib/gcc/x86_64-w64-mingw32/8.2.1/../../../../x86_64-w64-mingw32/lib/../lib/libws2_32.a(dmgss00177.o)
                              C:\msys64\tmp\ccxqqLTc.o (__imp_getsockopt)
C:/msys64/mingw64/bin/../lib/gcc/x86_64-w64-mingw32/8.2.1/../../../../x86_64-w64-mingw32/lib/../lib/libws2_32.a(dmgss00176.o)
                              C:\msys64\tmp\ccQHA7kH.o (__imp_getsockname)
C:/msys64/mingw64/bin/../lib/gcc/x86_64-w64-mingw32/8.2.1/../../../../x86_64-w64-mingw32/lib/../lib/libws2_32.a(dmgss00171.o)
                              C:\msys64\tmp\ccQHA7kH.o (__imp_getpeername)
C:/msys64/mingw64/bin/../lib/gcc/x86_64-w64-mingw32/8.2.1/../../../../x86_64-w64-mingw32/lib/../lib/libws2_32.a(dmgss00170.o)
                              C:\msys64\tmp\ccQHA7kH.o (__imp_getnameinfo)
C:/msys64/mingw64/bin/../lib/gcc/x86_64-w64-mingw32/8.2.1/../../../../x86_64-w64-mingw32/lib/../lib/libws2_32.a(dmgss00169.o)
                              C:\msys64\tmp\ccQHA7kH.o (__imp_gethostname)
C:/msys64/mingw64/bin/../lib/gcc/x86_64-w64-mingw32/8.2.1/../../../../x86_64-w64-mingw32/lib/../lib/libws2_32.a(dmgss00168.o)
                              C:\msys64\tmp\cc1vz69F.o (__imp_gethostbyname)
C:/msys64/mingw64/bin/../lib/gcc/x86_64-w64-mingw32/8.2.1/../../../../x86_64-w64-mingw32/lib/../lib/libws2_32.a(dmgss00167.o)
                              C:\msys64\tmp\cc1vz69F.o (__imp_gethostbyaddr)
C:/msys64/mingw64/bin/../lib/gcc/x86_64-w64-mingw32/8.2.1/../../../../x86_64-w64-mingw32/lib/../lib/libws2_32.a(dmgss00166.o)
                              C:\msys64\tmp\ccQHA7kH.o (__imp_getaddrinfo)
C:/msys64/mingw64/bin/../lib/gcc/x86_64-w64-mingw32/8.2.1/../../../../x86_64-w64-mingw32/lib/../lib/libws2_32.a(dmgss00165.o)
                              C:\msys64\tmp\ccQHA7kH.o (__imp_freeaddrinfo)
C:/msys64/mingw64/bin/../lib/gcc/x86_64-w64-mingw32/8.2.1/../../../../x86_64-w64-mingw32/lib/../lib/libws2_32.a(dmgss00164.o)
                              C:\msys64\tmp\cc1vz69F.o (__imp_connect)
C:/msys64/mingw64/bin/../lib/gcc/x86_64-w64-mingw32/8.2.1/../../../../x86_64-w64-mingw32/lib/../lib/libws2_32.a(dmgss00163.o)
                              C:\msys64\tmp\cc1vz69F.o (__imp_closesocket)
C:/msys64/mingw64/bin/../lib/gcc/x86_64-w64-mingw32/8.2.1/../../../../x86_64-w64-mingw32/lib/../lib/libws2_32.a(dmgss00162.o)
                              C:\msys64\tmp\cc1vz69F.o (__imp_bind)
C:/msys64/mingw64/bin/../lib/gcc/x86_64-w64-mingw32/8.2.1/../../../../x86_64-w64-mingw32/lib/../lib/libws2_32.a(dmgss00161.o)
                              C:\msys64\tmp\cc1vz69F.o (__imp_accept)
C:/msys64/mingw64/bin/../lib/gcc/x86_64-w64-mingw32/8.2.1/../../../../x86_64-w64-mingw32/lib/../lib/libws2_32.a(dmgss00160.o)
                              C:\msys64\tmp\ccenaSVZ.o (__WSAFDIsSet)
C:/msys64/mingw64/bin/../lib/gcc/x86_64-w64-mingw32/8.2.1/../../../../x86_64-w64-mingw32/lib/../lib/libws2_32.a(dmgss00088.o)
                              C:\msys64\tmp\cc1vz69F.o (__imp_WSAStartup)
C:/msys64/mingw64/bin/../lib/gcc/x86_64-w64-mingw32/8.2.1/../../../../x86_64-w64-mingw32/lib/../lib/libws2_32.a(dmgss00047.o)
                              C:\msys64\tmp\cc1vz69F.o (__imp_WSAGetLastError)
C:/msys64/mingw64/bin/../lib/gcc/x86_64-w64-mingw32/8.2.1/../../../../x86_64-w64-mingw32/lib/../lib/libws2_32.a(dmgss00030.o)
                              C:\msys64\tmp\cc1vz69F.o (__imp_WSACleanup)
C:/msys64/mingw64/bin/../lib/gcc/x86_64-w64-mingw32/8.2.1/../../../../x86_64-w64-mingw32/lib/../lib/libws2_32.a(lib64_libws2_32_a-gai_strerrorA.o)
                              C:\msys64\tmp\ccQHA7kH.o (gai_strerrorA)
C:/msys64/mingw64/bin/../lib/gcc/x86_64-w64-mingw32/8.2.1/../../../../x86_64-w64-mingw32/lib/../lib/libws2_32.a(lib64_libws2_32_a-gai_strerrorW.o)
                              C:/msys64/mingw64/bin/../lib/gcc/x86_64-w64-mingw32/8.2.1/../../../../x86_64-w64-mingw32/lib/../lib/libws2_32.a(lib64_libws2_32_a-gai_strerrorA.o) (gai_strerrorW)
C:/msys64/mingw64/bin/../lib/gcc/x86_64-w64-mingw32/8.2.1/../../../../x86_64-w64-mingw32/lib/../lib/libws2_32.a(dmgsh.o)
                              C:/msys64/mingw64/bin/../lib/gcc/x86_64-w64-mingw32/8.2.1/../../../../x86_64-w64-mingw32/lib/../lib/libws2_32.a(dmgss00195.o) (_head_lib64_libws2_32_a)
C:/msys64/mingw64/bin/../lib/gcc/x86_64-w64-mingw32/8.2.1/../../../../x86_64-w64-mingw32/lib/../lib/libws2_32.a(dmgst.o)
                              C:/msys64/mingw64/bin/../lib/gcc/x86_64-w64-mingw32/8.2.1/../../../../x86_64-w64-mingw32/lib/../lib/libws2_32.a(dmgsh.o) (__lib64_libws2_32_a_iname)
window/x86_64/libluajit.a(lj_vm.o)
                              (--whole-archive)
window/x86_64/libluajit.a(lj_gc.o)
                              (--whole-archive)
window/x86_64/libluajit.a(lj_err.o)
                              (--whole-archive)
window/x86_64/libluajit.a(lj_char.o)
                              (--whole-archive)
window/x86_64/libluajit.a(lj_bc.o)
                              (--whole-archive)
window/x86_64/libluajit.a(lj_obj.o)
                              (--whole-archive)
window/x86_64/libluajit.a(lj_buf.o)
                              (--whole-archive)
window/x86_64/libluajit.a(lj_str.o)
                              (--whole-archive)
window/x86_64/libluajit.a(lj_tab.o)
                              (--whole-archive)
window/x86_64/libluajit.a(lj_func.o)
                              (--whole-archive)
window/x86_64/libluajit.a(lj_udata.o)
                              (--whole-archive)
window/x86_64/libluajit.a(lj_meta.o)
                              (--whole-archive)
window/x86_64/libluajit.a(lj_debug.o)
                              (--whole-archive)
window/x86_64/libluajit.a(lj_state.o)
                              (--whole-archive)
window/x86_64/libluajit.a(lj_dispatch.o)
                              (--whole-archive)
window/x86_64/libluajit.a(lj_vmevent.o)
                              (--whole-archive)
window/x86_64/libluajit.a(lj_vmmath.o)
                              (--whole-archive)
window/x86_64/libluajit.a(lj_strscan.o)
                              (--whole-archive)
window/x86_64/libluajit.a(lj_strfmt.o)
                              (--whole-archive)
window/x86_64/libluajit.a(lj_strfmt_num.o)
                              (--whole-archive)
window/x86_64/libluajit.a(lj_api.o)
                              (--whole-archive)
window/x86_64/libluajit.a(lj_profile.o)
                              (--whole-archive)
window/x86_64/libluajit.a(lj_lex.o)
                              (--whole-archive)
window/x86_64/libluajit.a(lj_parse.o)
                              (--whole-archive)
window/x86_64/libluajit.a(lj_bcread.o)
                              (--whole-archive)
window/x86_64/libluajit.a(lj_bcwrite.o)
                              (--whole-archive)
window/x86_64/libluajit.a(lj_load.o)
                              (--whole-archive)
window/x86_64/libluajit.a(lj_ir.o)
                              (--whole-archive)
window/x86_64/libluajit.a(lj_opt_mem.o)
                              (--whole-archive)
window/x86_64/libluajit.a(lj_opt_fold.o)
                              (--whole-archive)
window/x86_64/libluajit.a(lj_opt_narrow.o)
                              (--whole-archive)
window/x86_64/libluajit.a(lj_opt_dce.o)
                              (--whole-archive)
window/x86_64/libluajit.a(lj_opt_loop.o)
                              (--whole-archive)
window/x86_64/libluajit.a(lj_opt_split.o)
                              (--whole-archive)
window/x86_64/libluajit.a(lj_opt_sink.o)
                              (--whole-archive)
window/x86_64/libluajit.a(lj_mcode.o)
                              (--whole-archive)
window/x86_64/libluajit.a(lj_snap.o)
                              (--whole-archive)
window/x86_64/libluajit.a(lj_record.o)
                              (--whole-archive)
window/x86_64/libluajit.a(lj_crecord.o)
                              (--whole-archive)
window/x86_64/libluajit.a(lj_ffrecord.o)
                              (--whole-archive)
window/x86_64/libluajit.a(lj_asm.o)
                              (--whole-archive)
window/x86_64/libluajit.a(lj_trace.o)
                              (--whole-archive)
window/x86_64/libluajit.a(lj_gdbjit.o)
                              (--whole-archive)
window/x86_64/libluajit.a(lj_ctype.o)
                              (--whole-archive)
window/x86_64/libluajit.a(lj_cdata.o)
                              (--whole-archive)
window/x86_64/libluajit.a(lj_cconv.o)
                              (--whole-archive)
window/x86_64/libluajit.a(lj_ccall.o)
                              (--whole-archive)
window/x86_64/libluajit.a(lj_ccallback.o)
                              (--whole-archive)
window/x86_64/libluajit.a(lj_carith.o)
                              (--whole-archive)
window/x86_64/libluajit.a(lj_clib.o)
                              (--whole-archive)
window/x86_64/libluajit.a(lj_cparse.o)
                              (--whole-archive)
window/x86_64/libluajit.a(lj_lib.o)
                              (--whole-archive)
window/x86_64/libluajit.a(lj_alloc.o)
                              (--whole-archive)
window/x86_64/libluajit.a(lib_aux.o)
                              (--whole-archive)
window/x86_64/libluajit.a(lib_log.o)
                              (--whole-archive)
window/x86_64/libluajit.a(lib_base.o)
                              (--whole-archive)
window/x86_64/libluajit.a(lib_math.o)
                              (--whole-archive)
window/x86_64/libluajit.a(lib_bit.o)
                              (--whole-archive)
window/x86_64/libluajit.a(lib_string.o)
                              (--whole-archive)
window/x86_64/libluajit.a(lib_table.o)
                              (--whole-archive)
window/x86_64/libluajit.a(lib_io.o)
                              (--whole-archive)
window/x86_64/libluajit.a(lib_os.o)
                              (--whole-archive)
window/x86_64/libluajit.a(lib_package.o)
                              (--whole-archive)
window/x86_64/libluajit.a(lib_debug.o)
                              (--whole-archive)
window/x86_64/libluajit.a(lib_jit.o)
                              (--whole-archive)
window/x86_64/libluajit.a(lib_ffi.o)
                              (--whole-archive)
window/x86_64/libluajit.a(lib_init.o)
                              (--whole-archive)
C:/msys64/mingw64/bin/../lib/gcc/x86_64-w64-mingw32/8.2.1/../../../../x86_64-w64-mingw32/lib/../lib/libmingw32.a(lib64_libmingw32_a-atonexit.o)
                              C:/msys64/mingw64/bin/../lib/gcc/x86_64-w64-mingw32/8.2.1/crtbegin.o (atexit)
C:/msys64/mingw64/bin/../lib/gcc/x86_64-w64-mingw32/8.2.1/../../../../x86_64-w64-mingw32/lib/../lib/libmingw32.a(lib64_libmingw32_a-gccmain.o)
                              C:/msys64/mingw64/bin/../lib/gcc/x86_64-w64-mingw32/8.2.1/../../../../x86_64-w64-mingw32/lib/../lib/dllcrt2.o (__main)
C:/msys64/mingw64/bin/../lib/gcc/x86_64-w64-mingw32/8.2.1/../../../../x86_64-w64-mingw32/lib/../lib/libmingw32.a(lib64_libmingw32_a-natstart.o)
                              C:/msys64/mingw64/bin/../lib/gcc/x86_64-w64-mingw32/8.2.1/../../../../x86_64-w64-mingw32/lib/../lib/dllcrt2.o (__native_startup_lock)
C:/msys64/mingw64/bin/../lib/gcc/x86_64-w64-mingw32/8.2.1/../../../../x86_64-w64-mingw32/lib/../lib/libmingw32.a(lib64_libmingw32_a-gs_support.o)
                              C:/msys64/mingw64/bin/../lib/gcc/x86_64-w64-mingw32/8.2.1/../../../../x86_64-w64-mingw32/lib/../lib/dllcrt2.o (__security_init_cookie)
C:/msys64/mingw64/bin/../lib/gcc/x86_64-w64-mingw32/8.2.1/../../../../x86_64-w64-mingw32/lib/../lib/libmingw32.a(lib64_libmingw32_a-tlssup.o)
                              C:/msys64/mingw64/bin/../lib/gcc/x86_64-w64-mingw32/8.2.1/../../../../x86_64-w64-mingw32/lib/../lib/dllcrt2.o (__dyn_tls_init_callback)
C:/msys64/mingw64/bin/../lib/gcc/x86_64-w64-mingw32/8.2.1/../../../../x86_64-w64-mingw32/lib/../lib/libmingw32.a(lib64_libmingw32_a-cinitexe.o)
                              C:/msys64/mingw64/bin/../lib/gcc/x86_64-w64-mingw32/8.2.1/../../../../x86_64-w64-mingw32/lib/../lib/dllcrt2.o (__xc_z)
C:/msys64/mingw64/bin/../lib/gcc/x86_64-w64-mingw32/8.2.1/../../../../x86_64-w64-mingw32/lib/../lib/libmingw32.a(lib64_libmingw32_a-mingw_helpers.o)
                              C:/msys64/mingw64/bin/../lib/gcc/x86_64-w64-mingw32/8.2.1/../../../../x86_64-w64-mingw32/lib/../lib/dllcrt2.o (_decode_pointer)
C:/msys64/mingw64/bin/../lib/gcc/x86_64-w64-mingw32/8.2.1/../../../../x86_64-w64-mingw32/lib/../lib/libmingw32.a(lib64_libmingw32_a-pseudo-reloc.o)
                              C:/msys64/mingw64/bin/../lib/gcc/x86_64-w64-mingw32/8.2.1/../../../../x86_64-w64-mingw32/lib/../lib/dllcrt2.o (_pei386_runtime_relocator)
C:/msys64/mingw64/bin/../lib/gcc/x86_64-w64-mingw32/8.2.1/../../../../x86_64-w64-mingw32/lib/../lib/libmingw32.a(lib64_libmingw32_a-crt_handler.o)
                              C:/msys64/mingw64/bin/../lib/gcc/x86_64-w64-mingw32/8.2.1/../../../../x86_64-w64-mingw32/lib/../lib/dllcrt2.o (__mingw_init_ehandler)
C:/msys64/mingw64/bin/../lib/gcc/x86_64-w64-mingw32/8.2.1/../../../../x86_64-w64-mingw32/lib/../lib/libmingw32.a(lib64_libmingw32_a-tlsthrd.o)
                              C:/msys64/mingw64/bin/../lib/gcc/x86_64-w64-mingw32/8.2.1/../../../../x86_64-w64-mingw32/lib/../lib/libmingw32.a(lib64_libmingw32_a-tlssup.o) (__mingw_TLScallback)
C:/msys64/mingw64/bin/../lib/gcc/x86_64-w64-mingw32/8.2.1/../../../../x86_64-w64-mingw32/lib/../lib/libmingw32.a(lib64_libmingw32_a-tlsmcrt.o)
                              C:/msys64/mingw64/bin/../lib/gcc/x86_64-w64-mingw32/8.2.1/../../../../x86_64-w64-mingw32/lib/../lib/libmingw32.a(lib64_libmingw32_a-tlssup.o) (_CRT_MT)
C:/msys64/mingw64/bin/../lib/gcc/x86_64-w64-mingw32/8.2.1/../../../../x86_64-w64-mingw32/lib/../lib/libmingw32.a(lib64_libmingw32_a-pseudo-reloc-list.o)
                              C:/msys64/mingw64/bin/../lib/gcc/x86_64-w64-mingw32/8.2.1/../../../../x86_64-w64-mingw32/lib/../lib/libmingw32.a(lib64_libmingw32_a-pseudo-reloc.o) (__RUNTIME_PSEUDO_RELOC_LIST__)
C:/msys64/mingw64/bin/../lib/gcc/x86_64-w64-mingw32/8.2.1/../../../../x86_64-w64-mingw32/lib/../lib/libmingw32.a(lib64_libmingw32_a-pesect.o)
                              C:/msys64/mingw64/bin/../lib/gcc/x86_64-w64-mingw32/8.2.1/../../../../x86_64-w64-mingw32/lib/../lib/libmingw32.a(lib64_libmingw32_a-crt_handler.o) (_FindPESectionByName)
C:/msys64/mingw64/bin/../lib/gcc/x86_64-w64-mingw32/8.2.1/../../../../x86_64-w64-mingw32/lib/../lib/libmingw32.a(lib64_libmingw32_a-CRT_fp10.o)
                              C:/msys64/mingw64/bin/../lib/gcc/x86_64-w64-mingw32/8.2.1/../../../../x86_64-w64-mingw32/lib/../lib/libmingw32.a(lib64_libmingw32_a-crt_handler.o) (_fpreset)
C:/msys64/mingw64/bin/../lib/gcc/x86_64-w64-mingw32/8.2.1/libgcc.a(_chkstk_ms.o)
                              C:\msys64\tmp\ccz1diiN.o (___chkstk_ms)
C:/msys64/mingw64/bin/../lib/gcc/x86_64-w64-mingw32/8.2.1/libgcc.a(_ctors.o)
                              C:/msys64/mingw64/bin/../lib/gcc/x86_64-w64-mingw32/8.2.1/../../../../x86_64-w64-mingw32/lib/../lib/libmingw32.a(lib64_libmingw32_a-gccmain.o) (__DTOR_LIST__)
C:/msys64/mingw64/bin/../lib/gcc/x86_64-w64-mingw32/8.2.1/../../../../x86_64-w64-mingw32/lib/../lib/libmingwex.a(lib64_libmingwex_a-dllentry.o)
                              C:/msys64/mingw64/bin/../lib/gcc/x86_64-w64-mingw32/8.2.1/../../../../x86_64-w64-mingw32/lib/../lib/dllcrt2.o (DllEntryPoint)
C:/msys64/mingw64/bin/../lib/gcc/x86_64-w64-mingw32/8.2.1/../../../../x86_64-w64-mingw32/lib/../lib/libmingwex.a(lib64_libmingwex_a-dllmain.o)
                              C:/msys64/mingw64/bin/../lib/gcc/x86_64-w64-mingw32/8.2.1/../../../../x86_64-w64-mingw32/lib/../lib/dllcrt2.o (DllMain)
C:/msys64/mingw64/bin/../lib/gcc/x86_64-w64-mingw32/8.2.1/../../../../x86_64-w64-mingw32/lib/../lib/libmingwex.a(lib64_libmingwex_a-strtodnrp.o)
                              C:\msys64\tmp\ccJuBzPw.o (__strtod)
C:/msys64/mingw64/bin/../lib/gcc/x86_64-w64-mingw32/8.2.1/../../../../x86_64-w64-mingw32/lib/../lib/libmingwex.a(lib64_libmingwex_a-fpclassify.o)
                              C:\msys64\tmp\ccuduyC5.o (__fpclassify)
C:/msys64/mingw64/bin/../lib/gcc/x86_64-w64-mingw32/8.2.1/../../../../x86_64-w64-mingw32/lib/../lib/libmingwex.a(lib64_libmingwex_a-isnan.o)
                              C:\msys64\tmp\ccuduyC5.o (__isnan)
C:/msys64/mingw64/bin/../lib/gcc/x86_64-w64-mingw32/8.2.1/../../../../x86_64-w64-mingw32/lib/../lib/libmingwex.a(lib64_libmingwex_a-modf.o)
                              window/x86_64/libluajit.a(lj_vm.o) (modf)
C:/msys64/mingw64/bin/../lib/gcc/x86_64-w64-mingw32/8.2.1/../../../../x86_64-w64-mingw32/lib/../lib/libmingwex.a(lib64_libmingwex_a-powf.o)
                              C:\msys64\tmp\ccfy01SD.o (powf)
C:/msys64/mingw64/bin/../lib/gcc/x86_64-w64-mingw32/8.2.1/../../../../x86_64-w64-mingw32/lib/../lib/libmingwex.a(lib64_libmingwex_a-sqrt.o)
                              C:\msys64\tmp\ccfy01SD.o (sqrt)
C:/msys64/mingw64/bin/../lib/gcc/x86_64-w64-mingw32/8.2.1/../../../../x86_64-w64-mingw32/lib/../lib/libmingwex.a(lib64_libmingwex_a-difftime64.o)
                              window/x86_64/libluajit.a(lib_os.o) (_difftime64)
C:/msys64/mingw64/bin/../lib/gcc/x86_64-w64-mingw32/8.2.1/../../../../x86_64-w64-mingw32/lib/../lib/libmingwex.a(lib64_libmingwex_a-gettimeofday.o)
                              C:\msys64\tmp\ccfy01SD.o (gettimeofday)
C:/msys64/mingw64/bin/../lib/gcc/x86_64-w64-mingw32/8.2.1/../../../../x86_64-w64-mingw32/lib/../lib/libmingwex.a(lib64_libmingwex_a-strtoimax.o)
                              C:\msys64\tmp\ccWMuz0v.o (strtoll)
C:/msys64/mingw64/bin/../lib/gcc/x86_64-w64-mingw32/8.2.1/../../../../x86_64-w64-mingw32/lib/../lib/libmingwex.a(lib64_libmingwex_a-strtoumax.o)
                              C:\msys64\tmp\ccWMuz0v.o (strtoull)
C:/msys64/mingw64/bin/../lib/gcc/x86_64-w64-mingw32/8.2.1/../../../../x86_64-w64-mingw32/lib/../lib/libmingwex.a(lib64_libmingwex_a-wassert.o)
                              C:\msys64\tmp\ccLt5nLD.o (_assert)
C:/msys64/mingw64/bin/../lib/gcc/x86_64-w64-mingw32/8.2.1/../../../../x86_64-w64-mingw32/lib/../lib/libmingwex.a(lib64_libmingwex_a-atoll.o)
                              C:\msys64\tmp\ccLjWXKz.o (atoll)
C:/msys64/mingw64/bin/../lib/gcc/x86_64-w64-mingw32/8.2.1/../../../../x86_64-w64-mingw32/lib/../lib/libmingwex.a(lib64_libmingwex_a-fseeko64.o)
                              window/x86_64/libluajit.a(lib_io.o) (fseeko64)
C:/msys64/mingw64/bin/../lib/gcc/x86_64-w64-mingw32/8.2.1/../../../../x86_64-w64-mingw32/lib/../lib/libmingwex.a(lib64_libmingwex_a-ftello64.o)
                              window/x86_64/libluajit.a(lib_io.o) (ftello64)
C:/msys64/mingw64/bin/../lib/gcc/x86_64-w64-mingw32/8.2.1/../../../../x86_64-w64-mingw32/lib/../lib/libmingwex.a(lib64_libmingwex_a-vsnprintf.o)
                              C:\msys64\tmp\ccz1diiN.o (__ms_vsnprintf)
C:/msys64/mingw64/bin/../lib/gcc/x86_64-w64-mingw32/8.2.1/../../../../x86_64-w64-mingw32/lib/../lib/libmingwex.a(lib64_libmingwex_a-atan2.o)
                              window/x86_64/libluajit.a(lj_vm.o) (atan2)
C:/msys64/mingw64/bin/../lib/gcc/x86_64-w64-mingw32/8.2.1/../../../../x86_64-w64-mingw32/lib/../lib/libmingwex.a(lib64_libmingwex_a-cos.o)
                              window/x86_64/libluajit.a(lj_vm.o) (cos)
C:/msys64/mingw64/bin/../lib/gcc/x86_64-w64-mingw32/8.2.1/../../../../x86_64-w64-mingw32/lib/../lib/libmingwex.a(lib64_libmingwex_a-cosl_internal.o)
                              C:/msys64/mingw64/bin/../lib/gcc/x86_64-w64-mingw32/8.2.1/../../../../x86_64-w64-mingw32/lib/../lib/libmingwex.a(lib64_libmingwex_a-cos.o) (__cosl_internal)
C:/msys64/mingw64/bin/../lib/gcc/x86_64-w64-mingw32/8.2.1/../../../../x86_64-w64-mingw32/lib/../lib/libmingwex.a(lib64_libmingwex_a-exp.o)
                              window/x86_64/libluajit.a(lj_vm.o) (exp)
C:/msys64/mingw64/bin/../lib/gcc/x86_64-w64-mingw32/8.2.1/../../../../x86_64-w64-mingw32/lib/../lib/libmingwex.a(lib64_libmingwex_a-floor.o)
                              C:\msys64\tmp\ccuduyC5.o (floor)
C:/msys64/mingw64/bin/../lib/gcc/x86_64-w64-mingw32/8.2.1/../../../../x86_64-w64-mingw32/lib/../lib/libmingwex.a(lib64_libmingwex_a-fmod.o)
                              window/x86_64/libluajit.a(lj_vm.o) (fmod)
C:/msys64/mingw64/bin/../lib/gcc/x86_64-w64-mingw32/8.2.1/../../../../x86_64-w64-mingw32/lib/../lib/libmingwex.a(lib64_libmingwex_a-ldexp.o)
                              window/x86_64/libluajit.a(lj_vmmath.o) (ldexp)
C:/msys64/mingw64/bin/../lib/gcc/x86_64-w64-mingw32/8.2.1/../../../../x86_64-w64-mingw32/lib/../lib/libmingwex.a(lib64_libmingwex_a-log.o)
                              window/x86_64/libluajit.a(lj_vm.o) (log)
C:/msys64/mingw64/bin/../lib/gcc/x86_64-w64-mingw32/8.2.1/../../../../x86_64-w64-mingw32/lib/../lib/libmingwex.a(lib64_libmingwex_a-pow.o)
                              C:\msys64\tmp\ccfy01SD.o (pow)
C:/msys64/mingw64/bin/../lib/gcc/x86_64-w64-mingw32/8.2.1/../../../../x86_64-w64-mingw32/lib/../lib/libmingwex.a(lib64_libmingwex_a-sin.o)
                              window/x86_64/libluajit.a(lj_vm.o) (sin)
C:/msys64/mingw64/bin/../lib/gcc/x86_64-w64-mingw32/8.2.1/../../../../x86_64-w64-mingw32/lib/../lib/libmingwex.a(lib64_libmingwex_a-sinl_internal.o)
                              C:/msys64/mingw64/bin/../lib/gcc/x86_64-w64-mingw32/8.2.1/../../../../x86_64-w64-mingw32/lib/../lib/libmingwex.a(lib64_libmingwex_a-sin.o) (__sinl_internal)
C:/msys64/mingw64/bin/../lib/gcc/x86_64-w64-mingw32/8.2.1/../../../../x86_64-w64-mingw32/lib/../lib/libmingwex.a(lib64_libmingwex_a-strtodg.o)
                              C:/msys64/mingw64/bin/../lib/gcc/x86_64-w64-mingw32/8.2.1/../../../../x86_64-w64-mingw32/lib/../lib/libmingwex.a(lib64_libmingwex_a-strtodnrp.o) (__strtodg)
C:/msys64/mingw64/bin/../lib/gcc/x86_64-w64-mingw32/8.2.1/../../../../x86_64-w64-mingw32/lib/../lib/libmingwex.a(lib64_libmingwex_a-sum.o)
                              C:/msys64/mingw64/bin/../lib/gcc/x86_64-w64-mingw32/8.2.1/../../../../x86_64-w64-mingw32/lib/../lib/libmingwex.a(lib64_libmingwex_a-strtodg.o) (__sum_D2A)
C:/msys64/mingw64/bin/../lib/gcc/x86_64-w64-mingw32/8.2.1/../../../../x86_64-w64-mingw32/lib/../lib/libmingwex.a(lib64_libmingwex_a-powi.o)
                              C:/msys64/mingw64/bin/../lib/gcc/x86_64-w64-mingw32/8.2.1/../../../../x86_64-w64-mingw32/lib/../lib/libmingwex.a(lib64_libmingwex_a-pow.o) (__powi)
C:/msys64/mingw64/bin/../lib/gcc/x86_64-w64-mingw32/8.2.1/../../../../x86_64-w64-mingw32/lib/../lib/libmingwex.a(lib64_libmingwex_a-exp2l.o)
                              C:/msys64/mingw64/bin/../lib/gcc/x86_64-w64-mingw32/8.2.1/../../../../x86_64-w64-mingw32/lib/../lib/libmingwex.a(lib64_libmingwex_a-pow.o) (exp2l)
C:/msys64/mingw64/bin/../lib/gcc/x86_64-w64-mingw32/8.2.1/../../../../x86_64-w64-mingw32/lib/../lib/libmingwex.a(lib64_libmingwex_a-internal_logl.o)
                              C:/msys64/mingw64/bin/../lib/gcc/x86_64-w64-mingw32/8.2.1/../../../../x86_64-w64-mingw32/lib/../lib/libmingwex.a(lib64_libmingwex_a-log.o) (__logl_internal)
C:/msys64/mingw64/bin/../lib/gcc/x86_64-w64-mingw32/8.2.1/../../../../x86_64-w64-mingw32/lib/../lib/libmingwex.a(lib64_libmingwex_a-log2l.o)
                              C:/msys64/mingw64/bin/../lib/gcc/x86_64-w64-mingw32/8.2.1/../../../../x86_64-w64-mingw32/lib/../lib/libmingwex.a(lib64_libmingwex_a-pow.o) (log2l)
C:/msys64/mingw64/bin/../lib/gcc/x86_64-w64-mingw32/8.2.1/../../../../x86_64-w64-mingw32/lib/../lib/libmingwex.a(lib64_libmingwex_a-gethex.o)
                              C:/msys64/mingw64/bin/../lib/gcc/x86_64-w64-mingw32/8.2.1/../../../../x86_64-w64-mingw32/lib/../lib/libmingwex.a(lib64_libmingwex_a-strtodg.o) (__gethex_D2A)
C:/msys64/mingw64/bin/../lib/gcc/x86_64-w64-mingw32/8.2.1/../../../../x86_64-w64-mingw32/lib/../lib/libmingwex.a(lib64_libmingwex_a-gmisc.o)
                              C:/msys64/mingw64/bin/../lib/gcc/x86_64-w64-mingw32/8.2.1/../../../../x86_64-w64-mingw32/lib/../lib/libmingwex.a(lib64_libmingwex_a-strtodg.o) (__rshift_D2A)
C:/msys64/mingw64/bin/../lib/gcc/x86_64-w64-mingw32/8.2.1/../../../../x86_64-w64-mingw32/lib/../lib/libmingwex.a(lib64_libmingwex_a-hd_init.o)
                              C:/msys64/mingw64/bin/../lib/gcc/x86_64-w64-mingw32/8.2.1/../../../../x86_64-w64-mingw32/lib/../lib/libmingwex.a(lib64_libmingwex_a-gethex.o) (__mingw_hexdig_init_D2A)
C:/msys64/mingw64/bin/../lib/gcc/x86_64-w64-mingw32/8.2.1/../../../../x86_64-w64-mingw32/lib/../lib/libmingwex.a(lib64_libmingwex_a-hexnan.o)
                              C:/msys64/mingw64/bin/../lib/gcc/x86_64-w64-mingw32/8.2.1/../../../../x86_64-w64-mingw32/lib/../lib/libmingwex.a(lib64_libmingwex_a-strtodg.o) (__hexnan_D2A)
C:/msys64/mingw64/bin/../lib/gcc/x86_64-w64-mingw32/8.2.1/../../../../x86_64-w64-mingw32/lib/../lib/libmingwex.a(lib64_libmingwex_a-misc.o)
                              C:/msys64/mingw64/bin/../lib/gcc/x86_64-w64-mingw32/8.2.1/../../../../x86_64-w64-mingw32/lib/../lib/libmingwex.a(lib64_libmingwex_a-strtodg.o) (__Balloc_D2A)
C:/msys64/mingw64/bin/../lib/gcc/x86_64-w64-mingw32/8.2.1/../../../../x86_64-w64-mingw32/lib/../lib/libmingwex.a(lib64_libmingwex_a-smisc.o)
                              C:/msys64/mingw64/bin/../lib/gcc/x86_64-w64-mingw32/8.2.1/../../../../x86_64-w64-mingw32/lib/../lib/libmingwex.a(lib64_libmingwex_a-strtodg.o) (__s2b_D2A)
C:/msys64/mingw64/bin/../lib/gcc/x86_64-w64-mingw32/8.2.1/../../../../x86_64-w64-mingw32/lib/../lib/libmsvcrt.a(dieybs01325.o)
                              C:/msys64/mingw64/bin/../lib/gcc/x86_64-w64-mingw32/8.2.1/../../../../x86_64-w64-mingw32/lib/../lib/libws2_32.a(lib64_libws2_32_a-gai_strerrorA.o) (wcstombs)
C:/msys64/mingw64/bin/../lib/gcc/x86_64-w64-mingw32/8.2.1/../../../../x86_64-w64-mingw32/lib/../lib/libmsvcrt.a(dieybs01305.o)
                              C:/msys64/mingw64/bin/../lib/gcc/x86_64-w64-mingw32/8.2.1/../../../../x86_64-w64-mingw32/lib/../lib/libmingwex.a(lib64_libmingwex_a-wassert.o) (wcscpy)
C:/msys64/mingw64/bin/../lib/gcc/x86_64-w64-mingw32/8.2.1/../../../../x86_64-w64-mingw32/lib/../lib/libmsvcrt.a(dieybs01288.o)
                              C:\msys64\tmp\cctFmZYO.o (vfprintf)
C:/msys64/mingw64/bin/../lib/gcc/x86_64-w64-mingw32/8.2.1/../../../../x86_64-w64-mingw32/lib/../lib/libmsvcrt.a(dieybs01286.o)
                              window/x86_64/libluajit.a(lib_io.o) (ungetc)
C:/msys64/mingw64/bin/../lib/gcc/x86_64-w64-mingw32/8.2.1/../../../../x86_64-w64-mingw32/lib/../lib/libmsvcrt.a(dieybs01282.o)
                              C:\msys64\tmp\ccTqPSxT.o (__imp_tolower)
C:/msys64/mingw64/bin/../lib/gcc/x86_64-w64-mingw32/8.2.1/../../../../x86_64-w64-mingw32/lib/../lib/libmsvcrt.a(dieybs01280.o)
                              window/x86_64/libluajit.a(lib_os.o) (tmpnam)
C:/msys64/mingw64/bin/../lib/gcc/x86_64-w64-mingw32/8.2.1/../../../../x86_64-w64-mingw32/lib/../lib/libmsvcrt.a(dieybs01278.o)
                              window/x86_64/libluajit.a(lib_io.o) (tmpfile)
C:/msys64/mingw64/bin/../lib/gcc/x86_64-w64-mingw32/8.2.1/../../../../x86_64-w64-mingw32/lib/../lib/libmsvcrt.a(dieybs01277.o)
                              window/x86_64/libluajit.a(lj_vm.o) (tanh)
C:/msys64/mingw64/bin/../lib/gcc/x86_64-w64-mingw32/8.2.1/../../../../x86_64-w64-mingw32/lib/../lib/libmsvcrt.a(dieybs01275.o)
                              window/x86_64/libluajit.a(lj_vm.o) (tan)
C:/msys64/mingw64/bin/../lib/gcc/x86_64-w64-mingw32/8.2.1/../../../../x86_64-w64-mingw32/lib/../lib/libmsvcrt.a(dieybs01274.o)
                              C:\msys64\tmp\ccTqPSxT.o (system)
C:/msys64/mingw64/bin/../lib/gcc/x86_64-w64-mingw32/8.2.1/../../../../x86_64-w64-mingw32/lib/../lib/libmsvcrt.a(dieybs01268.o)
                              C:\msys64\tmp\ccoLUxS8.o (strtoul)
C:/msys64/mingw64/bin/../lib/gcc/x86_64-w64-mingw32/8.2.1/../../../../x86_64-w64-mingw32/lib/../lib/libmsvcrt.a(dieybs01267.o)
                              C:\msys64\tmp\ccTqPSxT.o (strtol)
C:/msys64/mingw64/bin/../lib/gcc/x86_64-w64-mingw32/8.2.1/../../../../x86_64-w64-mingw32/lib/../lib/libmsvcrt.a(dieybs01263.o)
                              C:\msys64\tmp\ccfy01SD.o (strstr)
C:/msys64/mingw64/bin/../lib/gcc/x86_64-w64-mingw32/8.2.1/../../../../x86_64-w64-mingw32/lib/../lib/libmsvcrt.a(dieybs01261.o)
                              window/x86_64/libluajit.a(lib_package.o) (strrchr)
C:/msys64/mingw64/bin/../lib/gcc/x86_64-w64-mingw32/8.2.1/../../../../x86_64-w64-mingw32/lib/../lib/libmsvcrt.a(dieybs01258.o)
                              C:\msys64\tmp\ccTqPSxT.o (strncpy)
C:/msys64/mingw64/bin/../lib/gcc/x86_64-w64-mingw32/8.2.1/../../../../x86_64-w64-mingw32/lib/../lib/libmsvcrt.a(dieybs01257.o)
                              C:\msys64\tmp\ccuduyC5.o (strncmp)
C:/msys64/mingw64/bin/../lib/gcc/x86_64-w64-mingw32/8.2.1/../../../../x86_64-w64-mingw32/lib/../lib/libmsvcrt.a(dieybs01254.o)
                              C:\msys64\tmp\ccfy01SD.o (strlen)
C:/msys64/mingw64/bin/../lib/gcc/x86_64-w64-mingw32/8.2.1/../../../../x86_64-w64-mingw32/lib/../lib/libmsvcrt.a(dieybs01253.o)
                              window/x86_64/libluajit.a(lib_os.o) (strftime)
C:/msys64/mingw64/bin/../lib/gcc/x86_64-w64-mingw32/8.2.1/../../../../x86_64-w64-mingw32/lib/../lib/libmsvcrt.a(dieybs01251.o)
                              C:\msys64\tmp\ccoUgfsm.o (strerror)
C:/msys64/mingw64/bin/../lib/gcc/x86_64-w64-mingw32/8.2.1/../../../../x86_64-w64-mingw32/lib/../lib/libmsvcrt.a(dieybs01248.o)
                              window/x86_64/libluajit.a(lj_debug.o) (strcpy)
C:/msys64/mingw64/bin/../lib/gcc/x86_64-w64-mingw32/8.2.1/../../../../x86_64-w64-mingw32/lib/../lib/libmsvcrt.a(dieybs01246.o)
                              C:\msys64\tmp\ccfy01SD.o (strcmp)
C:/msys64/mingw64/bin/../lib/gcc/x86_64-w64-mingw32/8.2.1/../../../../x86_64-w64-mingw32/lib/../lib/libmsvcrt.a(dieybs01245.o)
                              C:\msys64\tmp\ccfy01SD.o (strchr)
C:/msys64/mingw64/bin/../lib/gcc/x86_64-w64-mingw32/8.2.1/../../../../x86_64-w64-mingw32/lib/../lib/libmsvcrt.a(dieybs01241.o)
                              C:\msys64\tmp\ccQHA7kH.o (sscanf)
C:/msys64/mingw64/bin/../lib/gcc/x86_64-w64-mingw32/8.2.1/../../../../x86_64-w64-mingw32/lib/../lib/libmsvcrt.a(dieybs01237.o)
                              C:\msys64\tmp\ccWMuz0v.o (sprintf)
C:/msys64/mingw64/bin/../lib/gcc/x86_64-w64-mingw32/8.2.1/../../../../x86_64-w64-mingw32/lib/../lib/libmsvcrt.a(dieybs01235.o)
                              window/x86_64/libluajit.a(lj_vm.o) (sinh)
C:/msys64/mingw64/bin/../lib/gcc/x86_64-w64-mingw32/8.2.1/../../../../x86_64-w64-mingw32/lib/../lib/libmsvcrt.a(dieybs01232.o)
                              C:/msys64/mingw64/bin/../lib/gcc/x86_64-w64-mingw32/8.2.1/../../../../x86_64-w64-mingw32/lib/../lib/libmingw32.a(lib64_libmingw32_a-crt_handler.o) (signal)
C:/msys64/mingw64/bin/../lib/gcc/x86_64-w64-mingw32/8.2.1/../../../../x86_64-w64-mingw32/lib/../lib/libmsvcrt.a(dieybs01231.o)
                              window/x86_64/libluajit.a(lib_io.o) (setvbuf)
C:/msys64/mingw64/bin/../lib/gcc/x86_64-w64-mingw32/8.2.1/../../../../x86_64-w64-mingw32/lib/../lib/libmsvcrt.a(dieybs01230.o)
                              window/x86_64/libluajit.a(lib_os.o) (setlocale)
C:/msys64/mingw64/bin/../lib/gcc/x86_64-w64-mingw32/8.2.1/../../../../x86_64-w64-mingw32/lib/../lib/libmsvcrt.a(dieybs01225.o)
                              C:\msys64\tmp\ccTqPSxT.o (rewind)
C:/msys64/mingw64/bin/../lib/gcc/x86_64-w64-mingw32/8.2.1/../../../../x86_64-w64-mingw32/lib/../lib/libmsvcrt.a(dieybs01224.o)
                              window/x86_64/libluajit.a(lib_os.o) (rename)
C:/msys64/mingw64/bin/../lib/gcc/x86_64-w64-mingw32/8.2.1/../../../../x86_64-w64-mingw32/lib/../lib/libmsvcrt.a(dieybs01223.o)
                              window/x86_64/libluajit.a(lib_os.o) (remove)
C:/msys64/mingw64/bin/../lib/gcc/x86_64-w64-mingw32/8.2.1/../../../../x86_64-w64-mingw32/lib/../lib/libmsvcrt.a(dieybs01222.o)
                              C:\msys64\tmp\ccz1diiN.o (realloc)
C:/msys64/mingw64/bin/../lib/gcc/x86_64-w64-mingw32/8.2.1/../../../../x86_64-w64-mingw32/lib/../lib/libmsvcrt.a(dieybs01220.o)
                              C:/msys64/mingw64/bin/../lib/gcc/x86_64-w64-mingw32/8.2.1/../../../../x86_64-w64-mingw32/lib/../lib/libmingwex.a(lib64_libmingwex_a-wassert.o) (raise)
C:/msys64/mingw64/bin/../lib/gcc/x86_64-w64-mingw32/8.2.1/../../../../x86_64-w64-mingw32/lib/../lib/libmsvcrt.a(dieybs01218.o)
                              C:\msys64\tmp\cckEQkSt.o (qsort)
C:/msys64/mingw64/bin/../lib/gcc/x86_64-w64-mingw32/8.2.1/../../../../x86_64-w64-mingw32/lib/../lib/libmsvcrt.a(dieybs01215.o)
                              C:\msys64\tmp\ccLt5nLD.o (puts)
C:/msys64/mingw64/bin/../lib/gcc/x86_64-w64-mingw32/8.2.1/../../../../x86_64-w64-mingw32/lib/../lib/libmsvcrt.a(dieybs01214.o)
                              C:\msys64\tmp\ccLt5nLD.o (putchar)
C:/msys64/mingw64/bin/../lib/gcc/x86_64-w64-mingw32/8.2.1/../../../../x86_64-w64-mingw32/lib/../lib/libmsvcrt.a(dieybs01213.o)
                              C:\msys64\tmp\ccTqPSxT.o (putc)
C:/msys64/mingw64/bin/../lib/gcc/x86_64-w64-mingw32/8.2.1/../../../../x86_64-w64-mingw32/lib/../lib/libmsvcrt.a(dieybs01211.o)
                              C:\msys64\tmp\ccLt5nLD.o (printf)
C:/msys64/mingw64/bin/../lib/gcc/x86_64-w64-mingw32/8.2.1/../../../../x86_64-w64-mingw32/lib/../lib/libmsvcrt.a(dieybs01204.o)
                              C:\msys64\tmp\ccz1diiN.o (memset)
C:/msys64/mingw64/bin/../lib/gcc/x86_64-w64-mingw32/8.2.1/../../../../x86_64-w64-mingw32/lib/../lib/libmsvcrt.a(dieybs01203.o)
                              C:\msys64\tmp\ccXRde14.o (memmove)
C:/msys64/mingw64/bin/../lib/gcc/x86_64-w64-mingw32/8.2.1/../../../../x86_64-w64-mingw32/lib/../lib/libmsvcrt.a(dieybs01202.o)
                              C:\msys64\tmp\ccfy01SD.o (memcpy)
C:/msys64/mingw64/bin/../lib/gcc/x86_64-w64-mingw32/8.2.1/../../../../x86_64-w64-mingw32/lib/../lib/libmsvcrt.a(dieybs01201.o)
                              C:\msys64\tmp\ccTqPSxT.o (memcmp)
C:/msys64/mingw64/bin/../lib/gcc/x86_64-w64-mingw32/8.2.1/../../../../x86_64-w64-mingw32/lib/../lib/libmsvcrt.a(dieybs01200.o)
                              C:\msys64\tmp\ccuoZVRF.o (memchr)
C:/msys64/mingw64/bin/../lib/gcc/x86_64-w64-mingw32/8.2.1/../../../../x86_64-w64-mingw32/lib/../lib/libmsvcrt.a(dieybs01193.o)
                              C:/msys64/mingw64/bin/../lib/gcc/x86_64-w64-mingw32/8.2.1/../../../../x86_64-w64-mingw32/lib/../lib/dllcrt2.o (malloc)
C:/msys64/mingw64/bin/../lib/gcc/x86_64-w64-mingw32/8.2.1/../../../../x86_64-w64-mingw32/lib/../lib/libmsvcrt.a(dieybs01189.o)
                              window/x86_64/libluajit.a(lj_vm.o) (log10)
C:/msys64/mingw64/bin/../lib/gcc/x86_64-w64-mingw32/8.2.1/../../../../x86_64-w64-mingw32/lib/../lib/libmsvcrt.a(dieybs01187.o)
                              C:\msys64\tmp\ccXRde14.o (localtime)
C:/msys64/mingw64/bin/../lib/gcc/x86_64-w64-mingw32/8.2.1/../../../../x86_64-w64-mingw32/lib/../lib/libmsvcrt.a(dieybs01186.o)
                              C:/msys64/mingw64/bin/../lib/gcc/x86_64-w64-mingw32/8.2.1/../../../../x86_64-w64-mingw32/lib/../lib/libmingwex.a(lib64_libmingwex_a-strtodg.o) (localeconv)
C:/msys64/mingw64/bin/../lib/gcc/x86_64-w64-mingw32/8.2.1/../../../../x86_64-w64-mingw32/lib/../lib/libmsvcrt.a(dieybs01182.o)
                              C:\msys64\tmp\ccLt5nLD.o (__imp_isxdigit)
C:/msys64/mingw64/bin/../lib/gcc/x86_64-w64-mingw32/8.2.1/../../../../x86_64-w64-mingw32/lib/../lib/libmsvcrt.a(dieybs01168.o)
                              C:/msys64/mingw64/bin/../lib/gcc/x86_64-w64-mingw32/8.2.1/../../../../x86_64-w64-mingw32/lib/../lib/libmingwex.a(lib64_libmingwex_a-strtoimax.o) (isupper)
C:/msys64/mingw64/bin/../lib/gcc/x86_64-w64-mingw32/8.2.1/../../../../x86_64-w64-mingw32/lib/../lib/libmsvcrt.a(dieybs01167.o)
                              C:/msys64/mingw64/bin/../lib/gcc/x86_64-w64-mingw32/8.2.1/../../../../x86_64-w64-mingw32/lib/../lib/libmingwex.a(lib64_libmingwex_a-strtoimax.o) (isspace)
C:/msys64/mingw64/bin/../lib/gcc/x86_64-w64-mingw32/8.2.1/../../../../x86_64-w64-mingw32/lib/../lib/libmsvcrt.a(dieybs01166.o)
                              C:\msys64\tmp\ccLt5nLD.o (__imp_ispunct)
C:/msys64/mingw64/bin/../lib/gcc/x86_64-w64-mingw32/8.2.1/../../../../x86_64-w64-mingw32/lib/../lib/libmsvcrt.a(dieybs01165.o)
                              C:\msys64\tmp\ccLt5nLD.o (__imp_isprint)
C:/msys64/mingw64/bin/../lib/gcc/x86_64-w64-mingw32/8.2.1/../../../../x86_64-w64-mingw32/lib/../lib/libmsvcrt.a(dieybs01164.o)
                              C:/msys64/mingw64/bin/../lib/gcc/x86_64-w64-mingw32/8.2.1/../../../../x86_64-w64-mingw32/lib/../lib/libmingwex.a(lib64_libmingwex_a-strtoimax.o) (islower)
C:/msys64/mingw64/bin/../lib/gcc/x86_64-w64-mingw32/8.2.1/../../../../x86_64-w64-mingw32/lib/../lib/libmsvcrt.a(dieybs01162.o)
                              C:\msys64\tmp\ccLt5nLD.o (__imp_isgraph)
C:/msys64/mingw64/bin/../lib/gcc/x86_64-w64-mingw32/8.2.1/../../../../x86_64-w64-mingw32/lib/../lib/libmsvcrt.a(dieybs01161.o)
                              C:\msys64\tmp\ccLt5nLD.o (__imp_isdigit)
C:/msys64/mingw64/bin/../lib/gcc/x86_64-w64-mingw32/8.2.1/../../../../x86_64-w64-mingw32/lib/../lib/libmsvcrt.a(dieybs01160.o)
                              C:\msys64\tmp\ccLt5nLD.o (__imp_iscntrl)
C:/msys64/mingw64/bin/../lib/gcc/x86_64-w64-mingw32/8.2.1/../../../../x86_64-w64-mingw32/lib/../lib/libmsvcrt.a(dieybs01159.o)
                              C:\msys64\tmp\ccLt5nLD.o (__imp_isalpha)
C:/msys64/mingw64/bin/../lib/gcc/x86_64-w64-mingw32/8.2.1/../../../../x86_64-w64-mingw32/lib/../lib/libmsvcrt.a(dieybs01158.o)
                              C:\msys64\tmp\ccLt5nLD.o (__imp_isalnum)
C:/msys64/mingw64/bin/../lib/gcc/x86_64-w64-mingw32/8.2.1/../../../../x86_64-w64-mingw32/lib/../lib/libmsvcrt.a(dieybs01150.o)
                              C:\msys64\tmp\ccTqPSxT.o (getenv)
C:/msys64/mingw64/bin/../lib/gcc/x86_64-w64-mingw32/8.2.1/../../../../x86_64-w64-mingw32/lib/../lib/libmsvcrt.a(dieybs01148.o)
                              window/x86_64/libluajit.a(lib_io.o) (getc)
C:/msys64/mingw64/bin/../lib/gcc/x86_64-w64-mingw32/8.2.1/../../../../x86_64-w64-mingw32/lib/../lib/libmsvcrt.a(dieybs01145.o)
                              C:\msys64\tmp\ccfy01SD.o (fwrite)
C:/msys64/mingw64/bin/../lib/gcc/x86_64-w64-mingw32/8.2.1/../../../../x86_64-w64-mingw32/lib/../lib/libmsvcrt.a(dieybs01143.o)
                              C:/msys64/mingw64/bin/../lib/gcc/x86_64-w64-mingw32/8.2.1/../../../../x86_64-w64-mingw32/lib/../lib/libmingwex.a(lib64_libmingwex_a-wassert.o) (fwprintf)
C:/msys64/mingw64/bin/../lib/gcc/x86_64-w64-mingw32/8.2.1/../../../../x86_64-w64-mingw32/lib/../lib/libmsvcrt.a(dieybs01142.o)
                              C:\msys64\tmp\ccfy01SD.o (ftell)
C:/msys64/mingw64/bin/../lib/gcc/x86_64-w64-mingw32/8.2.1/../../../../x86_64-w64-mingw32/lib/../lib/libmsvcrt.a(dieybs01141.o)
                              C:/msys64/mingw64/bin/../lib/gcc/x86_64-w64-mingw32/8.2.1/../../../../x86_64-w64-mingw32/lib/../lib/libmingwex.a(lib64_libmingwex_a-fseeko64.o) (fsetpos)
C:/msys64/mingw64/bin/../lib/gcc/x86_64-w64-mingw32/8.2.1/../../../../x86_64-w64-mingw32/lib/../lib/libmsvcrt.a(dieybs01140.o)
                              C:\msys64\tmp\ccfy01SD.o (fseek)
C:/msys64/mingw64/bin/../lib/gcc/x86_64-w64-mingw32/8.2.1/../../../../x86_64-w64-mingw32/lib/../lib/libmsvcrt.a(dieybs01137.o)
                              window/x86_64/libluajit.a(lib_io.o) (fscanf)
C:/msys64/mingw64/bin/../lib/gcc/x86_64-w64-mingw32/8.2.1/../../../../x86_64-w64-mingw32/lib/../lib/libmsvcrt.a(dieybs01136.o)
                              window/x86_64/libluajit.a(lj_vm.o) (frexp)
C:/msys64/mingw64/bin/../lib/gcc/x86_64-w64-mingw32/8.2.1/../../../../x86_64-w64-mingw32/lib/../lib/libmsvcrt.a(dieybs01133.o)
                              C:/msys64/mingw64/bin/../lib/gcc/x86_64-w64-mingw32/8.2.1/../../../../x86_64-w64-mingw32/lib/../lib/dllcrt2.o (free)
C:/msys64/mingw64/bin/../lib/gcc/x86_64-w64-mingw32/8.2.1/../../../../x86_64-w64-mingw32/lib/../lib/libmsvcrt.a(dieybs01132.o)
                              C:\msys64\tmp\ccfy01SD.o (fread)
C:/msys64/mingw64/bin/../lib/gcc/x86_64-w64-mingw32/8.2.1/../../../../x86_64-w64-mingw32/lib/../lib/libmsvcrt.a(dieybs01129.o)
                              C:\msys64\tmp\ccTqPSxT.o (fputs)
C:/msys64/mingw64/bin/../lib/gcc/x86_64-w64-mingw32/8.2.1/../../../../x86_64-w64-mingw32/lib/../lib/libmsvcrt.a(dieybs01128.o)
                              C:\msys64\tmp\cctFmZYO.o (fputc)
C:/msys64/mingw64/bin/../lib/gcc/x86_64-w64-mingw32/8.2.1/../../../../x86_64-w64-mingw32/lib/../lib/libmsvcrt.a(dieybs01126.o)
                              C:\msys64\tmp\cctFmZYO.o (fprintf)
C:/msys64/mingw64/bin/../lib/gcc/x86_64-w64-mingw32/8.2.1/../../../../x86_64-w64-mingw32/lib/../lib/libmsvcrt.a(dieybs01124.o)
                              C:\msys64\tmp\ccfy01SD.o (fopen)
C:/msys64/mingw64/bin/../lib/gcc/x86_64-w64-mingw32/8.2.1/../../../../x86_64-w64-mingw32/lib/../lib/libmsvcrt.a(dieybs01117.o)
                              C:\msys64\tmp\ccTqPSxT.o (fgets)
C:/msys64/mingw64/bin/../lib/gcc/x86_64-w64-mingw32/8.2.1/../../../../x86_64-w64-mingw32/lib/../lib/libmsvcrt.a(dieybs01116.o)
                              C:/msys64/mingw64/bin/../lib/gcc/x86_64-w64-mingw32/8.2.1/../../../../x86_64-w64-mingw32/lib/../lib/libmingwex.a(lib64_libmingwex_a-fseeko64.o) (fgetpos)
C:/msys64/mingw64/bin/../lib/gcc/x86_64-w64-mingw32/8.2.1/../../../../x86_64-w64-mingw32/lib/../lib/libmsvcrt.a(dieybs01115.o)
                              C:\msys64\tmp\ccTqPSxT.o (fgetc)
C:/msys64/mingw64/bin/../lib/gcc/x86_64-w64-mingw32/8.2.1/../../../../x86_64-w64-mingw32/lib/../lib/libmsvcrt.a(dieybs01114.o)
                              C:\msys64\tmp\ccTqPSxT.o (fflush)
C:/msys64/mingw64/bin/../lib/gcc/x86_64-w64-mingw32/8.2.1/../../../../x86_64-w64-mingw32/lib/../lib/libmsvcrt.a(dieybs01113.o)
                              window/x86_64/libluajit.a(lj_load.o) (ferror)
C:/msys64/mingw64/bin/../lib/gcc/x86_64-w64-mingw32/8.2.1/../../../../x86_64-w64-mingw32/lib/../lib/libmsvcrt.a(dieybs01112.o)
                              C:\msys64\tmp\ccS3faXP.o (feof)
C:/msys64/mingw64/bin/../lib/gcc/x86_64-w64-mingw32/8.2.1/../../../../x86_64-w64-mingw32/lib/../lib/libmsvcrt.a(dieybs01111.o)
                              C:\msys64\tmp\ccfy01SD.o (fclose)
C:/msys64/mingw64/bin/../lib/gcc/x86_64-w64-mingw32/8.2.1/../../../../x86_64-w64-mingw32/lib/../lib/libmsvcrt.a(dieybs01107.o)
                              C:\msys64\tmp\cctFmZYO.o (exit)
C:/msys64/mingw64/bin/../lib/gcc/x86_64-w64-mingw32/8.2.1/../../../../x86_64-w64-mingw32/lib/../lib/libmsvcrt.a(dieybs01102.o)
                              window/x86_64/libluajit.a(lj_vm.o) (cosh)
C:/msys64/mingw64/bin/../lib/gcc/x86_64-w64-mingw32/8.2.1/../../../../x86_64-w64-mingw32/lib/../lib/libmsvcrt.a(dieybs01099.o)
                              C:\msys64\tmp\ccVizNw9.o (clock)
C:/msys64/mingw64/bin/../lib/gcc/x86_64-w64-mingw32/8.2.1/../../../../x86_64-w64-mingw32/lib/../lib/libmsvcrt.a(dieybs01097.o)
                              window/x86_64/libluajit.a(lib_io.o) (clearerr)
C:/msys64/mingw64/bin/../lib/gcc/x86_64-w64-mingw32/8.2.1/../../../../x86_64-w64-mingw32/lib/../lib/libmsvcrt.a(dieybs01094.o)
                              C:\msys64\tmp\ccoUgfsm.o (calloc)
C:/msys64/mingw64/bin/../lib/gcc/x86_64-w64-mingw32/8.2.1/../../../../x86_64-w64-mingw32/lib/../lib/libmsvcrt.a(dieybs01090.o)
                              C:\msys64\tmp\ccfy01SD.o (atoi)
C:/msys64/mingw64/bin/../lib/gcc/x86_64-w64-mingw32/8.2.1/../../../../x86_64-w64-mingw32/lib/../lib/libmsvcrt.a(dieybs01084.o)
                              window/x86_64/libluajit.a(lj_vm.o) (atan)
C:/msys64/mingw64/bin/../lib/gcc/x86_64-w64-mingw32/8.2.1/../../../../x86_64-w64-mingw32/lib/../lib/libmsvcrt.a(dieybs01082.o)
                              window/x86_64/libluajit.a(lj_vm.o) (asin)
C:/msys64/mingw64/bin/../lib/gcc/x86_64-w64-mingw32/8.2.1/../../../../x86_64-w64-mingw32/lib/../lib/libmsvcrt.a(dieybs01079.o)
                              window/x86_64/libluajit.a(lj_vm.o) (acos)
C:/msys64/mingw64/bin/../lib/gcc/x86_64-w64-mingw32/8.2.1/../../../../x86_64-w64-mingw32/lib/../lib/libmsvcrt.a(dieybs01077.o)
                              C:\msys64\tmp\ccJuBzPw.o (abort)
C:/msys64/mingw64/bin/../lib/gcc/x86_64-w64-mingw32/8.2.1/../../../../x86_64-w64-mingw32/lib/../lib/libmsvcrt.a(dieybs01031.o)
                              C:/msys64/mingw64/bin/../lib/gcc/x86_64-w64-mingw32/8.2.1/../../../../x86_64-w64-mingw32/lib/../lib/libmingwex.a(lib64_libmingwex_a-fseeko64.o) (_write)
C:/msys64/mingw64/bin/../lib/gcc/x86_64-w64-mingw32/8.2.1/../../../../x86_64-w64-mingw32/lib/../lib/libmsvcrt.a(dieybs00895.o)
                              C:/msys64/mingw64/bin/../lib/gcc/x86_64-w64-mingw32/8.2.1/../../../../x86_64-w64-mingw32/lib/../lib/libmingwex.a(lib64_libmingwex_a-vsnprintf.o) (_vsnprintf)
C:/msys64/mingw64/bin/../lib/gcc/x86_64-w64-mingw32/8.2.1/../../../../x86_64-w64-mingw32/lib/../lib/libmsvcrt.a(dieybs00863.o)
                              C:/msys64/mingw64/bin/../lib/gcc/x86_64-w64-mingw32/8.2.1/../../../../x86_64-w64-mingw32/lib/../lib/libmingw32.a(lib64_libmingw32_a-atonexit.o) (_unlock)
C:/msys64/mingw64/bin/../lib/gcc/x86_64-w64-mingw32/8.2.1/../../../../x86_64-w64-mingw32/lib/../lib/libmsvcrt.a(dieybs00834.o)
                              window/x86_64/libluajit.a(lib_os.o) (__imp__time64)
C:/msys64/mingw64/bin/../lib/gcc/x86_64-w64-mingw32/8.2.1/../../../../x86_64-w64-mingw32/lib/../lib/libmsvcrt.a(dieybs00789.o)
                              C:\msys64\tmp\ccuduyC5.o (__imp__strnicmp)
C:/msys64/mingw64/bin/../lib/gcc/x86_64-w64-mingw32/8.2.1/../../../../x86_64-w64-mingw32/lib/../lib/libmsvcrt.a(dieybs00728.o)
                              C:/msys64/mingw64/bin/../lib/gcc/x86_64-w64-mingw32/8.2.1/../../../../x86_64-w64-mingw32/lib/../lib/libmingwex.a(lib64_libmingwex_a-wassert.o) (_snwprintf)
C:/msys64/mingw64/bin/../lib/gcc/x86_64-w64-mingw32/8.2.1/../../../../x86_64-w64-mingw32/lib/../lib/libmsvcrt.a(dieybs00714.o)
                              C:\msys64\tmp\ccTqPSxT.o (_setmode)
C:/msys64/mingw64/bin/../lib/gcc/x86_64-w64-mingw32/8.2.1/../../../../x86_64-w64-mingw32/lib/../lib/libmsvcrt.a(dieybs00663.o)
                              C:\msys64\tmp\ccTqPSxT.o (__imp__popen)
C:/msys64/mingw64/bin/../lib/gcc/x86_64-w64-mingw32/8.2.1/../../../../x86_64-w64-mingw32/lib/../lib/libmsvcrt.a(dieybs00659.o)
                              C:\msys64\tmp\ccTqPSxT.o (__imp__pclose)
C:/msys64/mingw64/bin/../lib/gcc/x86_64-w64-mingw32/8.2.1/../../../../x86_64-w64-mingw32/lib/../lib/libmsvcrt.a(dieybs00651.o)
                              C:/msys64/mingw64/bin/../lib/gcc/x86_64-w64-mingw32/8.2.1/../../../../x86_64-w64-mingw32/lib/../lib/libmingw32.a(lib64_libmingw32_a-atonexit.o) (__imp__onexit)
C:/msys64/mingw64/bin/../lib/gcc/x86_64-w64-mingw32/8.2.1/../../../../x86_64-w64-mingw32/lib/../lib/libmsvcrt.a(dieybs00646.o)
                              window/x86_64/libluajit.a(lib_os.o) (__imp__mktime64)
C:/msys64/mingw64/bin/../lib/gcc/x86_64-w64-mingw32/8.2.1/../../../../x86_64-w64-mingw32/lib/../lib/libmsvcrt.a(dieybs00489.o)
                              C:/msys64/mingw64/bin/../lib/gcc/x86_64-w64-mingw32/8.2.1/../../../../x86_64-w64-mingw32/lib/../lib/libmingwex.a(lib64_libmingwex_a-fseeko64.o) (_lseeki64)
C:/msys64/mingw64/bin/../lib/gcc/x86_64-w64-mingw32/8.2.1/../../../../x86_64-w64-mingw32/lib/../lib/libmsvcrt.a(dieybs00479.o)
                              C:/msys64/mingw64/bin/../lib/gcc/x86_64-w64-mingw32/8.2.1/../../../../x86_64-w64-mingw32/lib/../lib/libmingw32.a(lib64_libmingw32_a-atonexit.o) (_lock)
C:/msys64/mingw64/bin/../lib/gcc/x86_64-w64-mingw32/8.2.1/../../../../x86_64-w64-mingw32/lib/../lib/libmsvcrt.a(dieybs00478.o)
                              window/x86_64/libluajit.a(lib_os.o) (__imp__localtime64)
C:/msys64/mingw64/bin/../lib/gcc/x86_64-w64-mingw32/8.2.1/../../../../x86_64-w64-mingw32/lib/../lib/libmsvcrt.a(dieybs00373.o)
                              C:\msys64\tmp\ccTqPSxT.o (_isatty)
C:/msys64/mingw64/bin/../lib/gcc/x86_64-w64-mingw32/8.2.1/../../../../x86_64-w64-mingw32/lib/../lib/libmsvcrt.a(dieybs00369.o)
                              C:/msys64/mingw64/bin/../lib/gcc/x86_64-w64-mingw32/8.2.1/../../../../x86_64-w64-mingw32/lib/../lib/dllcrt2.o (_initterm)
C:/msys64/mingw64/bin/../lib/gcc/x86_64-w64-mingw32/8.2.1/../../../../x86_64-w64-mingw32/lib/../lib/libmsvcrt.a(dieybs00353.o)
                              window/x86_64/libluajit.a(lib_os.o) (__imp__gmtime64)
C:/msys64/mingw64/bin/../lib/gcc/x86_64-w64-mingw32/8.2.1/../../../../x86_64-w64-mingw32/lib/../lib/libmsvcrt.a(dieybs00288.o)
                              window/x86_64/libluajit.a(lj_clib.o) (__imp__fmode)
C:/msys64/mingw64/bin/../lib/gcc/x86_64-w64-mingw32/8.2.1/../../../../x86_64-w64-mingw32/lib/../lib/libmsvcrt.a(dieybs00273.o)
                              C:/msys64/mingw64/bin/../lib/gcc/x86_64-w64-mingw32/8.2.1/../../../../x86_64-w64-mingw32/lib/../lib/libmingwex.a(lib64_libmingwex_a-fseeko64.o) (_fileno)
C:/msys64/mingw64/bin/../lib/gcc/x86_64-w64-mingw32/8.2.1/../../../../x86_64-w64-mingw32/lib/../lib/libmsvcrt.a(dieybs00271.o)
                              C:/msys64/mingw64/bin/../lib/gcc/x86_64-w64-mingw32/8.2.1/../../../../x86_64-w64-mingw32/lib/../lib/libmingwex.a(lib64_libmingwex_a-fseeko64.o) (_filelengthi64)
C:/msys64/mingw64/bin/../lib/gcc/x86_64-w64-mingw32/8.2.1/../../../../x86_64-w64-mingw32/lib/../lib/libmsvcrt.a(dieybs00254.o)
                              C:/msys64/mingw64/bin/../lib/gcc/x86_64-w64-mingw32/8.2.1/../../../../x86_64-w64-mingw32/lib/../lib/libmingwex.a(lib64_libmingwex_a-wassert.o) (_exit)
C:/msys64/mingw64/bin/../lib/gcc/x86_64-w64-mingw32/8.2.1/../../../../x86_64-w64-mingw32/lib/../lib/libmsvcrt.a(dieybs00237.o)
                              C:/msys64/mingw64/bin/../lib/gcc/x86_64-w64-mingw32/8.2.1/../../../../x86_64-w64-mingw32/lib/../lib/libmingwex.a(lib64_libmingwex_a-sqrt.o) (_errno)
C:/msys64/mingw64/bin/../lib/gcc/x86_64-w64-mingw32/8.2.1/../../../../x86_64-w64-mingw32/lib/../lib/libmsvcrt.a(dieybs00233.o)
                              C:\msys64\tmp\ccXRde14.o (__imp__endthreadex)
C:/msys64/mingw64/bin/../lib/gcc/x86_64-w64-mingw32/8.2.1/../../../../x86_64-w64-mingw32/lib/../lib/libmsvcrt.a(dieybs00171.o)
                              C:\msys64\tmp\ccXRde14.o (__imp__beginthreadex)
C:/msys64/mingw64/bin/../lib/gcc/x86_64-w64-mingw32/8.2.1/../../../../x86_64-w64-mingw32/lib/../lib/libmsvcrt.a(dieybs00162.o)
                              C:/msys64/mingw64/bin/../lib/gcc/x86_64-w64-mingw32/8.2.1/../../../../x86_64-w64-mingw32/lib/../lib/libmingwex.a(lib64_libmingwex_a-atoll.o) (_atoi64)
C:/msys64/mingw64/bin/../lib/gcc/x86_64-w64-mingw32/8.2.1/../../../../x86_64-w64-mingw32/lib/../lib/libmsvcrt.a(dieybs00156.o)
                              C:/msys64/mingw64/bin/../lib/gcc/x86_64-w64-mingw32/8.2.1/../../../../x86_64-w64-mingw32/lib/../lib/dllcrt2.o (_amsg_exit)
C:/msys64/mingw64/bin/../lib/gcc/x86_64-w64-mingw32/8.2.1/../../../../x86_64-w64-mingw32/lib/../lib/libmsvcrt.a(dieybs00142.o)
                              C:\msys64\tmp\ccTqPSxT.o (_access)
C:/msys64/mingw64/bin/../lib/gcc/x86_64-w64-mingw32/8.2.1/../../../../x86_64-w64-mingw32/lib/../lib/libmsvcrt.a(dieybs00122.o)
                              C:/msys64/mingw64/bin/../lib/gcc/x86_64-w64-mingw32/8.2.1/../../../../x86_64-w64-mingw32/lib/../lib/libmingwex.a(lib64_libmingwex_a-fseeko64.o) (__imp___pioinfo)
C:/msys64/mingw64/bin/../lib/gcc/x86_64-w64-mingw32/8.2.1/../../../../x86_64-w64-mingw32/lib/../lib/libmsvcrt.a(dieybs00083.o)
                              C:/msys64/mingw64/bin/../lib/gcc/x86_64-w64-mingw32/8.2.1/../../../../x86_64-w64-mingw32/lib/../lib/libmingw32.a(lib64_libmingw32_a-pseudo-reloc.o) (__iob_func)
C:/msys64/mingw64/bin/../lib/gcc/x86_64-w64-mingw32/8.2.1/../../../../x86_64-w64-mingw32/lib/../lib/libmsvcrt.a(dieybs00079.o)
                              C:/msys64/mingw64/bin/../lib/gcc/x86_64-w64-mingw32/8.2.1/../../../../x86_64-w64-mingw32/lib/../lib/libmingwex.a(lib64_libmingwex_a-fseeko64.o) (__doserrno)
C:/msys64/mingw64/bin/../lib/gcc/x86_64-w64-mingw32/8.2.1/../../../../x86_64-w64-mingw32/lib/../lib/libmsvcrt.a(dieybs00078.o)
                              C:/msys64/mingw64/bin/../lib/gcc/x86_64-w64-mingw32/8.2.1/../../../../x86_64-w64-mingw32/lib/../lib/libmingw32.a(lib64_libmingw32_a-atonexit.o) (__dllonexit)
C:/msys64/mingw64/bin/../lib/gcc/x86_64-w64-mingw32/8.2.1/../../../../x86_64-w64-mingw32/lib/../lib/libmsvcrt.a(dieybs00058.o)
                              window/x86_64/libluajit.a(lj_err.o) (__DestructExceptionObject)
C:/msys64/mingw64/bin/../lib/gcc/x86_64-w64-mingw32/8.2.1/../../../../x86_64-w64-mingw32/lib/../lib/libmsvcrt.a(dieybh.o)
                              C:/msys64/mingw64/bin/../lib/gcc/x86_64-w64-mingw32/8.2.1/../../../../x86_64-w64-mingw32/lib/../lib/libmsvcrt.a(dieybs01325.o) (_head_lib64_libmsvcrt_a)
C:/msys64/mingw64/bin/../lib/gcc/x86_64-w64-mingw32/8.2.1/../../../../x86_64-w64-mingw32/lib/../lib/libmsvcrt.a(dieybt.o)
                              C:/msys64/mingw64/bin/../lib/gcc/x86_64-w64-mingw32/8.2.1/../../../../x86_64-w64-mingw32/lib/../lib/libmsvcrt.a(dieybh.o) (__lib64_libmsvcrt_a_iname)
C:/msys64/mingw64/bin/../lib/gcc/x86_64-w64-mingw32/8.2.1/../../../../x86_64-w64-mingw32/lib/../lib/libuser32.a(dyotbs00619.o)
                              C:/msys64/mingw64/bin/../lib/gcc/x86_64-w64-mingw32/8.2.1/../../../../x86_64-w64-mingw32/lib/../lib/libmingwex.a(lib64_libmingwex_a-wassert.o) (__imp_MessageBoxW)
C:/msys64/mingw64/bin/../lib/gcc/x86_64-w64-mingw32/8.2.1/../../../../x86_64-w64-mingw32/lib/../lib/libuser32.a(dyotbh.o)
                              C:/msys64/mingw64/bin/../lib/gcc/x86_64-w64-mingw32/8.2.1/../../../../x86_64-w64-mingw32/lib/../lib/libuser32.a(dyotbs00619.o) (_head_lib64_libuser32_a)
C:/msys64/mingw64/bin/../lib/gcc/x86_64-w64-mingw32/8.2.1/../../../../x86_64-w64-mingw32/lib/../lib/libuser32.a(dyotbt.o)
                              C:/msys64/mingw64/bin/../lib/gcc/x86_64-w64-mingw32/8.2.1/../../../../x86_64-w64-mingw32/lib/../lib/libuser32.a(dyotbh.o) (__lib64_libuser32_a_iname)
C:/msys64/mingw64/bin/../lib/gcc/x86_64-w64-mingw32/8.2.1/../../../../x86_64-w64-mingw32/lib/../lib/libkernel32.a(dkzxbs01510.o)
                              C:\msys64\tmp\ccXRde14.o (WriteFile)
C:/msys64/mingw64/bin/../lib/gcc/x86_64-w64-mingw32/8.2.1/../../../../x86_64-w64-mingw32/lib/../lib/libkernel32.a(dkzxbs01490.o)
                              C:\msys64\tmp\ccXRde14.o (WideCharToMultiByte)
C:/msys64/mingw64/bin/../lib/gcc/x86_64-w64-mingw32/8.2.1/../../../../x86_64-w64-mingw32/lib/../lib/libkernel32.a(dkzxbs01454.o)
                              C:\msys64\tmp\ccXRde14.o (WaitForSingleObjectEx)
C:/msys64/mingw64/bin/../lib/gcc/x86_64-w64-mingw32/8.2.1/../../../../x86_64-w64-mingw32/lib/../lib/libkernel32.a(dkzxbs01453.o)
                              C:\msys64\tmp\ccXRde14.o (WaitForSingleObject)
C:/msys64/mingw64/bin/../lib/gcc/x86_64-w64-mingw32/8.2.1/../../../../x86_64-w64-mingw32/lib/../lib/libkernel32.a(dkzxbs01445.o)
                              window/x86_64/libluajit.a(lj_alloc.o) (__imp_VirtualQuery)
C:/msys64/mingw64/bin/../lib/gcc/x86_64-w64-mingw32/8.2.1/../../../../x86_64-w64-mingw32/lib/../lib/libkernel32.a(dkzxbs01443.o)
                              window/x86_64/libluajit.a(lj_mcode.o) (__imp_VirtualProtect)
C:/msys64/mingw64/bin/../lib/gcc/x86_64-w64-mingw32/8.2.1/../../../../x86_64-w64-mingw32/lib/../lib/libkernel32.a(dkzxbs01440.o)
                              window/x86_64/libluajit.a(lj_mcode.o) (__imp_VirtualFree)
C:/msys64/mingw64/bin/../lib/gcc/x86_64-w64-mingw32/8.2.1/../../../../x86_64-w64-mingw32/lib/../lib/libkernel32.a(dkzxbs01436.o)
                              window/x86_64/libluajit.a(lj_mcode.o) (__imp_VirtualAlloc)
C:/msys64/mingw64/bin/../lib/gcc/x86_64-w64-mingw32/8.2.1/../../../../x86_64-w64-mingw32/lib/../lib/libkernel32.a(dkzxbs01412.o)
                              C:\msys64\tmp\ccXRde14.o (UnmapViewOfFile)
C:/msys64/mingw64/bin/../lib/gcc/x86_64-w64-mingw32/8.2.1/../../../../x86_64-w64-mingw32/lib/../lib/libkernel32.a(dkzxbs01411.o)
                              C:\msys64\tmp\ccXRde14.o (UnlockFileEx)
C:/msys64/mingw64/bin/../lib/gcc/x86_64-w64-mingw32/8.2.1/../../../../x86_64-w64-mingw32/lib/../lib/libkernel32.a(dkzxbs01410.o)
                              C:\msys64\tmp\ccXRde14.o (UnlockFile)
C:/msys64/mingw64/bin/../lib/gcc/x86_64-w64-mingw32/8.2.1/../../../../x86_64-w64-mingw32/lib/../lib/libkernel32.a(dkzxbs01409.o)
                              C:/msys64/mingw64/bin/../lib/gcc/x86_64-w64-mingw32/8.2.1/../../../../x86_64-w64-mingw32/lib/../lib/libmingw32.a(lib64_libmingw32_a-gs_support.o) (__imp_UnhandledExceptionFilter)
C:/msys64/mingw64/bin/../lib/gcc/x86_64-w64-mingw32/8.2.1/../../../../x86_64-w64-mingw32/lib/../lib/libkernel32.a(dkzxbs01402.o)
                              C:\msys64\tmp\ccXRde14.o (__imp_TryEnterCriticalSection)
C:/msys64/mingw64/bin/../lib/gcc/x86_64-w64-mingw32/8.2.1/../../../../x86_64-w64-mingw32/lib/../lib/libkernel32.a(dkzxbs01395.o)
                              C:/msys64/mingw64/bin/../lib/gcc/x86_64-w64-mingw32/8.2.1/../../../../x86_64-w64-mingw32/lib/../lib/libmingw32.a(lib64_libmingw32_a-tlsthrd.o) (__imp_TlsGetValue)
C:/msys64/mingw64/bin/../lib/gcc/x86_64-w64-mingw32/8.2.1/../../../../x86_64-w64-mingw32/lib/../lib/libkernel32.a(dkzxbs01375.o)
                              C:/msys64/mingw64/bin/../lib/gcc/x86_64-w64-mingw32/8.2.1/../../../../x86_64-w64-mingw32/lib/../lib/libmingw32.a(lib64_libmingw32_a-gs_support.o) (__imp_TerminateProcess)
C:/msys64/mingw64/bin/../lib/gcc/x86_64-w64-mingw32/8.2.1/../../../../x86_64-w64-mingw32/lib/../lib/libkernel32.a(dkzxbs01371.o)
                              C:\msys64\tmp\ccXRde14.o (SystemTimeToFileTime)
C:/msys64/mingw64/bin/../lib/gcc/x86_64-w64-mingw32/8.2.1/../../../../x86_64-w64-mingw32/lib/../lib/libkernel32.a(dkzxbs01360.o)
                              C:\msys64\tmp\ccXRde14.o (Sleep)
C:/msys64/mingw64/bin/../lib/gcc/x86_64-w64-mingw32/8.2.1/../../../../x86_64-w64-mingw32/lib/../lib/libkernel32.a(dkzxbs01346.o)
                              C:/msys64/mingw64/bin/../lib/gcc/x86_64-w64-mingw32/8.2.1/../../../../x86_64-w64-mingw32/lib/../lib/libmingw32.a(lib64_libmingw32_a-gs_support.o) (__imp_SetUnhandledExceptionFilter)
C:/msys64/mingw64/bin/../lib/gcc/x86_64-w64-mingw32/8.2.1/../../../../x86_64-w64-mingw32/lib/../lib/libkernel32.a(dkzxbs01290.o)
                              window/x86_64/libluajit.a(lj_dispatch.o) (__imp_SetLastError)
C:/msys64/mingw64/bin/../lib/gcc/x86_64-w64-mingw32/8.2.1/../../../../x86_64-w64-mingw32/lib/../lib/libkernel32.a(dkzxbs01276.o)
                              C:\msys64\tmp\ccXRde14.o (SetFilePointer)
C:/msys64/mingw64/bin/../lib/gcc/x86_64-w64-mingw32/8.2.1/../../../../x86_64-w64-mingw32/lib/../lib/libkernel32.a(dkzxbs01257.o)
                              C:\msys64\tmp\ccXRde14.o (SetEndOfFile)
C:/msys64/mingw64/bin/../lib/gcc/x86_64-w64-mingw32/8.2.1/../../../../x86_64-w64-mingw32/lib/../lib/libkernel32.a(dkzxbs01243.o)
                              C:\msys64\tmp\ccTqPSxT.o (__imp_SetConsoleTextAttribute)
C:/msys64/mingw64/bin/../lib/gcc/x86_64-w64-mingw32/8.2.1/../../../../x86_64-w64-mingw32/lib/../lib/libkernel32.a(dkzxbs01194.o)
                              C:/msys64/mingw64/bin/../lib/gcc/x86_64-w64-mingw32/8.2.1/../../../../x86_64-w64-mingw32/lib/../lib/libmingw32.a(lib64_libmingw32_a-gs_support.o) (__imp_RtlVirtualUnwind)
C:/msys64/mingw64/bin/../lib/gcc/x86_64-w64-mingw32/8.2.1/../../../../x86_64-w64-mingw32/lib/../lib/libkernel32.a(dkzxbs01193.o)
                              window/x86_64/libluajit.a(lj_err.o) (RtlUnwindEx)
C:/msys64/mingw64/bin/../lib/gcc/x86_64-w64-mingw32/8.2.1/../../../../x86_64-w64-mingw32/lib/../lib/libkernel32.a(dkzxbs01187.o)
                              C:/msys64/mingw64/bin/../lib/gcc/x86_64-w64-mingw32/8.2.1/../../../../x86_64-w64-mingw32/lib/../lib/libmingw32.a(lib64_libmingw32_a-gs_support.o) (__imp_RtlLookupFunctionEntry)
C:/msys64/mingw64/bin/../lib/gcc/x86_64-w64-mingw32/8.2.1/../../../../x86_64-w64-mingw32/lib/../lib/libkernel32.a(dkzxbs01180.o)
                              C:/msys64/mingw64/bin/../lib/gcc/x86_64-w64-mingw32/8.2.1/../../../../x86_64-w64-mingw32/lib/../lib/libmingw32.a(lib64_libmingw32_a-gs_support.o) (__imp_RtlCaptureContext)
C:/msys64/mingw64/bin/../lib/gcc/x86_64-w64-mingw32/8.2.1/../../../../x86_64-w64-mingw32/lib/../lib/libkernel32.a(dkzxbs01179.o)
                              C:/msys64/mingw64/bin/../lib/gcc/x86_64-w64-mingw32/8.2.1/../../../../x86_64-w64-mingw32/lib/../lib/libmingw32.a(lib64_libmingw32_a-crt_handler.o) (__imp_RtlAddFunctionTable)
C:/msys64/mingw64/bin/../lib/gcc/x86_64-w64-mingw32/8.2.1/../../../../x86_64-w64-mingw32/lib/../lib/libkernel32.a(dkzxbs01128.o)
                              C:\msys64\tmp\ccXRde14.o (ReadFile)
C:/msys64/mingw64/bin/../lib/gcc/x86_64-w64-mingw32/8.2.1/../../../../x86_64-w64-mingw32/lib/../lib/libkernel32.a(dkzxbs01112.o)
                              window/x86_64/libluajit.a(lj_err.o) (__imp_RaiseException)
C:/msys64/mingw64/bin/../lib/gcc/x86_64-w64-mingw32/8.2.1/../../../../x86_64-w64-mingw32/lib/../lib/libkernel32.a(dkzxbs01093.o)
                              C:\msys64\tmp\ccXRde14.o (QueryPerformanceCounter)
C:/msys64/mingw64/bin/../lib/gcc/x86_64-w64-mingw32/8.2.1/../../../../x86_64-w64-mingw32/lib/../lib/libkernel32.a(dkzxbs01042.o)
                              C:\msys64\tmp\ccXRde14.o (OutputDebugStringW)
C:/msys64/mingw64/bin/../lib/gcc/x86_64-w64-mingw32/8.2.1/../../../../x86_64-w64-mingw32/lib/../lib/libkernel32.a(dkzxbs01041.o)
                              C:\msys64\tmp\ccXRde14.o (OutputDebugStringA)
C:/msys64/mingw64/bin/../lib/gcc/x86_64-w64-mingw32/8.2.1/../../../../x86_64-w64-mingw32/lib/../lib/libkernel32.a(dkzxbs00999.o)
                              C:\msys64\tmp\ccXRde14.o (MultiByteToWideChar)
C:/msys64/mingw64/bin/../lib/gcc/x86_64-w64-mingw32/8.2.1/../../../../x86_64-w64-mingw32/lib/../lib/libkernel32.a(dkzxbs00982.o)
                              C:\msys64\tmp\ccXRde14.o (MapViewOfFile)
C:/msys64/mingw64/bin/../lib/gcc/x86_64-w64-mingw32/8.2.1/../../../../x86_64-w64-mingw32/lib/../lib/libkernel32.a(dkzxbs00978.o)
                              C:\msys64\tmp\ccXRde14.o (LockFileEx)
C:/msys64/mingw64/bin/../lib/gcc/x86_64-w64-mingw32/8.2.1/../../../../x86_64-w64-mingw32/lib/../lib/libkernel32.a(dkzxbs00977.o)
                              C:\msys64\tmp\ccXRde14.o (LockFile)
C:/msys64/mingw64/bin/../lib/gcc/x86_64-w64-mingw32/8.2.1/../../../../x86_64-w64-mingw32/lib/../lib/libkernel32.a(dkzxbs00967.o)
                              C:\msys64\tmp\ccXRde14.o (LocalFree)
C:/msys64/mingw64/bin/../lib/gcc/x86_64-w64-mingw32/8.2.1/../../../../x86_64-w64-mingw32/lib/../lib/libkernel32.a(dkzxbs00957.o)
                              C:\msys64\tmp\ccXRde14.o (LoadLibraryW)
C:/msys64/mingw64/bin/../lib/gcc/x86_64-w64-mingw32/8.2.1/../../../../x86_64-w64-mingw32/lib/../lib/libkernel32.a(dkzxbs00955.o)
                              window/x86_64/libluajit.a(lj_profile.o) (__imp_LoadLibraryExA)
C:/msys64/mingw64/bin/../lib/gcc/x86_64-w64-mingw32/8.2.1/../../../../x86_64-w64-mingw32/lib/../lib/libkernel32.a(dkzxbs00954.o)
                              C:\msys64\tmp\ccXRde14.o (LoadLibraryA)
C:/msys64/mingw64/bin/../lib/gcc/x86_64-w64-mingw32/8.2.1/../../../../x86_64-w64-mingw32/lib/../lib/libkernel32.a(dkzxbs00951.o)
                              C:\msys64\tmp\ccXRde14.o (__imp_LeaveCriticalSection)
C:/msys64/mingw64/bin/../lib/gcc/x86_64-w64-mingw32/8.2.1/../../../../x86_64-w64-mingw32/lib/../lib/libkernel32.a(dkzxbs00863.o)
                              C:\msys64\tmp\ccXRde14.o (__imp_InitializeCriticalSection)
C:/msys64/mingw64/bin/../lib/gcc/x86_64-w64-mingw32/8.2.1/../../../../x86_64-w64-mingw32/lib/../lib/libkernel32.a(dkzxbs00851.o)
                              C:\msys64\tmp\ccXRde14.o (HeapValidate)
C:/msys64/mingw64/bin/../lib/gcc/x86_64-w64-mingw32/8.2.1/../../../../x86_64-w64-mingw32/lib/../lib/libkernel32.a(dkzxbs00847.o)
                              C:\msys64\tmp\ccXRde14.o (HeapSize)
C:/msys64/mingw64/bin/../lib/gcc/x86_64-w64-mingw32/8.2.1/../../../../x86_64-w64-mingw32/lib/../lib/libkernel32.a(dkzxbs00845.o)
                              C:\msys64\tmp\ccXRde14.o (HeapReAlloc)
C:/msys64/mingw64/bin/../lib/gcc/x86_64-w64-mingw32/8.2.1/../../../../x86_64-w64-mingw32/lib/../lib/libkernel32.a(dkzxbs00841.o)
                              C:\msys64\tmp\ccXRde14.o (HeapFree)
C:/msys64/mingw64/bin/../lib/gcc/x86_64-w64-mingw32/8.2.1/../../../../x86_64-w64-mingw32/lib/../lib/libkernel32.a(dkzxbs00839.o)
                              C:\msys64\tmp\ccXRde14.o (HeapDestroy)
C:/msys64/mingw64/bin/../lib/gcc/x86_64-w64-mingw32/8.2.1/../../../../x86_64-w64-mingw32/lib/../lib/libkernel32.a(dkzxbs00837.o)
                              C:\msys64\tmp\ccXRde14.o (HeapCreate)
C:/msys64/mingw64/bin/../lib/gcc/x86_64-w64-mingw32/8.2.1/../../../../x86_64-w64-mingw32/lib/../lib/libkernel32.a(dkzxbs00836.o)
                              C:\msys64\tmp\ccXRde14.o (HeapCompact)
C:/msys64/mingw64/bin/../lib/gcc/x86_64-w64-mingw32/8.2.1/../../../../x86_64-w64-mingw32/lib/../lib/libkernel32.a(dkzxbs00835.o)
                              C:\msys64\tmp\ccXRde14.o (HeapAlloc)
C:/msys64/mingw64/bin/../lib/gcc/x86_64-w64-mingw32/8.2.1/../../../../x86_64-w64-mingw32/lib/../lib/libkernel32.a(dkzxbs00794.o)
                              C:\msys64\tmp\ccXRde14.o (GetVersionExW)
C:/msys64/mingw64/bin/../lib/gcc/x86_64-w64-mingw32/8.2.1/../../../../x86_64-w64-mingw32/lib/../lib/libkernel32.a(dkzxbs00793.o)
                              C:\msys64\tmp\ccXRde14.o (GetVersionExA)
C:/msys64/mingw64/bin/../lib/gcc/x86_64-w64-mingw32/8.2.1/../../../../x86_64-w64-mingw32/lib/../lib/libkernel32.a(dkzxbs00781.o)
                              C:/msys64/mingw64/bin/../lib/gcc/x86_64-w64-mingw32/8.2.1/../../../../x86_64-w64-mingw32/lib/../lib/libmingwex.a(lib64_libmingwex_a-gettimeofday.o) (__imp_GetTimeZoneInformation)
C:/msys64/mingw64/bin/../lib/gcc/x86_64-w64-mingw32/8.2.1/../../../../x86_64-w64-mingw32/lib/../lib/libkernel32.a(dkzxbs00774.o)
                              C:\msys64\tmp\ccXRde14.o (GetTickCount)
C:/msys64/mingw64/bin/../lib/gcc/x86_64-w64-mingw32/8.2.1/../../../../x86_64-w64-mingw32/lib/../lib/libkernel32.a(dkzxbs00759.o)
                              C:\msys64\tmp\ccXRde14.o (GetTempPathW)
C:/msys64/mingw64/bin/../lib/gcc/x86_64-w64-mingw32/8.2.1/../../../../x86_64-w64-mingw32/lib/../lib/libkernel32.a(dkzxbs00758.o)
                              C:\msys64\tmp\ccXRde14.o (GetTempPathA)
C:/msys64/mingw64/bin/../lib/gcc/x86_64-w64-mingw32/8.2.1/../../../../x86_64-w64-mingw32/lib/../lib/libkernel32.a(dkzxbs00746.o)
                              C:\msys64\tmp\ccXRde14.o (GetSystemTimeAsFileTime)
C:/msys64/mingw64/bin/../lib/gcc/x86_64-w64-mingw32/8.2.1/../../../../x86_64-w64-mingw32/lib/../lib/libkernel32.a(dkzxbs00744.o)
                              C:\msys64\tmp\ccXRde14.o (GetSystemTime)
C:/msys64/mingw64/bin/../lib/gcc/x86_64-w64-mingw32/8.2.1/../../../../x86_64-w64-mingw32/lib/../lib/libkernel32.a(dkzxbs00740.o)
                              C:\msys64\tmp\ccXRde14.o (GetSystemInfo)
C:/msys64/mingw64/bin/../lib/gcc/x86_64-w64-mingw32/8.2.1/../../../../x86_64-w64-mingw32/lib/../lib/libkernel32.a(dkzxbs00724.o)
                              C:\msys64\tmp\ccTqPSxT.o (__imp_GetStdHandle)
C:/msys64/mingw64/bin/../lib/gcc/x86_64-w64-mingw32/8.2.1/../../../../x86_64-w64-mingw32/lib/../lib/libkernel32.a(dkzxbs00694.o)
                              C:\msys64\tmp\ccXRde14.o (GetProcessHeap)
C:/msys64/mingw64/bin/../lib/gcc/x86_64-w64-mingw32/8.2.1/../../../../x86_64-w64-mingw32/lib/../lib/libkernel32.a(dkzxbs00689.o)
                              C:\msys64\tmp\ccXRde14.o (GetProcAddress)
C:/msys64/mingw64/bin/../lib/gcc/x86_64-w64-mingw32/8.2.1/../../../../x86_64-w64-mingw32/lib/../lib/libkernel32.a(dkzxbs00631.o)
                              window/x86_64/libluajit.a(lj_clib.o) (__imp_GetModuleHandleExA)
C:/msys64/mingw64/bin/../lib/gcc/x86_64-w64-mingw32/8.2.1/../../../../x86_64-w64-mingw32/lib/../lib/libkernel32.a(dkzxbs00630.o)
                              window/x86_64/libluajit.a(lib_package.o) (__imp_GetModuleHandleA)
C:/msys64/mingw64/bin/../lib/gcc/x86_64-w64-mingw32/8.2.1/../../../../x86_64-w64-mingw32/lib/../lib/libkernel32.a(dkzxbs00629.o)
                              C:/msys64/mingw64/bin/../lib/gcc/x86_64-w64-mingw32/8.2.1/../../../../x86_64-w64-mingw32/lib/../lib/libmingwex.a(lib64_libmingwex_a-wassert.o) (__imp_GetModuleFileNameW)
C:/msys64/mingw64/bin/../lib/gcc/x86_64-w64-mingw32/8.2.1/../../../../x86_64-w64-mingw32/lib/../lib/libkernel32.a(dkzxbs00628.o)
                              window/x86_64/libluajit.a(lib_package.o) (__imp_GetModuleFileNameA)
C:/msys64/mingw64/bin/../lib/gcc/x86_64-w64-mingw32/8.2.1/../../../../x86_64-w64-mingw32/lib/../lib/libkernel32.a(dkzxbs00609.o)
                              C:\msys64\tmp\ccXRde14.o (GetLastError)
C:/msys64/mingw64/bin/../lib/gcc/x86_64-w64-mingw32/8.2.1/../../../../x86_64-w64-mingw32/lib/../lib/libkernel32.a(dkzxbs00603.o)
                              C:\msys64\tmp\ccXRde14.o (GetFullPathNameW)
C:/msys64/mingw64/bin/../lib/gcc/x86_64-w64-mingw32/8.2.1/../../../../x86_64-w64-mingw32/lib/../lib/libkernel32.a(dkzxbs00600.o)
                              C:\msys64\tmp\ccXRde14.o (GetFullPathNameA)
C:/msys64/mingw64/bin/../lib/gcc/x86_64-w64-mingw32/8.2.1/../../../../x86_64-w64-mingw32/lib/../lib/libkernel32.a(dkzxbs00589.o)
                              C:\msys64\tmp\ccXRde14.o (GetFileSize)
C:/msys64/mingw64/bin/../lib/gcc/x86_64-w64-mingw32/8.2.1/../../../../x86_64-w64-mingw32/lib/../lib/libkernel32.a(dkzxbs00583.o)
                              C:\msys64\tmp\ccXRde14.o (GetFileAttributesW)
C:/msys64/mingw64/bin/../lib/gcc/x86_64-w64-mingw32/8.2.1/../../../../x86_64-w64-mingw32/lib/../lib/libkernel32.a(dkzxbs00580.o)
                              C:\msys64\tmp\ccXRde14.o (GetFileAttributesExW)
C:/msys64/mingw64/bin/../lib/gcc/x86_64-w64-mingw32/8.2.1/../../../../x86_64-w64-mingw32/lib/../lib/libkernel32.a(dkzxbs00578.o)
                              C:\msys64\tmp\ccXRde14.o (GetFileAttributesA)
C:/msys64/mingw64/bin/../lib/gcc/x86_64-w64-mingw32/8.2.1/../../../../x86_64-w64-mingw32/lib/../lib/libkernel32.a(dkzxbs00555.o)
                              C:\msys64\tmp\ccXRde14.o (GetDiskFreeSpaceW)
C:/msys64/mingw64/bin/../lib/gcc/x86_64-w64-mingw32/8.2.1/../../../../x86_64-w64-mingw32/lib/../lib/libkernel32.a(dkzxbs00552.o)
                              C:\msys64\tmp\ccXRde14.o (GetDiskFreeSpaceA)
C:/msys64/mingw64/bin/../lib/gcc/x86_64-w64-mingw32/8.2.1/../../../../x86_64-w64-mingw32/lib/../lib/libkernel32.a(dkzxbs00540.o)
                              C:\msys64\tmp\ccXRde14.o (__imp_GetCurrentThreadId)
C:/msys64/mingw64/bin/../lib/gcc/x86_64-w64-mingw32/8.2.1/../../../../x86_64-w64-mingw32/lib/../lib/libkernel32.a(dkzxbs00536.o)
                              C:\msys64\tmp\ccXRde14.o (GetCurrentProcessId)
C:/msys64/mingw64/bin/../lib/gcc/x86_64-w64-mingw32/8.2.1/../../../../x86_64-w64-mingw32/lib/../lib/libkernel32.a(dkzxbs00535.o)
                              C:\msys64\tmp\ccTqPSxT.o (__imp_GetCurrentProcess)
C:/msys64/mingw64/bin/../lib/gcc/x86_64-w64-mingw32/8.2.1/../../../../x86_64-w64-mingw32/lib/../lib/libkernel32.a(dkzxbs00514.o)
                              C:\msys64\tmp\ccTqPSxT.o (__imp_GetConsoleScreenBufferInfo)
C:/msys64/mingw64/bin/../lib/gcc/x86_64-w64-mingw32/8.2.1/../../../../x86_64-w64-mingw32/lib/../lib/libkernel32.a(dkzxbs00427.o)
                              C:\msys64\tmp\ccXRde14.o (FreeLibrary)
C:/msys64/mingw64/bin/../lib/gcc/x86_64-w64-mingw32/8.2.1/../../../../x86_64-w64-mingw32/lib/../lib/libkernel32.a(dkzxbs00423.o)
                              C:\msys64\tmp\ccXRde14.o (FormatMessageW)
C:/msys64/mingw64/bin/../lib/gcc/x86_64-w64-mingw32/8.2.1/../../../../x86_64-w64-mingw32/lib/../lib/libkernel32.a(dkzxbs00422.o)
                              C:\msys64\tmp\ccXRde14.o (FormatMessageA)
C:/msys64/mingw64/bin/../lib/gcc/x86_64-w64-mingw32/8.2.1/../../../../x86_64-w64-mingw32/lib/../lib/libkernel32.a(dkzxbs00415.o)
                              C:\msys64\tmp\ccXRde14.o (FlushFileBuffers)
C:/msys64/mingw64/bin/../lib/gcc/x86_64-w64-mingw32/8.2.1/../../../../x86_64-w64-mingw32/lib/../lib/libkernel32.a(dkzxbs00304.o)
                              C:\msys64\tmp\ccXRde14.o (__imp_EnterCriticalSection)
C:/msys64/mingw64/bin/../lib/gcc/x86_64-w64-mingw32/8.2.1/../../../../x86_64-w64-mingw32/lib/../lib/libkernel32.a(dkzxbs00273.o)
                              C:\msys64\tmp\ccXRde14.o (DeleteFileW)
C:/msys64/mingw64/bin/../lib/gcc/x86_64-w64-mingw32/8.2.1/../../../../x86_64-w64-mingw32/lib/../lib/libkernel32.a(dkzxbs00270.o)
                              C:\msys64\tmp\ccXRde14.o (DeleteFileA)
C:/msys64/mingw64/bin/../lib/gcc/x86_64-w64-mingw32/8.2.1/../../../../x86_64-w64-mingw32/lib/../lib/libkernel32.a(dkzxbs00268.o)
                              C:\msys64\tmp\ccXRde14.o (__imp_DeleteCriticalSection)
C:/msys64/mingw64/bin/../lib/gcc/x86_64-w64-mingw32/8.2.1/../../../../x86_64-w64-mingw32/lib/../lib/libkernel32.a(dkzxbs00237.o)
                              window/x86_64/libluajit.a(lj_profile.o) (__imp_CreateThread)
C:/msys64/mingw64/bin/../lib/gcc/x86_64-w64-mingw32/8.2.1/../../../../x86_64-w64-mingw32/lib/../lib/libkernel32.a(dkzxbs00214.o)
                              C:\msys64\tmp\ccXRde14.o (CreateMutexW)
C:/msys64/mingw64/bin/../lib/gcc/x86_64-w64-mingw32/8.2.1/../../../../x86_64-w64-mingw32/lib/../lib/libkernel32.a(dkzxbs00199.o)
                              C:\msys64\tmp\ccXRde14.o (CreateFileW)
C:/msys64/mingw64/bin/../lib/gcc/x86_64-w64-mingw32/8.2.1/../../../../x86_64-w64-mingw32/lib/../lib/libkernel32.a(dkzxbs00196.o)
                              C:\msys64\tmp\ccXRde14.o (CreateFileMappingW)
C:/msys64/mingw64/bin/../lib/gcc/x86_64-w64-mingw32/8.2.1/../../../../x86_64-w64-mingw32/lib/../lib/libkernel32.a(dkzxbs00192.o)
                              C:\msys64\tmp\ccXRde14.o (CreateFileMappingA)
C:/msys64/mingw64/bin/../lib/gcc/x86_64-w64-mingw32/8.2.1/../../../../x86_64-w64-mingw32/lib/../lib/libkernel32.a(dkzxbs00191.o)
                              C:\msys64\tmp\ccXRde14.o (CreateFileA)
C:/msys64/mingw64/bin/../lib/gcc/x86_64-w64-mingw32/8.2.1/../../../../x86_64-w64-mingw32/lib/../lib/libkernel32.a(dkzxbs00130.o)
                              C:\msys64\tmp\ccXRde14.o (CloseHandle)
C:/msys64/mingw64/bin/../lib/gcc/x86_64-w64-mingw32/8.2.1/../../../../x86_64-w64-mingw32/lib/../lib/libkernel32.a(dkzxbs00027.o)
                              C:\msys64\tmp\ccXRde14.o (AreFileApisANSI)
C:/msys64/mingw64/bin/../lib/gcc/x86_64-w64-mingw32/8.2.1/../../../../x86_64-w64-mingw32/lib/../lib/libkernel32.a(dkzxbh.o)
                              C:/msys64/mingw64/bin/../lib/gcc/x86_64-w64-mingw32/8.2.1/../../../../x86_64-w64-mingw32/lib/../lib/libkernel32.a(dkzxbs01510.o) (_head_lib64_libkernel32_a)
C:/msys64/mingw64/bin/../lib/gcc/x86_64-w64-mingw32/8.2.1/../../../../x86_64-w64-mingw32/lib/../lib/libkernel32.a(dkzxbt.o)
                              C:/msys64/mingw64/bin/../lib/gcc/x86_64-w64-mingw32/8.2.1/../../../../x86_64-w64-mingw32/lib/../lib/libkernel32.a(dkzxbh.o) (__lib64_libkernel32_a_iname)
C:/msys64/mingw64/bin/../lib/gcc/x86_64-w64-mingw32/8.2.1/../../../../x86_64-w64-mingw32/lib/../lib/libmingw32.a(lib64_libmingw32_a-merr.o)
                              C:/msys64/mingw64/bin/../lib/gcc/x86_64-w64-mingw32/8.2.1/../../../../x86_64-w64-mingw32/lib/../lib/libmingwex.a(lib64_libmingwex_a-sqrt.o) (__mingw_raise_matherr)
C:/msys64/mingw64/bin/../lib/gcc/x86_64-w64-mingw32/8.2.1/../../../../x86_64-w64-mingw32/lib/../lib/libmsvcrt.a(dieybs00127.o)
                              C:/msys64/mingw64/bin/../lib/gcc/x86_64-w64-mingw32/8.2.1/../../../../x86_64-w64-mingw32/lib/../lib/libmingw32.a(lib64_libmingw32_a-merr.o) (__setusermatherr)

Allocating common symbols
Common symbol       size              file

__native_startup_state
                    0x4               C:/msys64/mingw64/bin/../lib/gcc/x86_64-w64-mingw32/8.2.1/../../../../x86_64-w64-mingw32/lib/../lib/libmingw32.a(lib64_libmingw32_a-natstart.o)
__onexitbegin       0x8               C:/msys64/mingw64/bin/../lib/gcc/x86_64-w64-mingw32/8.2.1/../../../../x86_64-w64-mingw32/lib/../lib/libmingw32.a(lib64_libmingw32_a-atonexit.o)
__onexitend         0x8               C:/msys64/mingw64/bin/../lib/gcc/x86_64-w64-mingw32/8.2.1/../../../../x86_64-w64-mingw32/lib/../lib/libmingw32.a(lib64_libmingw32_a-atonexit.o)
__native_startup_lock
                    0x8               C:/msys64/mingw64/bin/../lib/gcc/x86_64-w64-mingw32/8.2.1/../../../../x86_64-w64-mingw32/lib/../lib/libmingw32.a(lib64_libmingw32_a-natstart.o)
__hexdig_D2A        0x100             C:/msys64/mingw64/bin/../lib/gcc/x86_64-w64-mingw32/8.2.1/../../../../x86_64-w64-mingw32/lib/../lib/libmingwex.a(lib64_libmingwex_a-hd_init.o)

Discarded input sections

 .rdata$.refptr._KEY_ID
                0x0000000000000000       0x10 window/x86_64/libluajit.a(lj_err.o)
 .rdata$.refptr.lj_obj_itypename
                0x0000000000000000       0x10 window/x86_64/libluajit.a(lj_meta.o)
 .rdata$.refptr.lj_bc_mode
                0x0000000000000000       0x10 window/x86_64/libluajit.a(lj_debug.o)
 .rdata$.refptr.lj_char_bits
                0x0000000000000000       0x10 window/x86_64/libluajit.a(lj_strscan.o)
 .rdata$.refptr.lj_obj_itypename
                0x0000000000000000       0x10 window/x86_64/libluajit.a(lj_strfmt.o)
 .rdata$.refptr.lj_char_bits
                0x0000000000000000       0x10 window/x86_64/libluajit.a(lj_strfmt.o)
 .rdata$.refptr.lj_obj_typename
                0x0000000000000000       0x10 window/x86_64/libluajit.a(lj_api.o)
 .rdata$.refptr.lj_char_bits
                0x0000000000000000       0x10 window/x86_64/libluajit.a(lj_lex.o)
 .rdata$.refptr.lj_ir_mode
                0x0000000000000000       0x10 window/x86_64/libluajit.a(lj_opt_dce.o)
 .rdata$.refptr.lj_ir_mode
                0x0000000000000000       0x10 window/x86_64/libluajit.a(lj_opt_loop.o)
 .rdata$.refptr.lj_bc_mode
                0x0000000000000000       0x10 window/x86_64/libluajit.a(lj_snap.o)
 .rdata$.refptr.lj_cont_condt
                0x0000000000000000       0x10 window/x86_64/libluajit.a(lj_record.o)
 .rdata$.refptr.lj_cont_condf
                0x0000000000000000       0x10 window/x86_64/libluajit.a(lj_record.o)
 .rdata$.refptr.lj_cont_ra
                0x0000000000000000       0x10 window/x86_64/libluajit.a(lj_record.o)
 .rdata$.refptr.lj_cont_nop
                0x0000000000000000       0x10 window/x86_64/libluajit.a(lj_record.o)
 .rdata$.refptr.lj_bc_mode
                0x0000000000000000       0x10 window/x86_64/libluajit.a(lj_record.o)
 .rdata$.refptr.lj_cont_cat
                0x0000000000000000       0x10 window/x86_64/libluajit.a(lj_record.o)
 .rdata$.refptr.lj_ir_type_size
                0x0000000000000000       0x10 window/x86_64/libluajit.a(lj_crecord.o)
 .rdata$.refptr.lj_vm_exit_handler
                0x0000000000000000       0x10 window/x86_64/libluajit.a(lj_asm.o)
 .rdata$.refptr.lj_ir_callinfo
                0x0000000000000000       0x10 window/x86_64/libluajit.a(lj_asm.o)
 .rdata$.refptr.lj_ir_mode
                0x0000000000000000       0x10 window/x86_64/libluajit.a(lj_asm.o)
 .rdata$.refptr.lj_obj_itypename
                0x0000000000000000       0x10 window/x86_64/libluajit.a(lj_cconv.o)
 .rdata$.refptr.lj_obj_typename
                0x0000000000000000       0x10 window/x86_64/libluajit.a(lj_cconv.o)
 .rdata$.refptr.lj_obj_itypename
                0x0000000000000000       0x10 window/x86_64/libluajit.a(lj_carith.o)
 .rdata$.refptr.lj_err_allmsg
                0x0000000000000000       0x10 window/x86_64/libluajit.a(lj_cparse.o)
 .rdata$.refptr.lj_char_bits
                0x0000000000000000       0x10 window/x86_64/libluajit.a(lj_cparse.o)
 .rdata$.refptr.lj_alloc_f
                0x0000000000000000       0x10 window/x86_64/libluajit.a(lib_aux.o)
 .rdata$.refptr.lj_char_bits
                0x0000000000000000       0x10 window/x86_64/libluajit.a(lib_base.o)
 .rdata$.refptr.lj_obj_typename
                0x0000000000000000       0x10 window/x86_64/libluajit.a(lib_string.o)
 .rdata$.refptr.lj_char_bits
                0x0000000000000000       0x10 window/x86_64/libluajit.a(lib_string.o)
 .rdata$.refptr.lj_obj_itypename
                0x0000000000000000       0x10 window/x86_64/libluajit.a(lib_table.o)
 .rdata$.refptr.lj_bc_mode
                0x0000000000000000       0x10 window/x86_64/libluajit.a(lib_jit.o)
 .rdata$.refptr.lj_ir_mode
                0x0000000000000000       0x10 window/x86_64/libluajit.a(lib_jit.o)
 .rdata$.refptr.lj_ir_callinfo
                0x0000000000000000       0x10 window/x86_64/libluajit.a(lib_jit.o)
 .rdata$.refptr.lj_obj_itypename
                0x0000000000000000       0x10 window/x86_64/libluajit.a(lib_ffi.o)
 .drectve       0x0000000000000000       0x38 C:/msys64/mingw64/bin/../lib/gcc/x86_64-w64-mingw32/8.2.1/../../../../x86_64-w64-mingw32/lib/../lib/libmingw32.a(lib64_libmingw32_a-atonexit.o)
 .drectve       0x0000000000000000       0x4c C:/msys64/mingw64/bin/../lib/gcc/x86_64-w64-mingw32/8.2.1/../../../../x86_64-w64-mingw32/lib/../lib/libmingw32.a(lib64_libmingw32_a-natstart.o)
 .rdata$.refptr.__image_base__
                0x0000000000000000       0x10 C:/msys64/mingw64/bin/../lib/gcc/x86_64-w64-mingw32/8.2.1/../../../../x86_64-w64-mingw32/lib/../lib/libmingw32.a(lib64_libmingw32_a-pesect.o)
 .drectve       0x0000000000000000       0x3c C:/msys64/mingw64/bin/../lib/gcc/x86_64-w64-mingw32/8.2.1/libgcc.a(_ctors.o)
 .rdata$.refptr.mingw_app_type
                0x0000000000000000       0x10 C:/msys64/mingw64/bin/../lib/gcc/x86_64-w64-mingw32/8.2.1/../../../../x86_64-w64-mingw32/lib/../lib/libmingwex.a(lib64_libmingwex_a-wassert.o)
 .drectve       0x0000000000000000       0x1c C:/msys64/mingw64/bin/../lib/gcc/x86_64-w64-mingw32/8.2.1/../../../../x86_64-w64-mingw32/lib/../lib/libmingwex.a(lib64_libmingwex_a-hd_init.o)
 .rdata$.refptr.__hexdig_D2A
                0x0000000000000000       0x10 C:/msys64/mingw64/bin/../lib/gcc/x86_64-w64-mingw32/8.2.1/../../../../x86_64-w64-mingw32/lib/../lib/libmingwex.a(lib64_libmingwex_a-hexnan.o)

Memory Configuration

Name             Origin             Length             Attributes
*default*        0x0000000000000000 0xffffffffffffffff

Linker script and memory map

                0x00000000613c0000                __image_base__ = 0x613c0000
                0x0000000000000000                __dll__ = 0x0
                0x00000000613c0000                __ImageBase = 0x613c0000
                0x0000000000001000                __section_alignment__ = 0x1000
                0x0000000000000200                __file_alignment__ = 0x200
                0x0000000000000004                __major_os_version__ = 0x4
                0x0000000000000000                __minor_os_version__ = 0x0
                0x0000000000000000                __major_image_version__ = 0x0
                0x0000000000000000                __minor_image_version__ = 0x0
                0x0000000000000005                __major_subsystem_version__ = 0x5
                0x0000000000000002                __minor_subsystem_version__ = 0x2
                0x0000000000000003                __subsystem__ = 0x3
                0x0000000000200000                __size_of_stack_reserve__ = 0x200000
                0x0000000000001000                __size_of_stack_commit__ = 0x1000
                0x0000000000100000                __size_of_heap_reserve__ = 0x100000
                0x0000000000001000                __size_of_heap_commit__ = 0x1000
                0x0000000000000000                __loader_flags__ = 0x0
                0x0000000000000000                __dll_characteristics__ = 0x0
LOAD C:/msys64/mingw64/bin/../lib/gcc/x86_64-w64-mingw32/8.2.1/../../../../x86_64-w64-mingw32/lib/../lib/dllcrt2.o
LOAD C:/msys64/mingw64/bin/../lib/gcc/x86_64-w64-mingw32/8.2.1/crtbegin.o
LOAD C:\msys64\tmp\ccfy01SD.o
LOAD C:\msys64\tmp\ccWMuz0v.o
LOAD C:\msys64\tmp\ccFOXHzz.o
LOAD C:\msys64\tmp\ccLjWXKz.o
LOAD C:\msys64\tmp\ccz1diiN.o
LOAD C:\msys64\tmp\ccVizNw9.o
LOAD C:\msys64\tmp\ccjhsTYI.o
LOAD C:\msys64\tmp\ccLt5nLD.o
LOAD C:\msys64\tmp\ccuoZVRF.o
LOAD C:\msys64\tmp\cctFmZYO.o
LOAD C:\msys64\tmp\ccuduyC5.o
LOAD C:\msys64\tmp\ccJuBzPw.o
LOAD C:\msys64\tmp\ccTqPSxT.o
LOAD C:\msys64\tmp\ccXRde14.o
LOAD C:\msys64\tmp\ccpSIAqr.o
LOAD C:\msys64\tmp\ccZkAuiV.o
LOAD C:\msys64\tmp\ccJabTGs.o
LOAD C:\msys64\tmp\ccQHA7kH.o
LOAD C:\msys64\tmp\ccDKFcP3.o
LOAD C:\msys64\tmp\ccRApjM5.o
LOAD C:\msys64\tmp\cc5MSZGd.o
LOAD C:\msys64\tmp\ccxqqLTc.o
LOAD C:\msys64\tmp\ccenaSVZ.o
LOAD C:\msys64\tmp\ccSZ239v.o
LOAD C:\msys64\tmp\ccvj8G4H.o
LOAD C:\msys64\tmp\ccldb7oK.o
LOAD C:\msys64\tmp\cc1vz69F.o
LOAD C:\msys64\tmp\ccXkOUMF.o
LOAD C:\msys64\tmp\cc7I1SCN.o
LOAD C:\msys64\tmp\ccaJ2lTQ.o
LOAD C:\msys64\tmp\ccTYAR93.o
LOAD C:\msys64\tmp\cc2LD5lo.o
LOAD C:\msys64\tmp\cctiLsmQ.o
LOAD C:\msys64\tmp\cckEQkSt.o
LOAD C:\msys64\tmp\ccxxh8wg.o
LOAD C:\msys64\tmp\ccoLUxS8.o
LOAD C:\msys64\tmp\cc5FaVq8.o
LOAD C:\msys64\tmp\ccg4nTgg.o
LOAD C:\msys64\tmp\ccmZReTk.o
LOAD C:\msys64\tmp\ccA4uJAu.o
LOAD C:\msys64\tmp\ccS3faXP.o
LOAD C:\msys64\tmp\ccoUgfsm.o
LOAD C:\msys64\tmp\ccUcMoTZ.o
LOAD C:\msys64\tmp\ccidGW4M.o
LOAD C:\msys64\tmp\ccYk3DtG.o
LOAD C:\msys64\tmp\ccQIpGaD.o
LOAD C:/msys64/mingw64/bin/../lib/gcc/x86_64-w64-mingw32/8.2.1/../../../../x86_64-w64-mingw32/lib/../lib/libws2_32.a
LOAD window/x86_64/libluajit.a
LOAD C:/msys64/mingw64/bin/../lib/gcc/x86_64-w64-mingw32/8.2.1/../../../../x86_64-w64-mingw32/lib/../lib/libmingw32.a
LOAD C:/msys64/mingw64/bin/../lib/gcc/x86_64-w64-mingw32/8.2.1/libgcc.a
LOAD C:/msys64/mingw64/bin/../lib/gcc/x86_64-w64-mingw32/8.2.1/libgcc_eh.a
LOAD C:/msys64/mingw64/bin/../lib/gcc/x86_64-w64-mingw32/8.2.1/../../../../x86_64-w64-mingw32/lib/../lib/libmoldname.a
LOAD C:/msys64/mingw64/bin/../lib/gcc/x86_64-w64-mingw32/8.2.1/../../../../x86_64-w64-mingw32/lib/../lib/libmingwex.a
LOAD C:/msys64/mingw64/bin/../lib/gcc/x86_64-w64-mingw32/8.2.1/../../../../x86_64-w64-mingw32/lib/../lib/libmsvcrt.a
LOAD C:/msys64/mingw64/bin/../lib/gcc/x86_64-w64-mingw32/8.2.1/../../../../x86_64-w64-mingw32/lib/../lib/libpthread.dll.a
LOAD C:/msys64/mingw64/bin/../lib/gcc/x86_64-w64-mingw32/8.2.1/../../../../x86_64-w64-mingw32/lib/../lib/libadvapi32.a
LOAD C:/msys64/mingw64/bin/../lib/gcc/x86_64-w64-mingw32/8.2.1/../../../../x86_64-w64-mingw32/lib/../lib/libshell32.a
LOAD C:/msys64/mingw64/bin/../lib/gcc/x86_64-w64-mingw32/8.2.1/../../../../x86_64-w64-mingw32/lib/../lib/libuser32.a
LOAD C:/msys64/mingw64/bin/../lib/gcc/x86_64-w64-mingw32/8.2.1/../../../../x86_64-w64-mingw32/lib/../lib/libkernel32.a
LOAD C:/msys64/mingw64/bin/../lib/gcc/x86_64-w64-mingw32/8.2.1/../../../../x86_64-w64-mingw32/lib/../lib/libmingw32.a
LOAD C:/msys64/mingw64/bin/../lib/gcc/x86_64-w64-mingw32/8.2.1/libgcc.a
LOAD C:/msys64/mingw64/bin/../lib/gcc/x86_64-w64-mingw32/8.2.1/libgcc_eh.a
LOAD C:/msys64/mingw64/bin/../lib/gcc/x86_64-w64-mingw32/8.2.1/../../../../x86_64-w64-mingw32/lib/../lib/libmoldname.a
LOAD C:/msys64/mingw64/bin/../lib/gcc/x86_64-w64-mingw32/8.2.1/../../../../x86_64-w64-mingw32/lib/../lib/libmingwex.a
LOAD C:/msys64/mingw64/bin/../lib/gcc/x86_64-w64-mingw32/8.2.1/../../../../x86_64-w64-mingw32/lib/../lib/libmsvcrt.a
LOAD C:/msys64/mingw64/bin/../lib/gcc/x86_64-w64-mingw32/8.2.1/crtend.o
                0x0000000000000480                . = SIZEOF_HEADERS
                0x0000000000001000                . = ALIGN (__section_alignment__)

.text           0x00000000613c1000   0x142400
 *(.init)
 *(.text)
 .text          0x00000000613c1000      0x400 C:/msys64/mingw64/bin/../lib/gcc/x86_64-w64-mingw32/8.2.1/../../../../x86_64-w64-mingw32/lib/../lib/dllcrt2.o
                0x00000000613c1050                _CRT_INIT
                0x00000000613c13b0                DllMainCRTStartup
 .text          0x00000000613c1400       0x20 C:/msys64/mingw64/bin/../lib/gcc/x86_64-w64-mingw32/8.2.1/crtbegin.o
                0x00000000613c1400                __gcc_register_frame
                0x00000000613c1410                __gcc_deregister_frame
 .text          0x00000000613c1420     0x6fd0 C:\msys64\tmp\ccfy01SD.o
                0x00000000613c1420                tolua_tag
                0x00000000613c142d                tolua_newudata
                0x00000000613c147a                tolua_rawnetobj
                0x00000000613c1546                tolua_tocbuffer
                0x00000000613c159c                tolua_freebuffer
                0x00000000613c15b8                tolua_getvec2
                0x00000000613c164e                tolua_getvec3
                0x00000000613c16fe                tolua_getvec4
                0x00000000613c17c8                tolua_getquat
                0x00000000613c1892                tolua_getclr
                0x00000000613c195c                tolua_getlayermask
                0x00000000613c19eb                tolua_pushvec2
                0x00000000613c1a54                tolua_pushvec3
                0x00000000613c1ad4                tolua_pushvec4
                0x00000000613c1b66                tolua_pushquat
                0x00000000613c1bf8                tolua_pushclr
                0x00000000613c1c8a                tolua_pushlayermask
                0x00000000613c1cda                tolua_tolstring
                0x00000000613c1d1c                tolua_pushlstring
                0x00000000613c1d50                tolua_newuserdata
                0x00000000613c1d76                tolua_objlen
                0x00000000613c1da1                tolua_toboolean
                0x00000000613c1dce                tolua_tointeger
                0x00000000613c1df1                tolua_loadbuffer
                0x00000000613c1e73                tolua_getfield
                0x00000000613c1f48                tolua_setfield
                0x00000000613c2026                tolua_gettable
                0x00000000613c20f0                tolua_settable
                0x00000000613c2224                tolua_pushcfunction
                0x00000000613c22d7                tolua_argerror
                0x00000000613c23d8                tolua_error
                0x00000000613c241f                tolua_getn
                0x00000000613c2442                tolua_strlen
                0x00000000613c3730                tolua_isvptrtable
                0x00000000613c378b                tolua_setindex
                0x00000000613c37d2                tolua_setnewindex
                0x00000000613c3819                tolua_pushudata
                0x00000000613c3890                tolua_pushnewudata
                0x00000000613c391e                printTable
                0x00000000613c3ae7                initmodulebuffer
                0x00000000613c3b04                pushmodule
                0x00000000613c3bdc                tolua_beginmodule
                0x00000000613c3e49                tolua_endmodule
                0x00000000613c40a9                tolua_beginclass
                0x00000000613c4248                tolua_endclass
                0x00000000613c4277                tolua_beginenum
                0x00000000613c43b7                tolua_endenum
                0x00000000613c43e6                tolua_beginstaticclass
                0x00000000613c44ff                tolua_endstaticclass
                0x00000000613c452e                tolua_constant
                0x00000000613c457a                tolua_function
                0x00000000613c45c3                tolua_variable
                0x00000000613c4763                toluaL_ref
                0x00000000613c4844                toluaL_unref
                0x00000000613c48bb                tolua_getmainstate
                0x00000000613c4905                tolua_getvaluetype
                0x00000000613c49a0                tolua_createtable
                0x00000000613c4b02                tolua_beginpremodule
                0x00000000613c4d1a                tolua_endpremodule
                0x00000000613c4db3                tolua_addpreload
                0x00000000613c4f87                tolua_getclassref
                0x00000000613c4fe8                tolua_pushluatable
                0x00000000613c50cc                tolua_typename
                0x00000000613c5268                tolua_getmetatableref
                0x00000000613c5465                tolua_beginpcall
                0x00000000613c54b1                tolua_pushtraceback
                0x00000000613c54d8                tolua_require
                0x00000000613c5566                tolua_timegettime
                0x00000000613c5a08                tolua_openvptr
                0x00000000613c5aab                tolua_setluabaseridx
                0x00000000613c5b5e                tolua_openpreload
                0x00000000613c5bf8                tolua_opentraceback
                0x00000000613c5cad                tolua_openubox
                0x00000000613c5d38                tolua_openfixedmap
                0x00000000613c5d73                tolua_openvaluetype
                0x00000000613c5daf                tolua_openluavec3
                0x00000000613c5e6e                tolua_openluavec2
                0x00000000613c5f2d                tolua_openluavec4
                0x00000000613c5fec                tolua_openluaclr
                0x00000000613c60ab                tolua_openluaquat
                0x00000000613c616a                tolua_openlualayermask
                0x00000000613c6229                tolua_openupdate
                0x00000000613c6388                tolua_openlualibs
                0x00000000613c6417                NextPowerOfTwo
                0x00000000613c683a                tolua_openlibs
                0x00000000613c698a                tolua_setflag
                0x00000000613c69c5                tolua_getflag
                0x00000000613c69dc                tolua_buffinit
                0x00000000613c6a31                tolua_addlstring
                0x00000000613c6a65                tolua_addstring
                0x00000000613c6a8c                tolua_pushresult
                0x00000000613c6aa8                tolua_addchar
                0x00000000613c6b00                tolua_update
                0x00000000613c6b6b                tolua_lateupdate
                0x00000000613c6ba8                tolua_fixedupdate
                0x00000000613c6cde                tolua_regthis
                0x00000000613c6e0b                tolua_where
                0x00000000613c716b                tolua_getstring
                0x00000000613c7378                tolua_releasestring
                0x00000000613c74bb                timeDelta
                0x00000000613c74e5                getRealData
                0x00000000613c7825                testDll
                0x00000000613c7862                _check2
                0x00000000613c7ef1                _check
                0x00000000613c821a                doCheck
 .text          0x00000000613c83f0      0xee0 C:\msys64\tmp\ccWMuz0v.o
                0x00000000613c845e                _str2long
                0x00000000613c851e                tolua_isint64
                0x00000000613c859c                tolua_pushint64
                0x00000000613c86c1                tolua_toint64
                0x00000000613c8db3                tolua_newint64
                0x00000000613c8eb4                tolua_openint64
 .text          0x00000000613c92d0     0x1050 C:\msys64\tmp\ccFOXHzz.o
                0x00000000613c933e                _str2ulong
                0x00000000613c93fe                tolua_isuint64
                0x00000000613c9484                tolua_pushuint64
                0x00000000613c95a9                tolua_touint64
                0x00000000613c9dab                tolua_newuint64
                0x00000000613c9f0c                tolua_openuint64
 .text          0x00000000613ca320     0x1ab0 C:\msys64\tmp\ccLjWXKz.o
                0x00000000613cbd56                luaopen_pb
 .text          0x00000000613cbdd0     0x2d40 C:\msys64\tmp\ccz1diiN.o
                0x00000000613ce715                pb_decode
                0x00000000613ceaaf                luaopen_protobuf_c
 .text          0x00000000613ceb10     0x1060 C:\msys64\tmp\ccVizNw9.o
                0x00000000613cfae9                luaopen_pdb
 .text          0x00000000613cfb70     0x4640 C:\msys64\tmp\ccjhsTYI.o
                0x00000000613d406e                luaopen_lsqlite3
 .text          0x00000000613d41b0     0x7930 C:\msys64\tmp\ccLt5nLD.o
                0x00000000613db9f8                luaopen_lpeg
 .text          0x00000000613dbae0      0xe00 C:\msys64\tmp\ccuoZVRF.o
                0x00000000613dc8aa                luaopen_struct
 .text          0x00000000613dc8e0      0x6d0 C:\msys64\tmp\cctFmZYO.o
                0x00000000613dca02                strbuf_init
                0x00000000613dcab4                strbuf_new
                0x00000000613dcb04                strbuf_set_increment
                0x00000000613dcba5                strbuf_free
                0x00000000613dcbfb                strbuf_free_to_string
                0x00000000613dccff                strbuf_resize
                0x00000000613dcdbd                strbuf_append_string
                0x00000000613dce63                strbuf_append_fmt
                0x00000000613dceee                strbuf_append_fmt_retry
 .text          0x00000000613dcfb0     0x2710 C:\msys64\tmp\ccuduyC5.o
                0x00000000613df674                luaopen_cjson
                0x00000000613df694                luaopen_cjson_safe
 .text          0x00000000613df6c0      0x4d0 C:\msys64\tmp\ccJuBzPw.o
                0x00000000613df848                fpconv_strtod
                0x00000000613dfaa2                fpconv_g_fmt
                0x00000000613dfb7b                fpconv_init
 .text          0x00000000613dfb90     0xc520 C:\msys64\tmp\ccTqPSxT.o
                0x00000000613eada5                main
 .text          0x00000000613ec0b0    0x98af0 C:\msys64\tmp\ccXRde14.o
                0x00000000613ec0b0                sqlite3_compileoption_used
                0x00000000613ec16b                sqlite3_compileoption_get
                0x00000000613ec2f9                sqlite3_status
                0x00000000613ec3aa                sqlite3_db_status
                0x00000000613ef6a5                sqlite3_vfs_find
                0x00000000613ef7d9                sqlite3_vfs_register
                0x00000000613ef888                sqlite3_vfs_unregister
                0x00000000613efb98                sqlite3_mutex_alloc
                0x00000000613efc0f                sqlite3_mutex_free
                0x00000000613efc36                sqlite3_mutex_enter
                0x00000000613efc5d                sqlite3_mutex_try
                0x00000000613efc8f                sqlite3_mutex_leave
                0x00000000613eff81                sqlite3_release_memory
                0x00000000613f0043                sqlite3_memory_alarm
                0x00000000613f0074                sqlite3_soft_heap_limit64
                0x00000000613f0131                sqlite3_soft_heap_limit
                0x00000000613f033b                sqlite3_memory_used
                0x00000000613f0374                sqlite3_memory_highwater
                0x00000000613f05a0                sqlite3_malloc
                0x00000000613f05db                sqlite3_malloc64
                0x00000000613f08d4                sqlite3_msize
                0x00000000613f08f5                sqlite3_free
                0x00000000613f0bf9                sqlite3_realloc
                0x00000000613f0c3c                sqlite3_realloc64
                0x00000000613f330b                sqlite3_vmprintf
                0x00000000613f3387                sqlite3_mprintf
                0x00000000613f33d5                sqlite3_vsnprintf
                0x00000000613f3447                sqlite3_snprintf
                0x00000000613f353d                sqlite3_log
                0x00000000613f35c7                sqlite3_randomness
                0x00000000613f4b17                sqlite3_stricmp
                0x00000000613f4bcc                sqlite3_strnicmp
                0x00000000613f71e1                sqlite3_win32_write_debug
                0x00000000613f729e                sqlite3_win32_sleep
                0x00000000613f72f6                sqlite3_win32_is_nt
                0x00000000613f7722                sqlite3_win32_mbcs_to_utf8
                0x00000000613f776f                sqlite3_win32_utf8_to_mbcs
                0x00000000613f77bc                sqlite3_win32_set_directory
                0x00000000613fb6c8                sqlite3_os_init
                0x00000000613fb724                sqlite3_os_end
                0x0000000061408fbd                sqlite3_enable_shared_cache
                0x00000000614175d8                sqlite3_backup_init
                0x0000000061417a4d                sqlite3_backup_step
                0x000000006141814f                sqlite3_backup_finish
                0x00000000614182c7                sqlite3_backup_remaining
                0x00000000614182d8                sqlite3_backup_pagecount
                0x000000006141a3a9                sqlite3_sql
                0x00000000614202f1                sqlite3_expired
                0x00000000614203a5                sqlite3_finalize
                0x0000000061420436                sqlite3_reset
                0x00000000614204b9                sqlite3_clear_bindings
                0x000000006142059f                sqlite3_value_blob
                0x0000000061420611                sqlite3_value_bytes
                0x0000000061420631                sqlite3_value_bytes16
                0x0000000061420651                sqlite3_value_double
                0x000000006142067a                sqlite3_value_int
                0x0000000061420695                sqlite3_value_int64
                0x00000000614206b0                sqlite3_value_text
                0x00000000614206d0                sqlite3_value_text16
                0x00000000614206f0                sqlite3_value_text16be
                0x0000000061420710                sqlite3_value_text16le
                0x0000000061420730                sqlite3_value_type
                0x00000000614207f6                sqlite3_result_blob
                0x000000006142083a                sqlite3_result_blob64
                0x00000000614208a1                sqlite3_result_double
                0x00000000614208d1                sqlite3_result_error
                0x0000000061420927                sqlite3_result_error16
                0x000000006142097d                sqlite3_result_int
                0x00000000614209a8                sqlite3_result_int64
                0x00000000614209d2                sqlite3_result_null
                0x00000000614209f4                sqlite3_result_text
                0x0000000061420a38                sqlite3_result_text64
                0x0000000061420aae                sqlite3_result_text16
                0x0000000061420af2                sqlite3_result_text16be
                0x0000000061420b36                sqlite3_result_text16le
                0x0000000061420b7a                sqlite3_result_value
                0x0000000061420ba4                sqlite3_result_zeroblob
                0x0000000061420bcc                sqlite3_result_error_code
                0x0000000061420c3a                sqlite3_result_error_toobig
                0x0000000061420c8b                sqlite3_result_error_nomem
                0x00000000614210b3                sqlite3_step
                0x0000000061421253                sqlite3_user_data
                0x0000000061421269                sqlite3_context_db_handle
                0x00000000614213ef                sqlite3_aggregate_context
                0x0000000061421438                sqlite3_get_auxdata
                0x00000000614214ab                sqlite3_set_auxdata
                0x00000000614215fb                sqlite3_aggregate_count
                0x0000000061421610                sqlite3_column_count
                0x0000000061421646                sqlite3_data_count
                0x00000000614217b9                sqlite3_column_blob
                0x00000000614217f5                sqlite3_column_bytes
                0x000000006142182f                sqlite3_column_bytes16
                0x0000000061421869                sqlite3_column_double
                0x00000000614218ab                sqlite3_column_int
                0x00000000614218e5                sqlite3_column_int64
                0x0000000061421921                sqlite3_column_text
                0x000000006142195d                sqlite3_column_value
                0x00000000614219cf                sqlite3_column_text16
                0x0000000061421a0b                sqlite3_column_type
                0x0000000061421b0e                sqlite3_column_name
                0x0000000061421b3e                sqlite3_column_name16
                0x0000000061421b6e                sqlite3_column_decltype
                0x0000000061421b9e                sqlite3_column_decltype16
                0x0000000061421e9b                sqlite3_bind_blob
                0x0000000061421ee5                sqlite3_bind_blob64
                0x0000000061421f54                sqlite3_bind_double
                0x0000000061421fd8                sqlite3_bind_int
                0x0000000061422008                sqlite3_bind_int64
                0x0000000061422086                sqlite3_bind_null
                0x00000000614220d1                sqlite3_bind_text
                0x000000006142211b                sqlite3_bind_text64
                0x000000006142219a                sqlite3_bind_text16
                0x00000000614221e4                sqlite3_bind_value
                0x000000006142232c                sqlite3_bind_zeroblob
                0x00000000614223a8                sqlite3_bind_parameter_count
                0x00000000614223d9                sqlite3_bind_parameter_name
                0x00000000614224e2                sqlite3_bind_parameter_index
                0x00000000614225ce                sqlite3_transfer_bindings
                0x0000000061422688                sqlite3_db_handle
                0x00000000614226a7                sqlite3_stmt_readonly
                0x00000000614226d0                sqlite3_stmt_busy
                0x0000000061422719                sqlite3_next_stmt
                0x0000000061422774                sqlite3_stmt_status
                0x0000000061423059                sqlite3_value_numeric_type
                0x000000006142cc0c                sqlite3_blob_open
                0x000000006142d34d                sqlite3_blob_close
                0x000000006142d519                sqlite3_blob_read
                0x000000006142d55f                sqlite3_blob_write
                0x000000006142d5a5                sqlite3_blob_bytes
                0x000000006142d5e1                sqlite3_blob_reopen
                0x000000006143f705                sqlite3_set_authorizer
                0x000000006144ba73                sqlite3_strglob
                0x000000006145453a                sqlite3_exec
                0x0000000061454e6b                sqlite3_load_extension
                0x0000000061454f4e                sqlite3_enable_load_extension
                0x0000000061454fba                sqlite3_auto_extension
                0x00000000614550c4                sqlite3_cancel_auto_extension
                0x0000000061455181                sqlite3_reset_auto_extension
                0x000000006145b946                sqlite3_prepare
                0x000000006145b9a1                sqlite3_prepare_v2
                0x000000006145bb99                sqlite3_prepare16
                0x000000006145bbeb                sqlite3_prepare16_v2
                0x0000000061466fdc                sqlite3_get_table
                0x00000000614671fc                sqlite3_free_table
                0x000000006146bbf2                sqlite3_create_module
                0x000000006146bc37                sqlite3_create_module_v2
                0x000000006146ce0e                sqlite3_declare_vtab
                0x000000006146d8e3                sqlite3_vtab_on_conflict
                0x000000006146d90b                sqlite3_vtab_config
                0x000000006147ffae                sqlite3_complete
                0x0000000061480355                sqlite3_complete16
                0x0000000061480405                sqlite3_libversion
                0x0000000061480412                sqlite3_sourceid
                0x000000006148041f                sqlite3_libversion_number
                0x000000006148042a                sqlite3_threadsafe
                0x0000000061480435                sqlite3_initialize
                0x0000000061480637                sqlite3_shutdown
                0x00000000614806c9                sqlite3_config
                0x0000000061480e7b                sqlite3_db_mutex
                0x0000000061480e8d                sqlite3_db_release_memory
                0x0000000061480f2f                sqlite3_db_config
                0x0000000061481203                sqlite3_last_insert_rowid
                0x0000000061481215                sqlite3_changes
                0x0000000061481226                sqlite3_total_changes
                0x0000000061481529                sqlite3_close
                0x0000000061481549                sqlite3_close_v2
                0x0000000061481c25                sqlite3_busy_handler
                0x0000000061481c9e                sqlite3_progress_handler
                0x0000000061481d3b                sqlite3_busy_timeout
                0x0000000061481d92                sqlite3_interrupt
                0x000000006148208f                sqlite3_create_function
                0x00000000614820f7                sqlite3_create_function_v2
                0x0000000061482220                sqlite3_create_function16
                0x00000000614822ef                sqlite3_overload_function
                0x00000000614823d3                sqlite3_trace
                0x000000006148243e                sqlite3_profile
                0x00000000614824a9                sqlite3_commit_hook
                0x0000000061482514                sqlite3_update_hook
                0x000000006148257f                sqlite3_rollback_hook
                0x0000000061482630                sqlite3_wal_autocheckpoint
                0x000000006148267e                sqlite3_wal_hook
                0x00000000614826e9                sqlite3_wal_checkpoint_v2
                0x000000006148280d                sqlite3_wal_checkpoint
                0x0000000061482929                sqlite3_errmsg
                0x00000000614829e1                sqlite3_errmsg16
                0x0000000061482abf                sqlite3_errcode
                0x0000000061482b1b                sqlite3_extended_errcode
                0x0000000061482b6e                sqlite3_errstr
                0x0000000061482d77                sqlite3_limit
                0x0000000061483c29                sqlite3_open
                0x0000000061483c5b                sqlite3_open_v2
                0x0000000061483c96                sqlite3_open16
                0x0000000061483db4                sqlite3_create_collation
                0x0000000061483e01                sqlite3_create_collation_v2
                0x0000000061483e88                sqlite3_create_collation16
                0x0000000061483f4d                sqlite3_collation_needed
                0x0000000061483fb9                sqlite3_collation_needed16
                0x0000000061484025                sqlite3_global_recover
                0x0000000061484030                sqlite3_get_autocommit
                0x00000000614840ea                sqlite3_thread_cleanup
                0x00000000614840f1                sqlite3_table_column_metadata
                0x000000006148444d                sqlite3_sleep
                0x00000000614844ac                sqlite3_extended_result_codes
                0x00000000614844ff                sqlite3_file_control
                0x00000000614845e6                sqlite3_test_control
                0x0000000061484934                sqlite3_uri_parameter
                0x00000000614849c6                sqlite3_uri_boolean
                0x0000000061484a22                sqlite3_uri_int64
                0x0000000061484b13                sqlite3_db_filename
                0x0000000061484b57                sqlite3_db_readonly
 .text          0x0000000061484ba0      0x530 C:\msys64\tmp\ccpSIAqr.o
                0x0000000061484ba0                auxiliar_open
                0x0000000061484baf                auxiliar_newclass
                0x0000000061484cad                auxiliar_tostring
                0x0000000061484dbe                auxiliar_add2group
                0x0000000061484e28                auxiliar_checkboolean
                0x0000000061484e80                auxiliar_checkclass
                0x0000000061484eee                auxiliar_checkgroup
                0x0000000061484f5c                auxiliar_setclass
                0x0000000061484fa4                auxiliar_getgroupudata
                0x0000000061485038                auxiliar_getclassudata
                0x0000000061485067                auxiliar_typeerror
 .text          0x00000000614850d0      0xbe0 C:\msys64\tmp\ccZkAuiV.o
                0x00000000614850d0                buffer_open
                0x00000000614850df                buffer_init
                0x000000006148515b                buffer_meth_getstats
                0x0000000061485208                buffer_meth_setstats
                0x000000006148530d                buffer_meth_send
                0x000000006148550e                buffer_meth_receive
                0x000000006148582e                buffer_isempty
 .text          0x0000000061485cb0      0x370 C:\msys64\tmp\ccJabTGs.o
                0x0000000061485fb0                except_open
 .text          0x0000000061486020     0x1590 C:\msys64\tmp\ccQHA7kH.o
                0x0000000061486020                inet_open
                0x000000006148647b                inet_optfamily
                0x00000000614864c4                inet_optsocktype
                0x000000006148695c                inet_meth_getpeername
                0x0000000061486b2c                inet_meth_getsockname
                0x0000000061486e86                inet_trycreate
                0x0000000061486f0d                inet_trydisconnect
                0x0000000061486fe9                inet_tryconnect
                0x000000006148718a                inet_tryaccept
                0x0000000061487204                inet_trybind
                0x00000000614873a7                inet_aton
                0x00000000614874ca                inet_pton
 .text          0x00000000614875b0       0x90 C:\msys64\tmp\ccDKFcP3.o
                0x00000000614875b0                io_init
                0x00000000614875f6                io_strerror
 .text          0x0000000061487640      0x160 C:\msys64\tmp\ccRApjM5.o
                0x0000000061487736                luaopen_socket_core
 .text          0x00000000614877a0     0x1eb0 C:\msys64\tmp\cc5MSZGd.o
                0x00000000614877a0                luaopen_mime_core
 .text          0x0000000061489650     0x1060 C:\msys64\tmp\ccxqqLTc.o
                0x0000000061489650                opt_meth_setoption
                0x00000000614896fa                opt_meth_getoption
                0x00000000614897a4                opt_set_reuseaddr
                0x00000000614897d6                opt_get_reuseaddr
                0x0000000061489808                opt_set_reuseport
                0x000000006148983a                opt_get_reuseport
                0x000000006148986c                opt_set_tcp_nodelay
                0x000000006148989e                opt_get_tcp_nodelay
                0x00000000614898d0                opt_set_keepalive
                0x0000000061489902                opt_get_keepalive
                0x0000000061489934                opt_set_dontroute
                0x0000000061489966                opt_get_dontroute
                0x0000000061489998                opt_set_broadcast
                0x00000000614899ca                opt_get_broadcast
                0x00000000614899fc                opt_set_ip6_unicast_hops
                0x0000000061489a2e                opt_get_ip6_unicast_hops
                0x0000000061489a60                opt_set_ip6_multicast_hops
                0x0000000061489a92                opt_get_ip6_multicast_hops
                0x0000000061489ac4                opt_set_ip_multicast_loop
                0x0000000061489af6                opt_get_ip_multicast_loop
                0x0000000061489b28                opt_set_ip6_multicast_loop
                0x0000000061489b5a                opt_get_ip6_multicast_loop
                0x0000000061489b8c                opt_set_linger
                0x0000000061489cb4                opt_get_linger
                0x0000000061489d75                opt_set_ip_multicast_ttl
                0x0000000061489da7                opt_set_ip_multicast_if
                0x0000000061489e53                opt_get_ip_multicast_if
                0x0000000061489ee1                opt_set_ip_add_membership
                0x0000000061489f13                opt_set_ip_drop_membersip
                0x0000000061489f45                opt_set_ip6_add_membership
                0x0000000061489f77                opt_set_ip6_drop_membersip
                0x0000000061489fa9                opt_get_ip6_v6only
                0x0000000061489fdb                opt_set_ip6_v6only
                0x000000006148a4d0                opt_get_error
 .text          0x000000006148a6b0      0x9d0 C:\msys64\tmp\ccenaSVZ.o
                0x000000006148a6b0                select_open
 .text          0x000000006148b080      0xe90 C:\msys64\tmp\ccSZ239v.o
                0x000000006148b080                tcp_open
 .text          0x000000006148bf10      0x5b0 C:\msys64\tmp\ccvj8G4H.o
                0x000000006148bf10                timeout_init
                0x000000006148bf40                timeout_get
                0x000000006148c07a                timeout_getstart
                0x000000006148c08d                timeout_getretry
                0x000000006148c200                timeout_markstart
                0x000000006148c228                timeout_gettime
                0x000000006148c2c8                timeout_open
                0x000000006148c2f5                timeout_meth_settimeout
                0x000000006148c3b5                timeout_meth_gettimeout
 .text          0x000000006148c4c0      0xfd0 C:\msys64\tmp\ccldb7oK.o
                0x000000006148c4c0                udp_open
 .text          0x000000006148d490     0x1360 C:\msys64\tmp\cc1vz69F.o
                0x000000006148d490                socket_open
                0x000000006148d51b                socket_close
                0x000000006148d537                socket_waitfd
                0x000000006148d89a                socket_select
                0x000000006148d96e                socket_destroy
                0x000000006148d9b5                socket_shutdown
                0x000000006148d9f3                socket_create
                0x000000006148da4e                socket_connect
                0x000000006148db72                socket_bind
                0x000000006148dbd5                socket_listen
                0x000000006148dc2c                socket_accept
                0x000000006148dce1                socket_send
                0x000000006148dd9c                socket_sendto
                0x000000006148de6c                socket_recv
                0x000000006148df5a                socket_recvfrom
                0x000000006148e058                socket_setblocking
                0x000000006148e091                socket_setnonblocking
                0x000000006148e0ca                socket_gethostbyaddr
                0x000000006148e121                socket_gethostbyname
                0x000000006148e16a                socket_hoststrerror
                0x000000006148e1a5                socket_strerror
                0x000000006148e23c                socket_ioerror
                0x000000006148e722                socket_gaistrerror
 .text          0x000000006148e7f0      0x260 C:\msys64\tmp\ccXkOUMF.o
                0x000000006148e7f0                _pbcM_malloc
                0x000000006148e817                _pbcM_free
                0x000000006148e855                _pbcM_realloc
                0x000000006148e887                _pbcM_memory
                0x000000006148e8aa                _pbcH_new
                0x000000006148e91f                _pbcH_delete
                0x000000006148e97a                _pbcH_alloc
 .text          0x000000006148ea50      0x4b0 C:\msys64\tmp\cc7I1SCN.o
                0x000000006148ea50                _pbcA_open
                0x000000006148ea91                _pbcA_open_heap
                0x000000006148ead6                _pbcA_close
                0x000000006148eb3c                _pbcA_push
                0x000000006148ed03                _pbcA_index
                0x000000006148ed4c                _pbcA_index_p
                0x000000006148ed7e                pbc_array_size
                0x000000006148ed9e                pbc_array_integer
                0x000000006148eddf                pbc_array_real
                0x000000006148ee0e                pbc_array_slice
                0x000000006148ee58                pbc_array_push_integer
                0x000000006148ee8e                pbc_array_push_slice
                0x000000006148eec8                pbc_array_push_real
 .text          0x000000006148ef00      0xb40 C:\msys64\tmp\ccaJ2lTQ.o
                0x000000006148f3ed                _pbcB_register_fields
                0x000000006148f9fe                _pbcB_init
 .text          0x000000006148fa40      0xb30 C:\msys64\tmp\ccTYAR93.o
                0x000000006148ff5d                _pbcC_open_packed
                0x00000000614902c9                _pbcC_open
                0x000000006149050c                _pbcC_close
 .text          0x0000000061490570      0xfd0 C:\msys64\tmp\cc2LD5lo.o
                0x00000000614911ed                pbc_decode
 .text          0x0000000061491540     0x1510 C:\msys64\tmp\cctiLsmQ.o
                0x00000000614915ca                _pbcM_si_new
                0x00000000614917b6                _pbcM_si_delete
                0x00000000614917d2                _pbcM_si_query
                0x0000000061491ab3                _pbcM_ip_new
                0x0000000061491c63                _pbcM_ip_delete
                0x0000000061491dea                _pbcM_ip_combine
                0x0000000061491ea2                _pbcM_ip_query
                0x0000000061491fa1                _pbcM_sp_new
                0x0000000061492083                _pbcM_sp_delete
                0x0000000061492565                _pbcM_sp_insert
                0x00000000614925a9                _pbcM_sp_query_insert
                0x00000000614925e1                _pbcM_sp_query
                0x00000000614926b8                _pbcM_sp_foreach_key
                0x000000006149273a                _pbcM_sp_foreach
                0x00000000614927a9                _pbcM_sp_foreach_ud
                0x0000000061492992                _pbcM_sp_next
 .text          0x0000000061492a50     0x2d50 C:\msys64\tmp\cckEQkSt.o
                0x0000000061492d69                pbc_pattern_set_default
                0x0000000061492fcc                _pbcP_unpack_packed
                0x00000000614938cc                pbc_pattern_close_arrays
                0x0000000061494859                pbc_pattern_pack
                0x00000000614949b4                pbc_pattern_unpack
                0x00000000614950bb                _pbcP_new
                0x000000006149529b                _pattern_new
                0x00000000614954e7                pbc_pattern_new
                0x000000006149577f                pbc_pattern_delete
 .text          0x00000000614957a0      0x8e0 C:\msys64\tmp\ccxxh8wg.o
                0x00000000614957a0                pbc_error
                0x00000000614957d1                _pbcP_get_message
                0x00000000614957fb                pbc_new
                0x000000006149595b                pbc_delete
                0x00000000614959ea                _pbcP_push_enum
                0x0000000061495aba                _pbcP_push_message
                0x0000000061495c7f                _pbcP_init_message
                0x0000000061495ddd                _pbcP_message_default
                0x0000000061495e52                _pbcP_type
                0x0000000061495f89                pbc_type
                0x0000000061495fff                pbc_enum_id
 .text          0x0000000061496080      0xf80 C:\msys64\tmp\ccoLUxS8.o
                0x0000000061496e60                pbc_register
 .text          0x0000000061497000     0x11f0 C:\msys64\tmp\cc5FaVq8.o
                0x0000000061497055                pbc_rmessage_next
                0x0000000061497ce2                pbc_rmessage_new
                0x0000000061497dba                pbc_rmessage_delete
                0x0000000061497de4                pbc_rmessage_string
                0x0000000061497eeb                pbc_rmessage_integer
                0x0000000061497fd7                pbc_rmessage_real
                0x0000000061498075                pbc_rmessage_message
                0x0000000061498176                pbc_rmessage_size
 .text          0x00000000614981f0      0x220 C:\msys64\tmp\ccg4nTgg.o
                0x00000000614981f0                _pbcS_new
                0x0000000061498237                _pbcS_delete
                0x0000000061498270                _pbcS_build
 .text          0x0000000061498410      0x400 C:\msys64\tmp\ccmZReTk.o
                0x0000000061498410                _pbcV_encode32
                0x0000000061498505                _pbcV_encode
                0x0000000061498585                _pbcV_decode
                0x00000000614986f5                _pbcV_zigzag32
                0x0000000061498729                _pbcV_zigzag
                0x0000000061498766                _pbcV_dezigzag64
                0x00000000614987c1                _pbcV_dezigzag32
 .text          0x0000000061498810     0x1870 C:\msys64\tmp\ccA4uJAu.o
                0x00000000614989d4                pbc_wmessage_new
                0x0000000061498a2a                pbc_wmessage_delete
                0x0000000061498dd1                pbc_wmessage_integer
                0x000000006149913d                pbc_wmessage_real
                0x00000000614992e1                pbc_wmessage_string
                0x0000000061499744                pbc_wmessage_message
                0x0000000061499eed                pbc_wmessage_buffer
 .text          0x000000006149a080     0x30a0 C:\msys64\tmp\ccS3faXP.o
                0x000000006149a124                readInt32
                0x000000006149a197                readUint32
                0x000000006149a20a                readUint16
                0x000000006149a257                readUint8
                0x000000006149a294                readBuff
                0x000000006149a389                freeBuff
                0x000000006149a3ce                readBuffInt32
                0x000000006149a461                readBuffInt64
                0x000000006149a4f9                readBuffUint32
                0x000000006149a58c                readBuffFloat
                0x000000006149a5f5                readBuffUint16
                0x000000006149a689                readBuffUint8
                0x000000006149a6e3                readBuffString
                0x000000006149a76a                copyString
                0x000000006149a7f7                readString
                0x000000006149a91c                parseHead
                0x000000006149ab32                protodb_open
                0x000000006149ac0a                freeIndex
                0x000000006149af67                protodb_close
                0x000000006149afff                protodb_getEnv
                0x000000006149b011                loadTableHead
                0x000000006149b175                loadTableProto
                0x000000006149b2bd                readSubIdx
                0x000000006149b8c6                loadOneIndex
                0x000000006149bbfc                loadRecordIndex
                0x000000006149c3e4                checkTableLoad
                0x000000006149c68d                protodb_getByIntId
                0x000000006149c6f8                protodb_getById
                0x000000006149c763                protodb_getLastError
                0x000000006149c785                protodb_getAll
                0x000000006149c88c                searchCascade
                0x000000006149cb61                protodb_getAllByIds
                0x000000006149cdbc                protodb_getTableHeadItem
                0x000000006149ce5b                protodb_getByIds
                0x000000006149d088                protodb_getLen
 .text          0x000000006149d120      0x380 C:\msys64\tmp\ccoUgfsm.o
                0x000000006149d120                mc_malloc
                0x000000006149d1f6                mc_calloc
                0x000000006149d230                mc_realloc
                0x000000006149d375                mc_free
                0x000000006149d3d9                mc_dump
                0x000000006149d3e0                mc_count
                0x000000006149d411                mc_check
 .text          0x000000006149d4a0      0xf60 C:\msys64\tmp\ccUcMoTZ.o
                0x000000006149d4a0                hashmap_new
                0x000000006149d54c                crc32
                0x000000006149d5b5                hashmap_hash_int
                0x000000006149d653                ihashmap_hash_int
                0x000000006149d6d9                hashmap_hash
                0x000000006149d7eb                ihashmap_hash
                0x000000006149d8ec                hashmap_rehash
                0x000000006149da8f                hashmap_put
                0x000000006149dbf7                ihashmap_put
                0x000000006149dd0c                hashmap_get
                0x000000006149de3d                ihashmap_get
                0x000000006149df60                hashmap_iterate
                0x000000006149e02c                validateData
                0x000000006149e0a0                hashmap_remove
                0x000000006149e21f                ihashmap_remove
                0x000000006149e38f                hashmap_free
                0x000000006149e3c6                hashmap_length
 .text          0x000000006149e400     0x1470 C:\msys64\tmp\ccidGW4M.o
                0x000000006149e6a9                __fun1
                0x000000006149e6d0                AES_init_ctx_iv
                0x000000006149e718                AES_ctx_set_iv
                0x000000006149f5ab                AES_ECB_encrypt
                0x000000006149f5d2                __fun2
                0x000000006149f64f                AES_CBC_encrypt_buffer
                0x000000006149f6da                AES_CBC_decrypt_buffer
                0x000000006149f766                AES_CTR_xcrypt_buffer
 .text          0x000000006149f870       0x90 C:\msys64\tmp\ccYk3DtG.o
                0x000000006149f870                updateCRC32
                0x000000006149f8a4                crc32buf
 .text          0x000000006149f900      0xf00 C:\msys64\tmp\ccQIpGaD.o
                0x00000000614a06f2                md5
 .text          0x00000000614a0800        0x8 C:/msys64/mingw64/bin/../lib/gcc/x86_64-w64-mingw32/8.2.1/../../../../x86_64-w64-mingw32/lib/../lib/libws2_32.a(dmgss00195.o)
                0x00000000614a0800                socket
 .text          0x00000000614a0808        0x8 C:/msys64/mingw64/bin/../lib/gcc/x86_64-w64-mingw32/8.2.1/../../../../x86_64-w64-mingw32/lib/../lib/libws2_32.a(dmgss00194.o)
                0x00000000614a0808                shutdown
 .text          0x00000000614a0810        0x8 C:/msys64/mingw64/bin/../lib/gcc/x86_64-w64-mingw32/8.2.1/../../../../x86_64-w64-mingw32/lib/../lib/libws2_32.a(dmgss00193.o)
                0x00000000614a0810                setsockopt
 .text          0x00000000614a0818        0x8 C:/msys64/mingw64/bin/../lib/gcc/x86_64-w64-mingw32/8.2.1/../../../../x86_64-w64-mingw32/lib/../lib/libws2_32.a(dmgss00192.o)
                0x00000000614a0818                sendto
 .text          0x00000000614a0820        0x8 C:/msys64/mingw64/bin/../lib/gcc/x86_64-w64-mingw32/8.2.1/../../../../x86_64-w64-mingw32/lib/../lib/libws2_32.a(dmgss00191.o)
                0x00000000614a0820                send
 .text          0x00000000614a0828        0x8 C:/msys64/mingw64/bin/../lib/gcc/x86_64-w64-mingw32/8.2.1/../../../../x86_64-w64-mingw32/lib/../lib/libws2_32.a(dmgss00190.o)
                0x00000000614a0828                select
 .text          0x00000000614a0830        0x8 C:/msys64/mingw64/bin/../lib/gcc/x86_64-w64-mingw32/8.2.1/../../../../x86_64-w64-mingw32/lib/../lib/libws2_32.a(dmgss00189.o)
                0x00000000614a0830                recvfrom
 .text          0x00000000614a0838        0x8 C:/msys64/mingw64/bin/../lib/gcc/x86_64-w64-mingw32/8.2.1/../../../../x86_64-w64-mingw32/lib/../lib/libws2_32.a(dmgss00188.o)
                0x00000000614a0838                recv
 .text          0x00000000614a0840        0x8 C:/msys64/mingw64/bin/../lib/gcc/x86_64-w64-mingw32/8.2.1/../../../../x86_64-w64-mingw32/lib/../lib/libws2_32.a(dmgss00185.o)
                0x00000000614a0840                listen
 .text          0x00000000614a0848        0x8 C:/msys64/mingw64/bin/../lib/gcc/x86_64-w64-mingw32/8.2.1/../../../../x86_64-w64-mingw32/lib/../lib/libws2_32.a(dmgss00184.o)
                0x00000000614a0848                ioctlsocket
 .text          0x00000000614a0850        0x8 C:/msys64/mingw64/bin/../lib/gcc/x86_64-w64-mingw32/8.2.1/../../../../x86_64-w64-mingw32/lib/../lib/libws2_32.a(dmgss00181.o)
                0x00000000614a0850                inet_ntoa
 .text          0x00000000614a0858        0x8 C:/msys64/mingw64/bin/../lib/gcc/x86_64-w64-mingw32/8.2.1/../../../../x86_64-w64-mingw32/lib/../lib/libws2_32.a(dmgss00178.o)
                0x00000000614a0858                htonl
 .text          0x00000000614a0860        0x8 C:/msys64/mingw64/bin/../lib/gcc/x86_64-w64-mingw32/8.2.1/../../../../x86_64-w64-mingw32/lib/../lib/libws2_32.a(dmgss00177.o)
                0x00000000614a0860                getsockopt
 .text          0x00000000614a0868        0x8 C:/msys64/mingw64/bin/../lib/gcc/x86_64-w64-mingw32/8.2.1/../../../../x86_64-w64-mingw32/lib/../lib/libws2_32.a(dmgss00176.o)
                0x00000000614a0868                getsockname
 .text          0x00000000614a0870        0x8 C:/msys64/mingw64/bin/../lib/gcc/x86_64-w64-mingw32/8.2.1/../../../../x86_64-w64-mingw32/lib/../lib/libws2_32.a(dmgss00171.o)
                0x00000000614a0870                getpeername
 .text          0x00000000614a0878        0x8 C:/msys64/mingw64/bin/../lib/gcc/x86_64-w64-mingw32/8.2.1/../../../../x86_64-w64-mingw32/lib/../lib/libws2_32.a(dmgss00170.o)
                0x00000000614a0878                getnameinfo
 .text          0x00000000614a0880        0x8 C:/msys64/mingw64/bin/../lib/gcc/x86_64-w64-mingw32/8.2.1/../../../../x86_64-w64-mingw32/lib/../lib/libws2_32.a(dmgss00169.o)
                0x00000000614a0880                gethostname
 .text          0x00000000614a0888        0x8 C:/msys64/mingw64/bin/../lib/gcc/x86_64-w64-mingw32/8.2.1/../../../../x86_64-w64-mingw32/lib/../lib/libws2_32.a(dmgss00168.o)
                0x00000000614a0888                gethostbyname
 .text          0x00000000614a0890        0x8 C:/msys64/mingw64/bin/../lib/gcc/x86_64-w64-mingw32/8.2.1/../../../../x86_64-w64-mingw32/lib/../lib/libws2_32.a(dmgss00167.o)
                0x00000000614a0890                gethostbyaddr
 .text          0x00000000614a0898        0x8 C:/msys64/mingw64/bin/../lib/gcc/x86_64-w64-mingw32/8.2.1/../../../../x86_64-w64-mingw32/lib/../lib/libws2_32.a(dmgss00166.o)
                0x00000000614a0898                getaddrinfo
 .text          0x00000000614a08a0        0x8 C:/msys64/mingw64/bin/../lib/gcc/x86_64-w64-mingw32/8.2.1/../../../../x86_64-w64-mingw32/lib/../lib/libws2_32.a(dmgss00165.o)
                0x00000000614a08a0                freeaddrinfo
 .text          0x00000000614a08a8        0x8 C:/msys64/mingw64/bin/../lib/gcc/x86_64-w64-mingw32/8.2.1/../../../../x86_64-w64-mingw32/lib/../lib/libws2_32.a(dmgss00164.o)
                0x00000000614a08a8                connect
 .text          0x00000000614a08b0        0x8 C:/msys64/mingw64/bin/../lib/gcc/x86_64-w64-mingw32/8.2.1/../../../../x86_64-w64-mingw32/lib/../lib/libws2_32.a(dmgss00163.o)
                0x00000000614a08b0                closesocket
 .text          0x00000000614a08b8        0x8 C:/msys64/mingw64/bin/../lib/gcc/x86_64-w64-mingw32/8.2.1/../../../../x86_64-w64-mingw32/lib/../lib/libws2_32.a(dmgss00162.o)
                0x00000000614a08b8                bind
 .text          0x00000000614a08c0        0x8 C:/msys64/mingw64/bin/../lib/gcc/x86_64-w64-mingw32/8.2.1/../../../../x86_64-w64-mingw32/lib/../lib/libws2_32.a(dmgss00161.o)
                0x00000000614a08c0                accept
 .text          0x00000000614a08c8        0x8 C:/msys64/mingw64/bin/../lib/gcc/x86_64-w64-mingw32/8.2.1/../../../../x86_64-w64-mingw32/lib/../lib/libws2_32.a(dmgss00160.o)
                0x00000000614a08c8                __WSAFDIsSet
 .text          0x00000000614a08d0        0x8 C:/msys64/mingw64/bin/../lib/gcc/x86_64-w64-mingw32/8.2.1/../../../../x86_64-w64-mingw32/lib/../lib/libws2_32.a(dmgss00088.o)
                0x00000000614a08d0                WSAStartup
 .text          0x00000000614a08d8        0x8 C:/msys64/mingw64/bin/../lib/gcc/x86_64-w64-mingw32/8.2.1/../../../../x86_64-w64-mingw32/lib/../lib/libws2_32.a(dmgss00047.o)
                0x00000000614a08d8                WSAGetLastError
 .text          0x00000000614a08e0        0x8 C:/msys64/mingw64/bin/../lib/gcc/x86_64-w64-mingw32/8.2.1/../../../../x86_64-w64-mingw32/lib/../lib/libws2_32.a(dmgss00030.o)
                0x00000000614a08e0                WSACleanup
 *fill*         0x00000000614a08e8        0x8 
 .text          0x00000000614a08f0       0x30 C:/msys64/mingw64/bin/../lib/gcc/x86_64-w64-mingw32/8.2.1/../../../../x86_64-w64-mingw32/lib/../lib/libws2_32.a(lib64_libws2_32_a-gai_strerrorA.o)
                0x00000000614a08f0                gai_strerrorA
 .text          0x00000000614a0920       0x50 C:/msys64/mingw64/bin/../lib/gcc/x86_64-w64-mingw32/8.2.1/../../../../x86_64-w64-mingw32/lib/../lib/libws2_32.a(lib64_libws2_32_a-gai_strerrorW.o)
                0x00000000614a0920                gai_strerrorW
 .text          0x00000000614a0970        0x0 C:/msys64/mingw64/bin/../lib/gcc/x86_64-w64-mingw32/8.2.1/../../../../x86_64-w64-mingw32/lib/../lib/libws2_32.a(dmgsh.o)
 .text          0x00000000614a0970        0x0 C:/msys64/mingw64/bin/../lib/gcc/x86_64-w64-mingw32/8.2.1/../../../../x86_64-w64-mingw32/lib/../lib/libws2_32.a(dmgst.o)
 .text          0x00000000614a0970     0x40ab window/x86_64/libluajit.a(lj_vm.o)
                0x00000000614a0970                lj_vm_asm_begin
                0x00000000614a0970                lj_BC_ISLT
                0x00000000614a09cb                lj_BC_ISGE
                0x00000000614a0a26                lj_BC_ISLE
                0x00000000614a0a81                lj_BC_ISGT
                0x00000000614a0adc                lj_BC_ISEQV
                0x00000000614a0b71                lj_BC_ISNEV
                0x00000000614a0c09                lj_BC_ISEQS
                0x00000000614a0c58                lj_BC_ISNES
                0x00000000614a0ca7                lj_BC_ISEQN
                0x00000000614a0cf3                lj_BC_ISNEN
                0x00000000614a0d3f                lj_BC_ISEQP
                0x00000000614a0d7a                lj_BC_ISNEP
                0x00000000614a0db4                lj_BC_ISTC
                0x00000000614a0deb                lj_BC_ISFC
                0x00000000614a0e22                lj_BC_IST
                0x00000000614a0e52                lj_BC_ISF
                0x00000000614a0e82                lj_BC_ISTYPE
                0x00000000614a0ea4                lj_BC_ISNUM
                0x00000000614a0ec8                lj_BC_MOV
                0x00000000614a0ee2                lj_BC_NOT
                0x00000000614a0f13                lj_BC_UNM
                0x00000000614a0f4b                lj_BC_LEN
                0x00000000614a0fa5                lj_BC_ADDVN
                0x00000000614a0fde                lj_BC_SUBVN
                0x00000000614a1017                lj_BC_MULVN
                0x00000000614a1050                lj_BC_DIVVN
                0x00000000614a1089                lj_BC_MODVN
                0x00000000614a10c7                lj_BC_ADDNV
                0x00000000614a1100                lj_BC_SUBNV
                0x00000000614a1139                lj_BC_MULNV
                0x00000000614a1172                lj_BC_DIVNV
                0x00000000614a11ab                lj_BC_MODNV
                0x00000000614a11d2                lj_BC_ADDVV
                0x00000000614a121d                lj_BC_SUBVV
                0x00000000614a1268                lj_BC_MULVV
                0x00000000614a12b3                lj_BC_DIVVV
                0x00000000614a12fe                lj_BC_MODVV
                0x00000000614a1337                lj_BC_POW
                0x00000000614a1391                lj_BC_CAT
                0x00000000614a13e6                lj_BC_KSTR
                0x00000000614a1410                lj_BC_KCDATA
                0x00000000614a143a                lj_BC_KSHORT
                0x00000000614a1458                lj_BC_KNUM
                0x00000000614a1474                lj_BC_KPRI
                0x00000000614a1491                lj_BC_KNIL
                0x00000000614a14c3                lj_BC_UGET
                0x00000000614a14f2                lj_BC_USETV
                0x00000000614a155e                lj_BC_USETS
                0x00000000614a15c5                lj_BC_USETN
                0x00000000614a15f5                lj_BC_USETP
                0x00000000614a1626                lj_BC_UCLO
                0x00000000614a1660                lj_BC_FNEW
                0x00000000614a16b4                lj_BC_TNEW
                0x00000000614a172f                lj_BC_TDUP
                0x00000000614a1798                lj_BC_GGET
                0x00000000614a17b4                lj_BC_GSET
                0x00000000614a17d0                lj_BC_TGETV
                0x00000000614a1874                lj_BC_TGETS
                0x00000000614a1905                lj_BC_TGETB
                0x00000000614a196d                lj_BC_TGETR
                0x00000000614a19ad                lj_BC_TSETV
                0x00000000614a1a6f                lj_BC_TSETS
                0x00000000614a1b6c                lj_BC_TSETB
                0x00000000614a1bf2                lj_BC_TSETM
                0x00000000614a1c95                lj_BC_TSETR
                0x00000000614a1cf3                lj_BC_CALLM
                0x00000000614a1d33                lj_BC_CALL
                0x00000000614a1d6f                lj_BC_CALLMT
                0x00000000614a1d73                lj_BC_CALLT
                0x00000000614a1e32                lj_BC_ITERC
                0x00000000614a1e86                lj_BC_ITERN
                0x00000000614a1f22                lj_BC_VARG
                0x00000000614a1ff5                lj_BC_ISNEXT
                0x00000000614a2066                lj_BC_RETM
                0x00000000614a206a                lj_BC_RET
                0x00000000614a2101                lj_BC_RET0
                0x00000000614a216c                lj_BC_RET1
                0x00000000614a21e5                lj_BC_FORI
                0x00000000614a2257                lj_BC_JFORI
                0x00000000614a22d1                lj_BC_FORL
                0x00000000614a22e4                lj_BC_IFORL
                0x00000000614a232e                lj_BC_JFORL
                0x00000000614a2374                lj_BC_ITERL
                0x00000000614a2387                lj_BC_IITERL
                0x00000000614a23b2                lj_BC_JITERL
                0x00000000614a23d7                lj_BC_LOOP
                0x00000000614a23ea                lj_BC_ILOOP
                0x00000000614a23fc                lj_BC_JLOOP
                0x00000000614a247d                lj_BC_JMP
                0x00000000614a2497                lj_BC_FUNCF
                0x00000000614a24aa                lj_BC_IFUNCF
                0x00000000614a24ed                lj_BC_JFUNCF
                0x00000000614a2527                lj_BC_FUNCV
                0x00000000614a2527                lj_BC_IFUNCV
                0x00000000614a25ad                lj_BC_JFUNCV
                0x00000000614a25ae                lj_BC_FUNCC
                0x00000000614a2619                lj_BC_FUNCCW
                0x00000000614a2688                lj_vm_returnp
                0x00000000614a26b2                lj_vm_returnc
                0x00000000614a26cc                lj_vm_return
                0x00000000614a271f                lj_vm_leave_cp
                0x00000000614a272a                lj_vm_leave_unw
                0x00000000614a2771                lj_vm_unwind_yield
                0x00000000614a2775                lj_vm_unwind_c
                0x00000000614a277a                lj_vm_unwind_c_eh
                0x00000000614a278f                lj_vm_unwind_ff
                0x00000000614a278f                lj_vm_unwind_rethrow
                0x00000000614a2796                lj_vm_unwind_ff_eh
                0x00000000614a27de                lj_vm_growstack_c
                0x00000000614a27e5                lj_vm_growstack_v
                0x00000000614a27eb                lj_vm_growstack_f
                0x00000000614a2840                lj_vm_resume
                0x00000000614a28ca                lj_vm_pcall
                0x00000000614a28de                lj_vm_call
                0x00000000614a2940                lj_vm_call_dispatch
                0x00000000614a295d                lj_vm_call_dispatch_f
                0x00000000614a2977                lj_vm_cpcall
                0x00000000614a29d8                lj_cont_dispatch
                0x00000000614a2a29                lj_cont_cat
                0x00000000614a2a5f                lj_vmeta_tgets
                0x00000000614a2a96                lj_vmeta_tgetb
                0x00000000614a2aab                lj_vmeta_tgetv
                0x00000000614a2ae0                lj_cont_ra
                0x00000000614a2b22                lj_vmeta_tgetr
                0x00000000614a2b4b                lj_vmeta_tsets
                0x00000000614a2b82                lj_vmeta_tsetb
                0x00000000614a2b97                lj_vmeta_tsetv
                0x00000000614a2bd7                lj_cont_nop
                0x00000000614a2c1a                lj_vmeta_tsetr
                0x00000000614a2c3f                lj_vmeta_comp
                0x00000000614a2c9c                lj_cont_condt
                0x00000000614a2caf                lj_cont_condf
                0x00000000614a2cbc                lj_vmeta_equal
                0x00000000614a2ce9                lj_vmeta_equal_cd
                0x00000000614a2d0b                lj_vmeta_istype
                0x00000000614a2d2f                lj_vmeta_arith_vn
                0x00000000614a2d2f                lj_vmeta_arith_vno
                0x00000000614a2d35                lj_vmeta_arith_nv
                0x00000000614a2d35                lj_vmeta_arith_nvo
                0x00000000614a2d42                lj_vmeta_unm
                0x00000000614a2d4b                lj_vmeta_arith_vvo
                0x00000000614a2d4b                lj_vmeta_arith_vv
                0x00000000614a2d8b                lj_vmeta_binop
                0x00000000614a2da3                lj_vmeta_len
                0x00000000614a2dc7                lj_vmeta_call_ra
                0x00000000614a2dcc                lj_vmeta_call
                0x00000000614a2e34                lj_vmeta_for
                0x00000000614a2e64                lj_ff_assert
                0x00000000614a2eb1                lj_ff_type
                0x00000000614a2ef8                lj_ff_getmetatable
                0x00000000614a2fb0                lj_ff_setmetatable
                0x00000000614a302d                lj_ff_rawget
                0x00000000614a3079                lj_ff_tonumber
                0x00000000614a30a3                lj_ff_tostring
                0x00000000614a311f                lj_ff_next
                0x00000000614a3183                lj_fff_res2
                0x00000000614a31a4                lj_ff_pairs
                0x00000000614a3206                lj_ff_ipairs_aux
                0x00000000614a329f                lj_fff_res0
                0x00000000614a32a9                lj_ff_ipairs
                0x00000000614a330b                lj_ff_pcall
                0x00000000614a334a                lj_ff_xpcall
                0x00000000614a3380                lj_ff_coroutine_resume
                0x00000000614a3508                lj_ff_coroutine_wrap_aux
                0x00000000614a364d                lj_ff_coroutine_yield
                0x00000000614a367d                lj_ff_math_abs
                0x00000000614a36aa                lj_ff_math_sqrt
                0x00000000614a36c8                lj_fff_resxmm0
                0x00000000614a36d1                lj_fff_res1
                0x00000000614a36d6                lj_fff_res
                0x00000000614a36da                lj_fff_res_
                0x00000000614a3720                lj_ff_math_floor
                0x00000000614a373c                lj_ff_math_ceil
                0x00000000614a375b                lj_ff_math_log
                0x00000000614a3789                lj_ff_math_log10
                0x00000000614a37b7                lj_ff_math_exp
                0x00000000614a37e5                lj_ff_math_sin
                0x00000000614a3813                lj_ff_math_cos
                0x00000000614a3841                lj_ff_math_tan
                0x00000000614a386f                lj_ff_math_asin
                0x00000000614a389d                lj_ff_math_acos
                0x00000000614a38cb                lj_ff_math_atan
                0x00000000614a38f9                lj_ff_math_sinh
                0x00000000614a3927                lj_ff_math_cosh
                0x00000000614a3955                lj_ff_math_tanh
                0x00000000614a3983                lj_ff_math_pow
                0x00000000614a39c8                lj_ff_math_atan2
                0x00000000614a3a0d                lj_ff_math_fmod
                0x00000000614a3a52                lj_ff_math_ldexp
                0x00000000614a3a93                lj_ff_math_frexp
                0x00000000614a3ae1                lj_ff_math_modf
                0x00000000614a3b21                lj_ff_math_min
                0x00000000614a3b65                lj_ff_math_max
                0x00000000614a3ba9                lj_ff_string_byte
                0x00000000614a3be9                lj_ff_string_char
                0x00000000614a3c37                lj_fff_newstr
                0x00000000614a3c53                lj_fff_resstr
                0x00000000614a3c71                lj_ff_string_sub
                0x00000000614a3d1f                lj_fff_emptystr
                0x00000000614a3d24                lj_ff_string_reverse
                0x00000000614a3d93                lj_ff_string_lower
                0x00000000614a3e02                lj_ff_string_upper
                0x00000000614a3e71                lj_ff_bit_tobit
                0x00000000614a3eab                lj_ff_bit_band
                0x00000000614a3f16                lj_ff_bit_bor
                0x00000000614a3f81                lj_ff_bit_bxor
                0x00000000614a3fec                lj_ff_bit_bswap
                0x00000000614a4025                lj_ff_bit_bnot
                0x00000000614a405c                lj_fff_resbit
                0x00000000614a4065                lj_fff_fallback_bit_op
                0x00000000614a406d                lj_ff_bit_lshift
                0x00000000614a40c5                lj_ff_bit_rshift
                0x00000000614a4120                lj_ff_bit_arshift
                0x00000000614a417b                lj_ff_bit_rol
                0x00000000614a41d6                lj_ff_bit_ror
                0x00000000614a4225                lj_fff_fallback_2
                0x00000000614a422c                lj_fff_fallback_1
                0x00000000614a4231                lj_fff_fallback
                0x00000000614a42a7                lj_vm_call_tail
                0x00000000614a42e7                lj_fff_gcstep
                0x00000000614a4324                lj_vm_record
                0x00000000614a433f                lj_vm_rethook
                0x00000000614a434c                lj_vm_inshook
                0x00000000614a4392                lj_cont_hook
                0x00000000614a43a0                lj_vm_hotloop
                0x00000000614a43e2                lj_vm_callhook
                0x00000000614a43e9                lj_vm_hotcall
                0x00000000614a4439                lj_cont_stitch
                0x00000000614a44e0                lj_vm_profhook
                0x00000000614a4501                lj_vm_exit_handler
                0x00000000614a45f3                lj_vm_exit_interp
                0x00000000614a46e6                lj_vm_floor
                0x00000000614a46e6                lj_vm_floor_sse
                0x00000000614a4741                lj_vm_ceil
                0x00000000614a4741                lj_vm_ceil_sse
                0x00000000614a479c                lj_vm_trunc
                0x00000000614a479c                lj_vm_trunc_sse
                0x00000000614a47fa                lj_vm_mod
                0x00000000614a4870                lj_vm_powi_sse
                0x00000000614a48d2                lj_vm_cpuid
                0x00000000614a48eb                lj_assert_bad_for_arg_type
                0x00000000614a48ec                lj_vm_ffi_callback
                0x00000000614a498c                lj_cont_ffi_callback
                0x00000000614a49bd                lj_vm_ffi_call
 *fill*         0x00000000614a4a1b        0x5 
 .text          0x00000000614a4a20     0x17c0 window/x86_64/libluajit.a(lj_gc.o)
                0x00000000614a55d0                lj_gc_separateudata
                0x00000000614a5c00                lj_gc_finalize_udata
                0x00000000614a5c30                lj_gc_finalize_cdata
                0x00000000614a5d00                lj_gc_freeall
                0x00000000614a5d60                lj_gc_step
                0x00000000614a5e50                lj_gc_step_fixtop
                0x00000000614a5e80                lj_gc_step_jit
                0x00000000614a5f00                lj_gc_fullgc
                0x00000000614a5fc0                lj_gc_barrierf
                0x00000000614a5ff0                lj_gc_barrieruv
                0x00000000614a6030                lj_gc_closeuv
                0x00000000614a60c0                lj_gc_barriertrace
                0x00000000614a6100                lj_mem_realloc
                0x00000000614a6140                lj_mem_newgco
                0x00000000614a6190                lj_mem_grow
 .text          0x00000000614a61e0      0xd80 window/x86_64/libluajit.a(lj_err.o)
                0x00000000614a6470                lj_err_throw
                0x00000000614a64d0                lj_err_str
                0x00000000614a6500                lj_err_unwind_win
                0x00000000614a6620                lj_err_mem
                0x00000000614a6670                lj_err_run
                0x00000000614a6880                lj_err_msg
                0x00000000614a6890                lj_err_lex
                0x00000000614a6920                lj_err_optype
                0x00000000614a69f0                lj_err_comp
                0x00000000614a6a50                lj_err_optype_call
                0x00000000614a6ad0                lj_err_callermsg
                0x00000000614a6c10                lj_err_callerv
                0x00000000614a6c50                lj_err_caller
                0x00000000614a6c70                lj_err_argv
                0x00000000614a6cb0                lj_err_arg
                0x00000000614a6cd0                lj_err_argtype
                0x00000000614a6db0                lj_err_argt
                0x00000000614a6dd0                lua_atpanic
                0x00000000614a6df0                lua_error
                0x00000000614a6e00                luaL_argerror
                0x00000000614a6e10                luaL_typerror
                0x00000000614a6e20                luaL_where
                0x00000000614a6e60                luaL_error
                0x00000000614a6e90                lj_err_context
 .text          0x00000000614a6f60        0x0 window/x86_64/libluajit.a(lj_char.o)
 .text          0x00000000614a6f60        0x0 window/x86_64/libluajit.a(lj_bc.o)
 .text          0x00000000614a6f60       0xe0 window/x86_64/libluajit.a(lj_obj.o)
                0x00000000614a6f60                lj_obj_equal
                0x00000000614a6fe0                lj_obj_ptr
 .text          0x00000000614a7040      0x720 window/x86_64/libluajit.a(lj_buf.o)
                0x00000000614a70b0                lj_buf_need2
                0x00000000614a70e0                lj_buf_more2
                0x00000000614a7120                lj_buf_shrink
                0x00000000614a7180                lj_buf_tmp
                0x00000000614a71b0                lj_buf_putmem
                0x00000000614a7210                lj_buf_putchar
                0x00000000614a7250                lj_buf_putstr
                0x00000000614a72a0                lj_buf_putstr_reverse
                0x00000000614a7310                lj_buf_putstr_lower
                0x00000000614a7390                lj_buf_putstr_upper
                0x00000000614a7410                lj_buf_putstr_rep
                0x00000000614a74d0                lj_buf_puttab
                0x00000000614a7650                lj_buf_tostr
                0x00000000614a7670                lj_buf_cat2str
                0x00000000614a7710                lj_buf_ruleb128
 .text          0x00000000614a7760      0x4c0 window/x86_64/libluajit.a(lj_str.o)
                0x00000000614a7760                lj_str_cmp
                0x00000000614a77e0                lj_str_find
                0x00000000614a7880                lj_str_haspattern
                0x00000000614a78f0                lj_str_resize
                0x00000000614a79b0                lj_str_new
                0x00000000614a7bf0                lj_str_free
 .text          0x00000000614a7c20     0x13b0 window/x86_64/libluajit.a(lj_tab.o)
                0x00000000614a7e80                lj_tab_new
                0x00000000614a7f00                lj_tab_new_ah
                0x00000000614a7f40                lj_tab_new1
                0x00000000614a7fd0                lj_tab_dup
                0x00000000614a80d0                lj_tab_clear
                0x00000000614a8150                lj_tab_free
                0x00000000614a8220                lj_tab_getinth
                0x00000000614a82a0                lj_tab_getstr
                0x00000000614a82f0                lj_tab_get
                0x00000000614a8410                lj_tab_set
                0x00000000614a8530                lj_tab_newkey
                0x00000000614a86f0                lj_tab_setinth
                0x00000000614a8790                lj_tab_resize
                0x00000000614a8be0                lj_tab_rehash
                0x00000000614a8bf0                lj_tab_reasize
                0x00000000614a8c10                lj_tab_setstr
                0x00000000614a8c90                lj_tab_next
                0x00000000614a8e50                lj_tab_len
 .text          0x00000000614a8fd0      0x460 window/x86_64/libluajit.a(lj_func.o)
                0x00000000614a9020                lj_func_freeproto
                0x00000000614a9040                lj_func_closeuv
                0x00000000614a90d0                lj_func_freeuv
                0x00000000614a9110                lj_func_newC
                0x00000000614a9160                lj_func_newL_empty
                0x00000000614a9210                lj_func_newL_gc
                0x00000000614a93f0                lj_func_free
 .text          0x00000000614a9430       0x80 window/x86_64/libluajit.a(lj_udata.o)
                0x00000000614a9430                lj_udata_new
                0x00000000614a9490                lj_udata_free
 .text          0x00000000614a94b0     0x1110 window/x86_64/libluajit.a(lj_meta.o)
                0x00000000614a9500                lj_meta_init
                0x00000000614a95a0                lj_meta_cache
                0x00000000614a95e0                lj_meta_lookup
                0x00000000614a9670                lj_meta_tailcall
                0x00000000614a96c0                lj_meta_tget
                0x00000000614a9820                lj_meta_tset
                0x00000000614a9a70                lj_meta_arith
                0x00000000614a9bc0                lj_meta_cat
                0x00000000614a9e60                lj_meta_len
                0x00000000614a9f00                lj_meta_equal
                0x00000000614aa040                lj_meta_equal_cd
                0x00000000614aa1b0                lj_meta_comp
                0x00000000614aa410                lj_meta_istype
                0x00000000614aa470                lj_meta_call
                0x00000000614aa4e0                lj_meta_for
 .text          0x00000000614aa5c0     0x17f0 window/x86_64/libluajit.a(lj_debug.o)
                0x00000000614aaa20                lj_debug_frame
                0x00000000614aaae0                lj_debug_line
                0x00000000614aab80                lj_debug_uvname
                0x00000000614aabc0                lj_debug_uvnamev
                0x00000000614aac50                lj_debug_slotname
                0x00000000614aade0                lj_debug_funcname
                0x00000000614aaf00                lj_debug_shortname
                0x00000000614ab040                lj_debug_addloc
                0x00000000614ab0e0                lj_debug_pushloc
                0x00000000614ab220                lua_getlocal
                0x00000000614ab2d0                lua_setlocal
                0x00000000614ab320                lj_debug_getinfo
                0x00000000614ab740                lua_getinfo
                0x00000000614ab750                lua_getstack
                0x00000000614ab7b0                lj_debug_dumpstack
                0x00000000614abb50                luaL_traceback
 .text          0x00000000614abdb0      0x710 window/x86_64/libluajit.a(lj_state.o)
                0x00000000614ac090                lj_state_relimitstack
                0x00000000614ac0c0                lj_state_shrinkstack
                0x00000000614ac100                lj_state_growstack
                0x00000000614ac170                lj_state_growstack1
                0x00000000614ac180                lua_newstate
                0x00000000614ac310                lua_close
                0x00000000614ac3e0                lj_state_new
                0x00000000614ac450                lj_state_free
 .text          0x00000000614ac4c0      0xef0 window/x86_64/libluajit.a(lj_dispatch.o)
                0x00000000614ac670                lj_dispatch_init
                0x00000000614ac740                lj_dispatch_init_hotcount
                0x00000000614ac770                lj_dispatch_update
                0x00000000614acaa0                luaJIT_setmode
                0x00000000614acd40                luaJIT_version_2_1_0_beta3
                0x00000000614acd50                lua_sethook
                0x00000000614acdc0                lua_gethook
                0x00000000614acdd0                lua_gethookmask
                0x00000000614acde0                lua_gethookcount
                0x00000000614acdf0                lj_dispatch_ins
                0x00000000614acfd0                lj_dispatch_call
                0x00000000614ad260                lj_dispatch_stitch
                0x00000000614ad300                lj_dispatch_profile
 .text          0x00000000614ad3b0      0x210 window/x86_64/libluajit.a(lj_vmevent.o)
                0x00000000614ad3b0                lj_vmevent_prepare
                0x00000000614ad4c0                lj_vmevent_call
 .text          0x00000000614ad5c0      0x2e0 window/x86_64/libluajit.a(lj_vmmath.o)
                0x00000000614ad5c0                lj_vm_foldarith
                0x00000000614ad6f0                lj_vm_modi
                0x00000000614ad740                lj_vm_log2
                0x00000000614ad760                lj_vm_exp2
                0x00000000614ad770                lj_vm_foldfpm
                0x00000000614ad880                lj_vm_errno
 .text          0x00000000614ad8a0     0x1420 window/x86_64/libluajit.a(lj_strscan.o)
                0x00000000614ae0f0                lj_strscan_scan
                0x00000000614aeca0                lj_strscan_num
 .text          0x00000000614aecc0     0x12f0 window/x86_64/libluajit.a(lj_strfmt.o)
                0x00000000614aecc0                lj_strfmt_parse
                0x00000000614aeef0                lj_strfmt_wint
                0x00000000614af1a0                lj_strfmt_wptr
                0x00000000614af220                lj_strfmt_wuleb128
                0x00000000614af240                lj_strfmt_wstrnum
                0x00000000614af2e0                lj_strfmt_putint
                0x00000000614af330                lj_strfmt_putnum
                0x00000000614af340                lj_strfmt_putptr
                0x00000000614af390                lj_strfmt_putquoted
                0x00000000614af520                lj_strfmt_putfchar
                0x00000000614af5f0                lj_strfmt_putfstr
                0x00000000614af6d0                lj_strfmt_putfxint
                0x00000000614afaf0                lj_strfmt_putfnum_int
                0x00000000614afb20                lj_strfmt_putfnum_uint
                0x00000000614afb50                lj_strfmt_int
                0x00000000614afb80                lj_strfmt_number
                0x00000000614afb90                lj_strfmt_char
                0x00000000614afbb0                lj_strfmt_obj
                0x00000000614afd20                lj_strfmt_pushvf
                0x00000000614aff80                lj_strfmt_pushf
 .text          0x00000000614affb0     0x1b50 window/x86_64/libluajit.a(lj_strfmt_num.o)
                0x00000000614b1aa0                lj_strfmt_putfnum
                0x00000000614b1ac0                lj_strfmt_num
 .text          0x00000000614b1b00     0x2b00 window/x86_64/libluajit.a(lj_api.o)
                0x00000000614b1d60                lua_status
                0x00000000614b1d70                lua_checkstack
                0x00000000614b1dd0                luaL_checkstack
                0x00000000614b1e00                lua_xmove
                0x00000000614b1ea0                lua_version
                0x00000000614b1eb0                lua_gettop
                0x00000000614b1ec0                lua_settop
                0x00000000614b1f50                lua_remove
                0x00000000614b1fa0                lua_insert
                0x00000000614b2000                lua_replace
                0x00000000614b2060                lua_copy
                0x00000000614b20b0                lua_pushvalue
                0x00000000614b20f0                lua_type
                0x00000000614b2140                luaL_checktype
                0x00000000614b2170                luaL_checkany
                0x00000000614b21b0                lua_typename
                0x00000000614b21d0                lua_iscfunction
                0x00000000614b2210                lua_isnumber
                0x00000000614b2270                lua_isstring
                0x00000000614b22a0                lua_isuserdata
                0x00000000614b22d0                lua_rawequal
                0x00000000614b2320                lua_equal
                0x00000000614b2450                lua_lessthan
                0x00000000614b2540                lua_tonumber
                0x00000000614b25b0                lua_tonumberx
                0x00000000614b2630                luaL_checknumber
                0x00000000614b26a0                luaL_optnumber
                0x00000000614b2720                lua_tointeger
                0x00000000614b2790                lua_tointegerx
                0x00000000614b2810                luaL_checkinteger
                0x00000000614b2890                luaL_optinteger
                0x00000000614b2920                lua_toboolean
                0x00000000614b2940                lua_tolstring
                0x00000000614b29f0                luaL_checklstring
                0x00000000614b2aa0                luaL_optlstring
                0x00000000614b2b70                luaL_checkoption
                0x00000000614b2c00                lua_objlen
                0x00000000614b2cc0                lua_tocfunction
                0x00000000614b2d10                lua_touserdata
                0x00000000614b2d60                lua_tothread
                0x00000000614b2d90                lua_topointer
                0x00000000614b2db0                lua_pushnil
                0x00000000614b2de0                lua_pushnumber
                0x00000000614b2e20                lua_pushinteger
                0x00000000614b2e50                lua_pushlstring
                0x00000000614b2ed0                lua_pushstring
                0x00000000614b2f60                lua_pushvfstring
                0x00000000614b2fb0                lua_pushfstring
                0x00000000614b3010                lua_pushcclosure
                0x00000000614b3100                lua_pushboolean
                0x00000000614b3140                lua_pushlightuserdata
                0x00000000614b3190                lua_createtable
                0x00000000614b3210                luaL_newmetatable
                0x00000000614b32e0                lua_pushthread
                0x00000000614b3330                lua_newthread
                0x00000000614b33b0                lua_newuserdata
                0x00000000614b3480                lua_concat
                0x00000000614b3550                lua_gettable
                0x00000000614b35d0                lua_getfield
                0x00000000614b3680                lua_rawget
                0x00000000614b36c0                lua_rawgeti
                0x00000000614b3750                lua_getmetatable
                0x00000000614b3800                luaL_getmetafield
                0x00000000614b3890                lua_getfenv
                0x00000000614b3940                lua_next
                0x00000000614b39c0                lua_getupvalue
                0x00000000614b3a30                lua_upvalueid
                0x00000000614b3a70                lua_upvaluejoin
                0x00000000614b3b00                luaL_testudata
                0x00000000614b3b90                luaL_checkudata
                0x00000000614b3bc0                lua_settable
                0x00000000614b3c30                lua_setfield
                0x00000000614b3cd0                lua_rawset
                0x00000000614b3d40                lua_rawseti
                0x00000000614b3de0                lua_setmetatable
                0x00000000614b3f40                luaL_setmetatable
                0x00000000614b3f70                lua_setfenv
                0x00000000614b4010                lua_setupvalue
                0x00000000614b40a0                lua_call
                0x00000000614b4110                lua_pcall
                0x00000000614b41f0                lua_cpcall
                0x00000000614b4230                luaL_callmeta
                0x00000000614b42a0                lua_isyieldable
                0x00000000614b42b0                lua_yield
                0x00000000614b43a0                lua_resume
                0x00000000614b4490                lua_gc
                0x00000000614b45d0                lua_getallocf
                0x00000000614b45f0                lua_setallocf
 .text          0x00000000614b4600      0x570 window/x86_64/libluajit.a(lj_profile.o)
                0x00000000614b46d0                lj_profile_hook_enter
                0x00000000614b4720                lj_profile_hook_leave
                0x00000000614b4770                lj_profile_interpreter
                0x00000000614b4840                luaJIT_profile_stop
                0x00000000614b4900                luaJIT_profile_start
                0x00000000614b4b20                luaJIT_profile_dumpstack
 .text          0x00000000614b4b70     0x16d0 window/x86_64/libluajit.a(lj_lex.o)
                0x00000000614b4c50                lj_lex_cleanup
                0x00000000614b4cd0                lj_lex_token2str
                0x00000000614b4d30                lj_lex_error
                0x00000000614b4e60                lj_lex_setup
                0x00000000614b6160                lj_lex_next
                0x00000000614b61b0                lj_lex_lookahead
                0x00000000614b61d0                lj_lex_init
 .text          0x00000000614b6240     0x5330 window/x86_64/libluajit.a(lj_parse.o)
                0x00000000614b8460                lj_parse_keepstr
                0x00000000614bb410                lj_parse_keepcdata
                0x00000000614bb450                lj_parse
 .text          0x00000000614bb570      0xcb0 window/x86_64/libluajit.a(lj_bcread.o)
                0x00000000614bb830                lj_bcread_proto
                0x00000000614bbf70                lj_bcread
 .text          0x00000000614bc220      0xa00 window/x86_64/libluajit.a(lj_bcwrite.o)
                0x00000000614bcb90                lj_bcwrite
 .text          0x00000000614bcc20      0x510 window/x86_64/libluajit.a(lj_load.o)
                0x00000000614bcd90                lua_loadx
                0x00000000614bce40                lua_load
                0x00000000614bce60                luaL_loadfilex
                0x00000000614bd000                luaL_loadfile
                0x00000000614bd010                luaL_loadbufferx
                0x00000000614bd040                luaL_loadbuffer
                0x00000000614bd070                luaL_loadstring
                0x00000000614bd0c0                lua_dump
 .text          0x00000000614bd130      0xc40 window/x86_64/libluajit.a(lj_ir.o)
                0x00000000614bd270                lj_ir_growtop
                0x00000000614bd310                lj_ir_emit
                0x00000000614bd3a0                lj_ir_call
                0x00000000614bd480                lj_ir_ggfload
                0x00000000614bd4b0                lj_ir_kint
                0x00000000614bd540                lj_ir_k64
                0x00000000614bd610                lj_ir_knum_u64
                0x00000000614bd620                lj_ir_kint64
                0x00000000614bd630                lj_ir_knumint
                0x00000000614bd670                lj_ir_kgc
                0x00000000614bd720                lj_ir_ktrace
                0x00000000614bd770                lj_ir_kptr_
                0x00000000614bd820                lj_ir_knull
                0x00000000614bd8d0                lj_ir_kslot
                0x00000000614bd970                lj_ir_kvalue
                0x00000000614bda80                lj_ir_tonumber
                0x00000000614bdae0                lj_ir_tonum
                0x00000000614bdb70                lj_ir_tostr
                0x00000000614bdbf0                lj_ir_numcmp
                0x00000000614bdcb0                lj_ir_strcmp
                0x00000000614bdd10                lj_ir_rollback
 .text          0x00000000614bdd70     0x1800 window/x86_64/libluajit.a(lj_opt_mem.o)
                0x00000000614be530                lj_opt_fwd_aload
                0x00000000614be610                lj_opt_fwd_hload
                0x00000000614be640                lj_opt_fwd_hrefk
                0x00000000614be6f0                lj_opt_fwd_href_nokey
                0x00000000614be7b0                lj_opt_fwd_tptr
                0x00000000614be840                lj_opt_dse_ahstore
                0x00000000614be970                lj_opt_fwd_uload
                0x00000000614bea60                lj_opt_dse_ustore
                0x00000000614bebf0                lj_opt_fwd_fload
                0x00000000614becd0                lj_opt_dse_fstore
                0x00000000614bee30                lj_opt_fwd_xload
                0x00000000614bf260                lj_opt_dse_xstore
                0x00000000614bf3d0                lj_opt_fwd_tab_len
                0x00000000614bf470                lj_opt_fwd_wasnonnil
 .text          0x00000000614bf570     0x37f0 window/x86_64/libluajit.a(lj_opt_fold.o)
                0x00000000614c1550                lj_opt_cse
                0x00000000614c23e0                lj_opt_fold
                0x00000000614c2cf0                lj_opt_cselim
 .text          0x00000000614c2d60     0x12a0 window/x86_64/libluajit.a(lj_opt_narrow.o)
                0x00000000614c33c0                lj_opt_narrow_convert
                0x00000000614c3630                lj_opt_narrow_index
                0x00000000614c36c0                lj_opt_narrow_toint
                0x00000000614c3760                lj_opt_narrow_tobit
                0x00000000614c3820                lj_opt_narrow_cindex
                0x00000000614c3860                lj_opt_narrow_arith
                0x00000000614c3a00                lj_opt_narrow_unm
                0x00000000614c3af0                lj_opt_narrow_mod
                0x00000000614c3c80                lj_opt_narrow_pow
                0x00000000614c3f60                lj_opt_narrow_forl
 .text          0x00000000614c4000      0x1d0 window/x86_64/libluajit.a(lj_opt_dce.o)
                0x00000000614c4100                lj_opt_dce
 .text          0x00000000614c41d0      0xbd0 window/x86_64/libluajit.a(lj_opt_loop.o)
                0x00000000614c4c10                lj_opt_loop
 .text          0x00000000614c4da0        0x0 window/x86_64/libluajit.a(lj_opt_split.o)
 .text          0x00000000614c4da0      0x5b0 window/x86_64/libluajit.a(lj_opt_sink.o)
                0x00000000614c4f00                lj_opt_sink
 .text          0x00000000614c5350      0x490 window/x86_64/libluajit.a(lj_mcode.o)
                0x00000000614c5550                lj_mcode_sync
                0x00000000614c5560                lj_mcode_free
                0x00000000614c55b0                lj_mcode_reserve
                0x00000000614c5610                lj_mcode_commit
                0x00000000614c5630                lj_mcode_abort
                0x00000000614c5650                lj_mcode_patch
                0x00000000614c5750                lj_mcode_limiterr
 .text          0x00000000614c57e0     0x2090 window/x86_64/libluajit.a(lj_snap.o)
                0x00000000614c6160                lj_snap_grow_buf_
                0x00000000614c61c0                lj_snap_grow_map_
                0x00000000614c6220                lj_snap_add
                0x00000000614c65e0                lj_snap_purge
                0x00000000614c6680                lj_snap_shrink
                0x00000000614c67b0                lj_snap_regspmap
                0x00000000614c68f0                lj_snap_replay
                0x00000000614c71b0                lj_snap_restore
 .text          0x00000000614c7870     0x61a0 window/x86_64/libluajit.a(lj_record.o)
                0x00000000614c8700                lj_record_objcmp
                0x00000000614c8860                lj_record_constify
                0x00000000614c8d90                lj_record_stop
                0x00000000614c9190                lj_record_idx
                0x00000000614c9cf0                lj_record_mm_lookup
                0x00000000614ca310                lj_record_call
                0x00000000614ca3e0                lj_record_tailcall
                0x00000000614ca8b0                lj_record_ret
                0x00000000614caf20                lj_record_ins
                0x00000000614cd5b0                lj_record_setup
 .text          0x00000000614cda10     0x5690 window/x86_64/libluajit.a(lj_crecord.o)
                0x00000000614cfca0                recff_cdata_index
                0x00000000614d08d0                recff_cdata_call
                0x00000000614d10a0                recff_cdata_arith
                0x00000000614d1e70                recff_clib_index
                0x00000000614d20e0                recff_ffi_new
                0x00000000614d2120                recff_ffi_errno
                0x00000000614d2150                recff_ffi_string
                0x00000000614d2230                recff_ffi_copy
                0x00000000614d23e0                recff_ffi_fill
                0x00000000614d2570                recff_ffi_typeof
                0x00000000614d2610                recff_ffi_istype
                0x00000000614d2690                recff_ffi_abi
                0x00000000614d2720                recff_ffi_xof
                0x00000000614d2820                recff_ffi_gc
                0x00000000614d2880                recff_bit64_tobit
                0x00000000614d2920                recff_bit64_unary
                0x00000000614d29f0                recff_bit64_nary
                0x00000000614d2b60                recff_bit64_shift
                0x00000000614d2d40                recff_bit64_tohex
                0x00000000614d2fc0                lj_crecord_tonumber
 .text          0x00000000614d30a0     0x3480 window/x86_64/libluajit.a(lj_ffrecord.o)
                0x00000000614d62a0                lj_ffrecord_select_mode
                0x00000000614d6470                lj_ffrecord_func
 .text          0x00000000614d6520     0xa7d0 window/x86_64/libluajit.a(lj_asm.o)
                0x00000000614df090                lj_asm_patchexit
                0x00000000614df1d0                lj_asm_trace
 .text          0x00000000614e0cf0     0x1800 window/x86_64/libluajit.a(lj_trace.o)
                0x00000000614e0df0                lj_trace_err
                0x00000000614e0e30                lj_trace_err_info
                0x00000000614e0e60                lj_trace_alloc
                0x00000000614e0f00                lj_trace_free
                0x00000000614e0f60                lj_trace_reenableproto
                0x00000000614e0fc0                lj_trace_flush
                0x00000000614e1000                lj_trace_flushproto
                0x00000000614e1050                lj_trace_flushall
                0x00000000614e1f00                lj_trace_initstate
                0x00000000614e1f70                lj_trace_freestate
                0x00000000614e2020                lj_trace_ins
                0x00000000614e20a0                lj_trace_hot
                0x00000000614e2140                lj_trace_stitch
                0x00000000614e2170                lj_trace_exit
 .text          0x00000000614e24f0        0x0 window/x86_64/libluajit.a(lj_gdbjit.o)
 .text          0x00000000614e24f0     0x1840 window/x86_64/libluajit.a(lj_ctype.o)
                0x00000000614e2750                lj_ctype_new
                0x00000000614e27e0                lj_ctype_intern
                0x00000000614e28f0                lj_ctype_addname
                0x00000000614e2930                lj_ctype_getname
                0x00000000614e29b0                lj_ctype_getfieldq
                0x00000000614e2ab0                lj_ctype_rawref
                0x00000000614e2af0                lj_ctype_size
                0x00000000614e2b30                lj_ctype_vlsize
                0x00000000614e2c00                lj_ctype_info
                0x00000000614e2c90                lj_ctype_meta
                0x00000000614e2d70                lj_ctype_repr
                0x00000000614e3940                lj_ctype_repr_int64
                0x00000000614e3a10                lj_ctype_repr_complex
                0x00000000614e3af0                lj_ctype_init
                0x00000000614e3ca0                lj_ctype_freestate
 .text          0x00000000614e3d30      0x850 window/x86_64/libluajit.a(lj_cdata.o)
                0x00000000614e3d30                lj_cdata_newref
                0x00000000614e3d80                lj_cdata_newv
                0x00000000614e3e20                lj_cdata_newx
                0x00000000614e3e70                lj_cdata_free
                0x00000000614e3f30                lj_cdata_setfin
                0x00000000614e3fe0                lj_cdata_index
                0x00000000614e43a0                lj_cdata_get
                0x00000000614e4490                lj_cdata_set
 .text          0x00000000614e4580     0x1820 window/x86_64/libluajit.a(lj_cconv.o)
                0x00000000614e4620                lj_cconv_compatptr
                0x00000000614e4750                lj_cconv_ct_ct
                0x00000000614e4f00                lj_cconv_tv_ct
                0x00000000614e5060                lj_cconv_tv_bf
                0x00000000614e5170                lj_cconv_bf_tv
                0x00000000614e5460                lj_cconv_ct_tv
                0x00000000614e5b30                lj_cconv_multi_init
                0x00000000614e5bc0                lj_cconv_ct_init
 .text          0x00000000614e5da0      0x930 window/x86_64/libluajit.a(lj_ccall.o)
                0x00000000614e5da0                lj_ccall_ctid_vararg
                0x00000000614e5e90                lj_ccall_func
 .text          0x00000000614e66d0      0x850 window/x86_64/libluajit.a(lj_ccallback.o)
                0x00000000614e66d0                lj_ccallback_ptr2slot
                0x00000000614e6730                lj_ccallback_mcode_free
                0x00000000614e6760                lj_ccallback_enter
                0x00000000614e6a40                lj_ccallback_leave
                0x00000000614e6b90                lj_ccallback_new
 .text          0x00000000614e6f20      0xfc0 window/x86_64/libluajit.a(lj_carith.o)
                0x00000000614e6f70                lj_carith_shift64
                0x00000000614e6fc0                lj_carith_check64
                0x00000000614e7140                lj_carith_divu64
                0x00000000614e7160                lj_carith_divi64
                0x00000000614e71a0                lj_carith_modu64
                0x00000000614e71d0                lj_carith_modi64
                0x00000000614e7210                lj_carith_powu64
                0x00000000614e7230                lj_carith_powi64
                0x00000000614e7290                lj_carith_op
 .text          0x00000000614e7ee0      0x4d0 window/x86_64/libluajit.a(lj_clib.o)
                0x00000000614e7fb0                lj_clib_index
                0x00000000614e8260                lj_clib_load
                0x00000000614e8320                lj_clib_unload
                0x00000000614e8390                lj_clib_default
 .text          0x00000000614e83b0     0x44c0 window/x86_64/libluajit.a(lj_cparse.o)
                0x00000000614ec6f0                lj_cparse
 .text          0x00000000614ec870      0x9e0 window/x86_64/libluajit.a(lj_lib.o)
                0x00000000614ec870                lj_lib_register
                0x00000000614ecd40                lj_lib_pushcc
                0x00000000614ecd80                lj_lib_prereg
                0x00000000614ecdf0                lj_lib_postreg
                0x00000000614ecec0                lj_lib_checkany
                0x00000000614ecef0                lj_lib_checkstr
                0x00000000614ecf60                lj_lib_optstr
                0x00000000614ecf90                lj_lib_checknum
                0x00000000614ed000                lj_lib_checkint
                0x00000000614ed070                lj_lib_optint
                0x00000000614ed0a0                lj_lib_checkfunc
                0x00000000614ed0f0                lj_lib_checktab
                0x00000000614ed140                lj_lib_checktabornil
                0x00000000614ed1a0                lj_lib_checkopt
 .text          0x00000000614ed250     0x20d0 window/x86_64/libluajit.a(lj_alloc.o)
                0x00000000614ef1a0                lj_alloc_create
                0x00000000614ef2c0                lj_alloc_destroy
                0x00000000614ef2f0                lj_alloc_f
 .text          0x00000000614ef320      0xb10 window/x86_64/libluajit.a(lib_aux.o)
                0x00000000614ef500                luaL_fileresult
                0x00000000614ef530                luaL_execresult
                0x00000000614ef5b0                luaL_findtable
                0x00000000614ef6d0                luaL_pushmodule
                0x00000000614ef780                luaL_setfuncs
                0x00000000614ef830                luaL_openlib
                0x00000000614ef910                luaL_register
                0x00000000614ef920                luaL_prepbuffer
                0x00000000614ef960                luaL_addlstring
                0x00000000614ef9c0                luaL_addstring
                0x00000000614ef9f0                luaL_pushresult
                0x00000000614efa20                luaL_gsub
                0x00000000614efaf0                luaL_addvalue
                0x00000000614efb90                luaL_buffinit
                0x00000000614efbb0                luaL_ref
                0x00000000614efc90                luaL_unref
                0x00000000614efd10                luaL_newstate
                0x00000000614efd70                getSafeStr
                0x00000000614efdd0                lua_pushsafestring
                0x00000000614efe00                lua_check
                0x00000000614efe10                lua_reset
                0x00000000614efe20                lua_set
 .text          0x00000000614efe30      0x150 window/x86_64/libluajit.a(lib_log.o)
                0x00000000614efe30                LOG
                0x00000000614efeb0                _TRY_LOG
                0x00000000614eff50                SET_LOG_LUASTATE
                0x00000000614eff60                CLEAR_LOG_LUASTATE
 .text          0x00000000614eff80     0x1580 window/x86_64/libluajit.a(lib_base.o)
                0x00000000614f1390                lj_ffh_coroutine_wrap_err
                0x00000000614f13e0                luaopen_base
 .text          0x00000000614f1500      0x450 window/x86_64/libluajit.a(lib_math.o)
                0x00000000614f1660                lj_math_random_step
                0x00000000614f1900                luaopen_math
 .text          0x00000000614f1950      0x4e0 window/x86_64/libluajit.a(lib_bit.o)
                0x00000000614f1e00                luaopen_bit
 .text          0x00000000614f1e30     0x1830 window/x86_64/libluajit.a(lib_string.o)
                0x00000000614f35d0                luaopen_string
 .text          0x00000000614f3660      0x910 window/x86_64/libluajit.a(lib_table.o)
                0x00000000614f3ef0                luaopen_table
 .text          0x00000000614f3f70     0x10e0 window/x86_64/libluajit.a(lib_io.o)
                0x00000000614f4f80                luaopen_io
 .text          0x00000000614f5050      0x8e0 window/x86_64/libluajit.a(lib_os.o)
                0x00000000614f5900                luaopen_os
 .text          0x00000000614f5930     0x12a0 window/x86_64/libluajit.a(lib_package.o)
                0x00000000614f69b0                luaopen_package
 .text          0x00000000614f6bd0      0xef0 window/x86_64/libluajit.a(lib_debug.o)
                0x00000000614f7a90                luaopen_debug
 .text          0x00000000614f7ac0     0x1770 window/x86_64/libluajit.a(lib_jit.o)
                0x00000000614f9020                luaopen_jit
 .text          0x00000000614f9230     0x2020 window/x86_64/libluajit.a(lib_ffi.o)
                0x00000000614faff0                luaopen_ffi
 .text          0x00000000614fb250       0xc0 window/x86_64/libluajit.a(lib_init.o)
                0x00000000614fb250                luaL_openlibs
 .text          0x00000000614fb310       0xe0 C:/msys64/mingw64/bin/../lib/gcc/x86_64-w64-mingw32/8.2.1/../../../../x86_64-w64-mingw32/lib/../lib/libmingw32.a(lib64_libmingw32_a-atonexit.o)
                0x00000000614fb310                mingw_onexit
                0x00000000614fb3d0                atexit
 .text          0x00000000614fb3f0       0xd0 C:/msys64/mingw64/bin/../lib/gcc/x86_64-w64-mingw32/8.2.1/../../../../x86_64-w64-mingw32/lib/../lib/libmingw32.a(lib64_libmingw32_a-gccmain.o)
                0x00000000614fb3f0                __do_global_dtors
                0x00000000614fb430                __do_global_ctors
                0x00000000614fb4a0                __main
 .text          0x00000000614fb4c0        0x0 C:/msys64/mingw64/bin/../lib/gcc/x86_64-w64-mingw32/8.2.1/../../../../x86_64-w64-mingw32/lib/../lib/libmingw32.a(lib64_libmingw32_a-natstart.o)
 .text          0x00000000614fb4c0      0x1e0 C:/msys64/mingw64/bin/../lib/gcc/x86_64-w64-mingw32/8.2.1/../../../../x86_64-w64-mingw32/lib/../lib/libmingw32.a(lib64_libmingw32_a-gs_support.o)
                0x00000000614fb4c0                __security_init_cookie
                0x00000000614fb5a0                __report_gsfailure
 .text          0x00000000614fb6a0       0xc0 C:/msys64/mingw64/bin/../lib/gcc/x86_64-w64-mingw32/8.2.1/../../../../x86_64-w64-mingw32/lib/../lib/libmingw32.a(lib64_libmingw32_a-tlssup.o)
                0x00000000614fb6d0                __dyn_tls_init
                0x00000000614fb750                __tlregdtor
 .text          0x00000000614fb760        0x0 C:/msys64/mingw64/bin/../lib/gcc/x86_64-w64-mingw32/8.2.1/../../../../x86_64-w64-mingw32/lib/../lib/libmingw32.a(lib64_libmingw32_a-cinitexe.o)
 .text          0x00000000614fb760       0x20 C:/msys64/mingw64/bin/../lib/gcc/x86_64-w64-mingw32/8.2.1/../../../../x86_64-w64-mingw32/lib/../lib/libmingw32.a(lib64_libmingw32_a-mingw_helpers.o)
                0x00000000614fb760                _decode_pointer
                0x00000000614fb770                _encode_pointer
 .text          0x00000000614fb780      0x4c0 C:/msys64/mingw64/bin/../lib/gcc/x86_64-w64-mingw32/8.2.1/../../../../x86_64-w64-mingw32/lib/../lib/libmingw32.a(lib64_libmingw32_a-pseudo-reloc.o)
                0x00000000614fb980                _pei386_runtime_relocator
 .text          0x00000000614fbc40      0x480 C:/msys64/mingw64/bin/../lib/gcc/x86_64-w64-mingw32/8.2.1/../../../../x86_64-w64-mingw32/lib/../lib/libmingw32.a(lib64_libmingw32_a-crt_handler.o)
                0x00000000614fbc40                __mingw_SEH_error_handler
                0x00000000614fbde0                __mingw_init_ehandler
                0x00000000614fbed0                _gnu_exception_handler
 .text          0x00000000614fc0c0      0x270 C:/msys64/mingw64/bin/../lib/gcc/x86_64-w64-mingw32/8.2.1/../../../../x86_64-w64-mingw32/lib/../lib/libmingw32.a(lib64_libmingw32_a-tlsthrd.o)
                0x00000000614fc130                ___w64_mingwthr_add_key_dtor
                0x00000000614fc1b0                ___w64_mingwthr_remove_key_dtor
                0x00000000614fc250                __mingw_TLScallback
 .text          0x00000000614fc330        0x0 C:/msys64/mingw64/bin/../lib/gcc/x86_64-w64-mingw32/8.2.1/../../../../x86_64-w64-mingw32/lib/../lib/libmingw32.a(lib64_libmingw32_a-tlsmcrt.o)
 .text          0x00000000614fc330        0x0 C:/msys64/mingw64/bin/../lib/gcc/x86_64-w64-mingw32/8.2.1/../../../../x86_64-w64-mingw32/lib/../lib/libmingw32.a(lib64_libmingw32_a-pseudo-reloc-list.o)
 .text          0x00000000614fc330      0x3e0 C:/msys64/mingw64/bin/../lib/gcc/x86_64-w64-mingw32/8.2.1/../../../../x86_64-w64-mingw32/lib/../lib/libmingw32.a(lib64_libmingw32_a-pesect.o)
                0x00000000614fc350                _ValidateImageBase
                0x00000000614fc370                _FindPESection
                0x00000000614fc3c0                _FindPESectionByName
                0x00000000614fc450                __mingw_GetSectionForAddress
                0x00000000614fc4d0                __mingw_GetSectionCount
                0x00000000614fc510                _FindPESectionExec
                0x00000000614fc580                _GetPEImageBase
                0x00000000614fc5c0                _IsNonwritableInCurrentImage
                0x00000000614fc660                __mingw_enum_import_library_names
 .text          0x00000000614fc710       0x10 C:/msys64/mingw64/bin/../lib/gcc/x86_64-w64-mingw32/8.2.1/../../../../x86_64-w64-mingw32/lib/../lib/libmingw32.a(lib64_libmingw32_a-CRT_fp10.o)
                0x00000000614fc710                fpreset
                0x00000000614fc710                _fpreset
 .text          0x00000000614fc720       0x40 C:/msys64/mingw64/bin/../lib/gcc/x86_64-w64-mingw32/8.2.1/libgcc.a(_chkstk_ms.o)
                0x00000000614fc720                ___chkstk_ms
 .text          0x00000000614fc760        0x0 C:/msys64/mingw64/bin/../lib/gcc/x86_64-w64-mingw32/8.2.1/libgcc.a(_ctors.o)
 .text          0x00000000614fc760       0x10 C:/msys64/mingw64/bin/../lib/gcc/x86_64-w64-mingw32/8.2.1/../../../../x86_64-w64-mingw32/lib/../lib/libmingwex.a(lib64_libmingwex_a-dllentry.o)
                0x00000000614fc760                DllEntryPoint
 .text          0x00000000614fc770       0x10 C:/msys64/mingw64/bin/../lib/gcc/x86_64-w64-mingw32/8.2.1/../../../../x86_64-w64-mingw32/lib/../lib/libmingwex.a(lib64_libmingwex_a-dllmain.o)
                0x00000000614fc770                DllMain
 .text          0x00000000614fc780       0xe0 C:/msys64/mingw64/bin/../lib/gcc/x86_64-w64-mingw32/8.2.1/../../../../x86_64-w64-mingw32/lib/../lib/libmingwex.a(lib64_libmingwex_a-strtodnrp.o)
                0x00000000614fc780                __mingw_strtod
                0x00000000614fc780                __strtod
 .text          0x00000000614fc860       0x60 C:/msys64/mingw64/bin/../lib/gcc/x86_64-w64-mingw32/8.2.1/../../../../x86_64-w64-mingw32/lib/../lib/libmingwex.a(lib64_libmingwex_a-fpclassify.o)
                0x00000000614fc860                __fpclassify
 .text          0x00000000614fc8c0       0x30 C:/msys64/mingw64/bin/../lib/gcc/x86_64-w64-mingw32/8.2.1/../../../../x86_64-w64-mingw32/lib/../lib/libmingwex.a(lib64_libmingwex_a-isnan.o)
                0x00000000614fc8c0                isnan
                0x00000000614fc8c0                __isnan
 .text          0x00000000614fc8f0       0xa0 C:/msys64/mingw64/bin/../lib/gcc/x86_64-w64-mingw32/8.2.1/../../../../x86_64-w64-mingw32/lib/../lib/libmingwex.a(lib64_libmingwex_a-modf.o)
                0x00000000614fc8f0                modf
 .text          0x00000000614fc990       0x20 C:/msys64/mingw64/bin/../lib/gcc/x86_64-w64-mingw32/8.2.1/../../../../x86_64-w64-mingw32/lib/../lib/libmingwex.a(lib64_libmingwex_a-powf.o)
                0x00000000614fc990                powf
 .text          0x00000000614fc9b0      0x140 C:/msys64/mingw64/bin/../lib/gcc/x86_64-w64-mingw32/8.2.1/../../../../x86_64-w64-mingw32/lib/../lib/libmingwex.a(lib64_libmingwex_a-sqrt.o)
                0x00000000614fc9b0                sqrt
 .text          0x00000000614fcaf0       0x30 C:/msys64/mingw64/bin/../lib/gcc/x86_64-w64-mingw32/8.2.1/../../../../x86_64-w64-mingw32/lib/../lib/libmingwex.a(lib64_libmingwex_a-difftime64.o)
                0x00000000614fcaf0                _difftime64
 .text          0x00000000614fcb20      0x140 C:/msys64/mingw64/bin/../lib/gcc/x86_64-w64-mingw32/8.2.1/../../../../x86_64-w64-mingw32/lib/../lib/libmingwex.a(lib64_libmingwex_a-gettimeofday.o)
                0x00000000614fcb20                getntptimeofday
                0x00000000614fcbc0                gettimeofday
                0x00000000614fcc10                mingw_gettimeofday
 .text          0x00000000614fcc60      0x230 C:/msys64/mingw64/bin/../lib/gcc/x86_64-w64-mingw32/8.2.1/../../../../x86_64-w64-mingw32/lib/../lib/libmingwex.a(lib64_libmingwex_a-strtoimax.o)
                0x00000000614fcc60                strtoll
                0x00000000614fcc60                strtoimax
 .text          0x00000000614fce90      0x1f0 C:/msys64/mingw64/bin/../lib/gcc/x86_64-w64-mingw32/8.2.1/../../../../x86_64-w64-mingw32/lib/../lib/libmingwex.a(lib64_libmingwex_a-strtoumax.o)
                0x00000000614fce90                strtoull
                0x00000000614fce90                strtoumax
 .text          0x00000000614fd080      0x220 C:/msys64/mingw64/bin/../lib/gcc/x86_64-w64-mingw32/8.2.1/../../../../x86_64-w64-mingw32/lib/../lib/libmingwex.a(lib64_libmingwex_a-wassert.o)
                0x00000000614fd080                _wassert
                0x00000000614fd1c0                _assert
 .text          0x00000000614fd2a0       0x10 C:/msys64/mingw64/bin/../lib/gcc/x86_64-w64-mingw32/8.2.1/../../../../x86_64-w64-mingw32/lib/../lib/libmingwex.a(lib64_libmingwex_a-atoll.o)
                0x00000000614fd2a0                atoll
 .text          0x00000000614fd2b0      0x4e0 C:/msys64/mingw64/bin/../lib/gcc/x86_64-w64-mingw32/8.2.1/../../../../x86_64-w64-mingw32/lib/../lib/libmingwex.a(lib64_libmingwex_a-fseeko64.o)
                0x00000000614fd2b0                _flush
                0x00000000614fd340                fseeko64
                0x00000000614fd3e0                _ftelli64
                0x00000000614fd630                _fseeki64
                0x00000000614fd6e0                mingw_dosmaperr
 .text          0x00000000614fd790       0x30 C:/msys64/mingw64/bin/../lib/gcc/x86_64-w64-mingw32/8.2.1/../../../../x86_64-w64-mingw32/lib/../lib/libmingwex.a(lib64_libmingwex_a-ftello64.o)
                0x00000000614fd790                ftello64
 .text          0x00000000614fd7c0       0x10 C:/msys64/mingw64/bin/../lib/gcc/x86_64-w64-mingw32/8.2.1/../../../../x86_64-w64-mingw32/lib/../lib/libmingwex.a(lib64_libmingwex_a-vsnprintf.o)
                0x00000000614fd7c0                __ms_vsnprintf
 .text          0x00000000614fd7d0       0x30 C:/msys64/mingw64/bin/../lib/gcc/x86_64-w64-mingw32/8.2.1/../../../../x86_64-w64-mingw32/lib/../lib/libmingwex.a(lib64_libmingwex_a-atan2.o)
                0x00000000614fd7d0                atan2
 .text          0x00000000614fd800      0x120 C:/msys64/mingw64/bin/../lib/gcc/x86_64-w64-mingw32/8.2.1/../../../../x86_64-w64-mingw32/lib/../lib/libmingwex.a(lib64_libmingwex_a-cos.o)
                0x00000000614fd800                cos
 .text          0x00000000614fd920       0x30 C:/msys64/mingw64/bin/../lib/gcc/x86_64-w64-mingw32/8.2.1/../../../../x86_64-w64-mingw32/lib/../lib/libmingwex.a(lib64_libmingwex_a-cosl_internal.o)
                0x00000000614fd920                __cosl_internal
 .text          0x00000000614fd950      0x1d0 C:/msys64/mingw64/bin/../lib/gcc/x86_64-w64-mingw32/8.2.1/../../../../x86_64-w64-mingw32/lib/../lib/libmingwex.a(lib64_libmingwex_a-exp.o)
                0x00000000614fd950                exp
 .text          0x00000000614fdb20      0x1b0 C:/msys64/mingw64/bin/../lib/gcc/x86_64-w64-mingw32/8.2.1/../../../../x86_64-w64-mingw32/lib/../lib/libmingwex.a(lib64_libmingwex_a-floor.o)
                0x00000000614fdb20                floor
 .text          0x00000000614fdcd0       0x40 C:/msys64/mingw64/bin/../lib/gcc/x86_64-w64-mingw32/8.2.1/../../../../x86_64-w64-mingw32/lib/../lib/libmingwex.a(lib64_libmingwex_a-fmod.o)
                0x00000000614fdcd0                fmod
 .text          0x00000000614fdd10       0xd0 C:/msys64/mingw64/bin/../lib/gcc/x86_64-w64-mingw32/8.2.1/../../../../x86_64-w64-mingw32/lib/../lib/libmingwex.a(lib64_libmingwex_a-ldexp.o)
                0x00000000614fdd10                ldexp
 .text          0x00000000614fdde0      0x140 C:/msys64/mingw64/bin/../lib/gcc/x86_64-w64-mingw32/8.2.1/../../../../x86_64-w64-mingw32/lib/../lib/libmingwex.a(lib64_libmingwex_a-log.o)
                0x00000000614fdde0                log
 .text          0x00000000614fdf20      0x660 C:/msys64/mingw64/bin/../lib/gcc/x86_64-w64-mingw32/8.2.1/../../../../x86_64-w64-mingw32/lib/../lib/libmingwex.a(lib64_libmingwex_a-pow.o)
                0x00000000614fdfc0                pow
 .text          0x00000000614fe580      0x120 C:/msys64/mingw64/bin/../lib/gcc/x86_64-w64-mingw32/8.2.1/../../../../x86_64-w64-mingw32/lib/../lib/libmingwex.a(lib64_libmingwex_a-sin.o)
                0x00000000614fe580                sin
 .text          0x00000000614fe6a0       0x40 C:/msys64/mingw64/bin/../lib/gcc/x86_64-w64-mingw32/8.2.1/../../../../x86_64-w64-mingw32/lib/../lib/libmingwex.a(lib64_libmingwex_a-sinl_internal.o)
                0x00000000614fe6a0                __sinl_internal
 .text          0x00000000614fe6e0     0x2070 C:/msys64/mingw64/bin/../lib/gcc/x86_64-w64-mingw32/8.2.1/../../../../x86_64-w64-mingw32/lib/../lib/libmingwex.a(lib64_libmingwex_a-strtodg.o)
                0x00000000614fe6e0                __increment_D2A
                0x00000000614feb20                __decrement_D2A
                0x00000000614feb50                __set_ones_D2A
                0x00000000614febe0                __strtodg
 .text          0x0000000061500750      0x150 C:/msys64/mingw64/bin/../lib/gcc/x86_64-w64-mingw32/8.2.1/../../../../x86_64-w64-mingw32/lib/../lib/libmingwex.a(lib64_libmingwex_a-sum.o)
                0x0000000061500750                __sum_D2A
 .text          0x00000000615008a0      0x280 C:/msys64/mingw64/bin/../lib/gcc/x86_64-w64-mingw32/8.2.1/../../../../x86_64-w64-mingw32/lib/../lib/libmingwex.a(lib64_libmingwex_a-powi.o)
                0x00000000615008a0                __powi
 .text          0x0000000061500b20       0x70 C:/msys64/mingw64/bin/../lib/gcc/x86_64-w64-mingw32/8.2.1/../../../../x86_64-w64-mingw32/lib/../lib/libmingwex.a(lib64_libmingwex_a-exp2l.o)
                0x0000000061500b20                exp2l
 .text          0x0000000061500b90       0x60 C:/msys64/mingw64/bin/../lib/gcc/x86_64-w64-mingw32/8.2.1/../../../../x86_64-w64-mingw32/lib/../lib/libmingwex.a(lib64_libmingwex_a-internal_logl.o)
                0x0000000061500ba0                __logl_internal
 .text          0x0000000061500bf0       0x70 C:/msys64/mingw64/bin/../lib/gcc/x86_64-w64-mingw32/8.2.1/../../../../x86_64-w64-mingw32/lib/../lib/libmingwex.a(lib64_libmingwex_a-log2l.o)
                0x0000000061500c00                log2l
 .text          0x0000000061500c60      0x910 C:/msys64/mingw64/bin/../lib/gcc/x86_64-w64-mingw32/8.2.1/../../../../x86_64-w64-mingw32/lib/../lib/libmingwex.a(lib64_libmingwex_a-gethex.o)
                0x0000000061500c60                __gethex_D2A
 .text          0x0000000061501570      0x150 C:/msys64/mingw64/bin/../lib/gcc/x86_64-w64-mingw32/8.2.1/../../../../x86_64-w64-mingw32/lib/../lib/libmingwex.a(lib64_libmingwex_a-gmisc.o)
                0x0000000061501570                __rshift_D2A
                0x0000000061501670                __trailz_D2A
 .text          0x00000000615016c0       0xa0 C:/msys64/mingw64/bin/../lib/gcc/x86_64-w64-mingw32/8.2.1/../../../../x86_64-w64-mingw32/lib/../lib/libmingwex.a(lib64_libmingwex_a-hd_init.o)
                0x00000000615016c0                __mingw_hexdig_init_D2A
 .text          0x0000000061501760      0x3a0 C:/msys64/mingw64/bin/../lib/gcc/x86_64-w64-mingw32/8.2.1/../../../../x86_64-w64-mingw32/lib/../lib/libmingwex.a(lib64_libmingwex_a-hexnan.o)
                0x0000000061501760                __hexnan_D2A
 .text          0x0000000061501b00      0xb30 C:/msys64/mingw64/bin/../lib/gcc/x86_64-w64-mingw32/8.2.1/../../../../x86_64-w64-mingw32/lib/../lib/libmingwex.a(lib64_libmingwex_a-misc.o)
                0x0000000061501c20                __Balloc_D2A
                0x0000000061501d20                __Bfree_D2A
                0x0000000061501d90                __multadd_D2A
                0x0000000061501e40                __i2b_D2A
                0x0000000061501e70                __mult_D2A
                0x0000000061501fa0                __pow5mult_D2A
                0x0000000061502120                __lshift_D2A
                0x0000000061502220                __cmp_D2A
                0x0000000061502260                __diff_D2A
                0x00000000615023d0                __b2d_D2A
                0x00000000615024e0                __d2b_D2A
                0x0000000061502600                __strcp_D2A
 .text          0x0000000061502630      0x300 C:/msys64/mingw64/bin/../lib/gcc/x86_64-w64-mingw32/8.2.1/../../../../x86_64-w64-mingw32/lib/../lib/libmingwex.a(lib64_libmingwex_a-smisc.o)
                0x0000000061502630                __s2b_D2A
                0x0000000061502730                __ratio_D2A
                0x00000000615027e0                __match_D2A
                0x0000000061502830                __copybits_D2A
                0x0000000061502890                __any_on_D2A
 .text          0x0000000061502930        0x8 C:/msys64/mingw64/bin/../lib/gcc/x86_64-w64-mingw32/8.2.1/../../../../x86_64-w64-mingw32/lib/../lib/libmsvcrt.a(dieybs01325.o)
                0x0000000061502930                wcstombs
 .text          0x0000000061502938        0x8 C:/msys64/mingw64/bin/../lib/gcc/x86_64-w64-mingw32/8.2.1/../../../../x86_64-w64-mingw32/lib/../lib/libmsvcrt.a(dieybs01305.o)
                0x0000000061502938                wcscpy
 .text          0x0000000061502940        0x8 C:/msys64/mingw64/bin/../lib/gcc/x86_64-w64-mingw32/8.2.1/../../../../x86_64-w64-mingw32/lib/../lib/libmsvcrt.a(dieybs01288.o)
                0x0000000061502940                vfprintf
 .text          0x0000000061502948        0x8 C:/msys64/mingw64/bin/../lib/gcc/x86_64-w64-mingw32/8.2.1/../../../../x86_64-w64-mingw32/lib/../lib/libmsvcrt.a(dieybs01286.o)
                0x0000000061502948                ungetc
 .text          0x0000000061502950        0x8 C:/msys64/mingw64/bin/../lib/gcc/x86_64-w64-mingw32/8.2.1/../../../../x86_64-w64-mingw32/lib/../lib/libmsvcrt.a(dieybs01282.o)
                0x0000000061502950                tolower
 .text          0x0000000061502958        0x8 C:/msys64/mingw64/bin/../lib/gcc/x86_64-w64-mingw32/8.2.1/../../../../x86_64-w64-mingw32/lib/../lib/libmsvcrt.a(dieybs01280.o)
                0x0000000061502958                tmpnam
 .text          0x0000000061502960        0x8 C:/msys64/mingw64/bin/../lib/gcc/x86_64-w64-mingw32/8.2.1/../../../../x86_64-w64-mingw32/lib/../lib/libmsvcrt.a(dieybs01278.o)
                0x0000000061502960                tmpfile
 .text          0x0000000061502968        0x8 C:/msys64/mingw64/bin/../lib/gcc/x86_64-w64-mingw32/8.2.1/../../../../x86_64-w64-mingw32/lib/../lib/libmsvcrt.a(dieybs01277.o)
                0x0000000061502968                tanh
 .text          0x0000000061502970        0x8 C:/msys64/mingw64/bin/../lib/gcc/x86_64-w64-mingw32/8.2.1/../../../../x86_64-w64-mingw32/lib/../lib/libmsvcrt.a(dieybs01275.o)
                0x0000000061502970                tan
 .text          0x0000000061502978        0x8 C:/msys64/mingw64/bin/../lib/gcc/x86_64-w64-mingw32/8.2.1/../../../../x86_64-w64-mingw32/lib/../lib/libmsvcrt.a(dieybs01274.o)
                0x0000000061502978                system
 .text          0x0000000061502980        0x8 C:/msys64/mingw64/bin/../lib/gcc/x86_64-w64-mingw32/8.2.1/../../../../x86_64-w64-mingw32/lib/../lib/libmsvcrt.a(dieybs01268.o)
                0x0000000061502980                strtoul
 .text          0x0000000061502988        0x8 C:/msys64/mingw64/bin/../lib/gcc/x86_64-w64-mingw32/8.2.1/../../../../x86_64-w64-mingw32/lib/../lib/libmsvcrt.a(dieybs01267.o)
                0x0000000061502988                strtol
 .text          0x0000000061502990        0x8 C:/msys64/mingw64/bin/../lib/gcc/x86_64-w64-mingw32/8.2.1/../../../../x86_64-w64-mingw32/lib/../lib/libmsvcrt.a(dieybs01263.o)
                0x0000000061502990                strstr
 .text          0x0000000061502998        0x8 C:/msys64/mingw64/bin/../lib/gcc/x86_64-w64-mingw32/8.2.1/../../../../x86_64-w64-mingw32/lib/../lib/libmsvcrt.a(dieybs01261.o)
                0x0000000061502998                strrchr
 .text          0x00000000615029a0        0x8 C:/msys64/mingw64/bin/../lib/gcc/x86_64-w64-mingw32/8.2.1/../../../../x86_64-w64-mingw32/lib/../lib/libmsvcrt.a(dieybs01258.o)
                0x00000000615029a0                strncpy
 .text          0x00000000615029a8        0x8 C:/msys64/mingw64/bin/../lib/gcc/x86_64-w64-mingw32/8.2.1/../../../../x86_64-w64-mingw32/lib/../lib/libmsvcrt.a(dieybs01257.o)
                0x00000000615029a8                strncmp
 .text          0x00000000615029b0        0x8 C:/msys64/mingw64/bin/../lib/gcc/x86_64-w64-mingw32/8.2.1/../../../../x86_64-w64-mingw32/lib/../lib/libmsvcrt.a(dieybs01254.o)
                0x00000000615029b0                strlen
 .text          0x00000000615029b8        0x8 C:/msys64/mingw64/bin/../lib/gcc/x86_64-w64-mingw32/8.2.1/../../../../x86_64-w64-mingw32/lib/../lib/libmsvcrt.a(dieybs01253.o)
                0x00000000615029b8                strftime
 .text          0x00000000615029c0        0x8 C:/msys64/mingw64/bin/../lib/gcc/x86_64-w64-mingw32/8.2.1/../../../../x86_64-w64-mingw32/lib/../lib/libmsvcrt.a(dieybs01251.o)
                0x00000000615029c0                strerror
 .text          0x00000000615029c8        0x8 C:/msys64/mingw64/bin/../lib/gcc/x86_64-w64-mingw32/8.2.1/../../../../x86_64-w64-mingw32/lib/../lib/libmsvcrt.a(dieybs01248.o)
                0x00000000615029c8                strcpy
 .text          0x00000000615029d0        0x8 C:/msys64/mingw64/bin/../lib/gcc/x86_64-w64-mingw32/8.2.1/../../../../x86_64-w64-mingw32/lib/../lib/libmsvcrt.a(dieybs01246.o)
                0x00000000615029d0                strcmp
 .text          0x00000000615029d8        0x8 C:/msys64/mingw64/bin/../lib/gcc/x86_64-w64-mingw32/8.2.1/../../../../x86_64-w64-mingw32/lib/../lib/libmsvcrt.a(dieybs01245.o)
                0x00000000615029d8                strchr
 .text          0x00000000615029e0        0x8 C:/msys64/mingw64/bin/../lib/gcc/x86_64-w64-mingw32/8.2.1/../../../../x86_64-w64-mingw32/lib/../lib/libmsvcrt.a(dieybs01241.o)
                0x00000000615029e0                sscanf
 .text          0x00000000615029e8        0x8 C:/msys64/mingw64/bin/../lib/gcc/x86_64-w64-mingw32/8.2.1/../../../../x86_64-w64-mingw32/lib/../lib/libmsvcrt.a(dieybs01237.o)
                0x00000000615029e8                sprintf
 .text          0x00000000615029f0        0x8 C:/msys64/mingw64/bin/../lib/gcc/x86_64-w64-mingw32/8.2.1/../../../../x86_64-w64-mingw32/lib/../lib/libmsvcrt.a(dieybs01235.o)
                0x00000000615029f0                sinh
 .text          0x00000000615029f8        0x8 C:/msys64/mingw64/bin/../lib/gcc/x86_64-w64-mingw32/8.2.1/../../../../x86_64-w64-mingw32/lib/../lib/libmsvcrt.a(dieybs01232.o)
                0x00000000615029f8                signal
 .text          0x0000000061502a00        0x8 C:/msys64/mingw64/bin/../lib/gcc/x86_64-w64-mingw32/8.2.1/../../../../x86_64-w64-mingw32/lib/../lib/libmsvcrt.a(dieybs01231.o)
                0x0000000061502a00                setvbuf
 .text          0x0000000061502a08        0x8 C:/msys64/mingw64/bin/../lib/gcc/x86_64-w64-mingw32/8.2.1/../../../../x86_64-w64-mingw32/lib/../lib/libmsvcrt.a(dieybs01230.o)
                0x0000000061502a08                setlocale
 .text          0x0000000061502a10        0x8 C:/msys64/mingw64/bin/../lib/gcc/x86_64-w64-mingw32/8.2.1/../../../../x86_64-w64-mingw32/lib/../lib/libmsvcrt.a(dieybs01225.o)
                0x0000000061502a10                rewind
 .text          0x0000000061502a18        0x8 C:/msys64/mingw64/bin/../lib/gcc/x86_64-w64-mingw32/8.2.1/../../../../x86_64-w64-mingw32/lib/../lib/libmsvcrt.a(dieybs01224.o)
                0x0000000061502a18                rename
 .text          0x0000000061502a20        0x8 C:/msys64/mingw64/bin/../lib/gcc/x86_64-w64-mingw32/8.2.1/../../../../x86_64-w64-mingw32/lib/../lib/libmsvcrt.a(dieybs01223.o)
                0x0000000061502a20                remove
 .text          0x0000000061502a28        0x8 C:/msys64/mingw64/bin/../lib/gcc/x86_64-w64-mingw32/8.2.1/../../../../x86_64-w64-mingw32/lib/../lib/libmsvcrt.a(dieybs01222.o)
                0x0000000061502a28                realloc
 .text          0x0000000061502a30        0x8 C:/msys64/mingw64/bin/../lib/gcc/x86_64-w64-mingw32/8.2.1/../../../../x86_64-w64-mingw32/lib/../lib/libmsvcrt.a(dieybs01220.o)
                0x0000000061502a30                raise
 .text          0x0000000061502a38        0x8 C:/msys64/mingw64/bin/../lib/gcc/x86_64-w64-mingw32/8.2.1/../../../../x86_64-w64-mingw32/lib/../lib/libmsvcrt.a(dieybs01218.o)
                0x0000000061502a38                qsort
 .text          0x0000000061502a40        0x8 C:/msys64/mingw64/bin/../lib/gcc/x86_64-w64-mingw32/8.2.1/../../../../x86_64-w64-mingw32/lib/../lib/libmsvcrt.a(dieybs01215.o)
                0x0000000061502a40                puts
 .text          0x0000000061502a48        0x8 C:/msys64/mingw64/bin/../lib/gcc/x86_64-w64-mingw32/8.2.1/../../../../x86_64-w64-mingw32/lib/../lib/libmsvcrt.a(dieybs01214.o)
                0x0000000061502a48                putchar
 .text          0x0000000061502a50        0x8 C:/msys64/mingw64/bin/../lib/gcc/x86_64-w64-mingw32/8.2.1/../../../../x86_64-w64-mingw32/lib/../lib/libmsvcrt.a(dieybs01213.o)
                0x0000000061502a50                putc
 .text          0x0000000061502a58        0x8 C:/msys64/mingw64/bin/../lib/gcc/x86_64-w64-mingw32/8.2.1/../../../../x86_64-w64-mingw32/lib/../lib/libmsvcrt.a(dieybs01211.o)
                0x0000000061502a58                printf
 .text          0x0000000061502a60        0x8 C:/msys64/mingw64/bin/../lib/gcc/x86_64-w64-mingw32/8.2.1/../../../../x86_64-w64-mingw32/lib/../lib/libmsvcrt.a(dieybs01204.o)
                0x0000000061502a60                memset
 .text          0x0000000061502a68        0x8 C:/msys64/mingw64/bin/../lib/gcc/x86_64-w64-mingw32/8.2.1/../../../../x86_64-w64-mingw32/lib/../lib/libmsvcrt.a(dieybs01203.o)
                0x0000000061502a68                memmove
 .text          0x0000000061502a70        0x8 C:/msys64/mingw64/bin/../lib/gcc/x86_64-w64-mingw32/8.2.1/../../../../x86_64-w64-mingw32/lib/../lib/libmsvcrt.a(dieybs01202.o)
                0x0000000061502a70                memcpy
 .text          0x0000000061502a78        0x8 C:/msys64/mingw64/bin/../lib/gcc/x86_64-w64-mingw32/8.2.1/../../../../x86_64-w64-mingw32/lib/../lib/libmsvcrt.a(dieybs01201.o)
                0x0000000061502a78                memcmp
 .text          0x0000000061502a80        0x8 C:/msys64/mingw64/bin/../lib/gcc/x86_64-w64-mingw32/8.2.1/../../../../x86_64-w64-mingw32/lib/../lib/libmsvcrt.a(dieybs01200.o)
                0x0000000061502a80                memchr
 .text          0x0000000061502a88        0x8 C:/msys64/mingw64/bin/../lib/gcc/x86_64-w64-mingw32/8.2.1/../../../../x86_64-w64-mingw32/lib/../lib/libmsvcrt.a(dieybs01193.o)
                0x0000000061502a88                malloc
 .text          0x0000000061502a90        0x8 C:/msys64/mingw64/bin/../lib/gcc/x86_64-w64-mingw32/8.2.1/../../../../x86_64-w64-mingw32/lib/../lib/libmsvcrt.a(dieybs01189.o)
                0x0000000061502a90                log10
 .text          0x0000000061502a98        0x8 C:/msys64/mingw64/bin/../lib/gcc/x86_64-w64-mingw32/8.2.1/../../../../x86_64-w64-mingw32/lib/../lib/libmsvcrt.a(dieybs01187.o)
                0x0000000061502a98                localtime
 .text          0x0000000061502aa0        0x8 C:/msys64/mingw64/bin/../lib/gcc/x86_64-w64-mingw32/8.2.1/../../../../x86_64-w64-mingw32/lib/../lib/libmsvcrt.a(dieybs01186.o)
                0x0000000061502aa0                localeconv
 .text          0x0000000061502aa8        0x8 C:/msys64/mingw64/bin/../lib/gcc/x86_64-w64-mingw32/8.2.1/../../../../x86_64-w64-mingw32/lib/../lib/libmsvcrt.a(dieybs01182.o)
                0x0000000061502aa8                isxdigit
 .text          0x0000000061502ab0        0x8 C:/msys64/mingw64/bin/../lib/gcc/x86_64-w64-mingw32/8.2.1/../../../../x86_64-w64-mingw32/lib/../lib/libmsvcrt.a(dieybs01168.o)
                0x0000000061502ab0                isupper
 .text          0x0000000061502ab8        0x8 C:/msys64/mingw64/bin/../lib/gcc/x86_64-w64-mingw32/8.2.1/../../../../x86_64-w64-mingw32/lib/../lib/libmsvcrt.a(dieybs01167.o)
                0x0000000061502ab8                isspace
 .text          0x0000000061502ac0        0x8 C:/msys64/mingw64/bin/../lib/gcc/x86_64-w64-mingw32/8.2.1/../../../../x86_64-w64-mingw32/lib/../lib/libmsvcrt.a(dieybs01166.o)
                0x0000000061502ac0                ispunct
 .text          0x0000000061502ac8        0x8 C:/msys64/mingw64/bin/../lib/gcc/x86_64-w64-mingw32/8.2.1/../../../../x86_64-w64-mingw32/lib/../lib/libmsvcrt.a(dieybs01165.o)
                0x0000000061502ac8                isprint
 .text          0x0000000061502ad0        0x8 C:/msys64/mingw64/bin/../lib/gcc/x86_64-w64-mingw32/8.2.1/../../../../x86_64-w64-mingw32/lib/../lib/libmsvcrt.a(dieybs01164.o)
                0x0000000061502ad0                islower
 .text          0x0000000061502ad8        0x8 C:/msys64/mingw64/bin/../lib/gcc/x86_64-w64-mingw32/8.2.1/../../../../x86_64-w64-mingw32/lib/../lib/libmsvcrt.a(dieybs01162.o)
                0x0000000061502ad8                isgraph
 .text          0x0000000061502ae0        0x8 C:/msys64/mingw64/bin/../lib/gcc/x86_64-w64-mingw32/8.2.1/../../../../x86_64-w64-mingw32/lib/../lib/libmsvcrt.a(dieybs01161.o)
                0x0000000061502ae0                isdigit
 .text          0x0000000061502ae8        0x8 C:/msys64/mingw64/bin/../lib/gcc/x86_64-w64-mingw32/8.2.1/../../../../x86_64-w64-mingw32/lib/../lib/libmsvcrt.a(dieybs01160.o)
                0x0000000061502ae8                iscntrl
 .text          0x0000000061502af0        0x8 C:/msys64/mingw64/bin/../lib/gcc/x86_64-w64-mingw32/8.2.1/../../../../x86_64-w64-mingw32/lib/../lib/libmsvcrt.a(dieybs01159.o)
                0x0000000061502af0                isalpha
 .text          0x0000000061502af8        0x8 C:/msys64/mingw64/bin/../lib/gcc/x86_64-w64-mingw32/8.2.1/../../../../x86_64-w64-mingw32/lib/../lib/libmsvcrt.a(dieybs01158.o)
                0x0000000061502af8                isalnum
 .text          0x0000000061502b00        0x8 C:/msys64/mingw64/bin/../lib/gcc/x86_64-w64-mingw32/8.2.1/../../../../x86_64-w64-mingw32/lib/../lib/libmsvcrt.a(dieybs01150.o)
                0x0000000061502b00                getenv
 .text          0x0000000061502b08        0x8 C:/msys64/mingw64/bin/../lib/gcc/x86_64-w64-mingw32/8.2.1/../../../../x86_64-w64-mingw32/lib/../lib/libmsvcrt.a(dieybs01148.o)
                0x0000000061502b08                getc
 .text          0x0000000061502b10        0x8 C:/msys64/mingw64/bin/../lib/gcc/x86_64-w64-mingw32/8.2.1/../../../../x86_64-w64-mingw32/lib/../lib/libmsvcrt.a(dieybs01145.o)
                0x0000000061502b10                fwrite
 .text          0x0000000061502b18        0x8 C:/msys64/mingw64/bin/../lib/gcc/x86_64-w64-mingw32/8.2.1/../../../../x86_64-w64-mingw32/lib/../lib/libmsvcrt.a(dieybs01143.o)
                0x0000000061502b18                fwprintf
 .text          0x0000000061502b20        0x8 C:/msys64/mingw64/bin/../lib/gcc/x86_64-w64-mingw32/8.2.1/../../../../x86_64-w64-mingw32/lib/../lib/libmsvcrt.a(dieybs01142.o)
                0x0000000061502b20                ftell
 .text          0x0000000061502b28        0x8 C:/msys64/mingw64/bin/../lib/gcc/x86_64-w64-mingw32/8.2.1/../../../../x86_64-w64-mingw32/lib/../lib/libmsvcrt.a(dieybs01141.o)
                0x0000000061502b28                fsetpos
 .text          0x0000000061502b30        0x8 C:/msys64/mingw64/bin/../lib/gcc/x86_64-w64-mingw32/8.2.1/../../../../x86_64-w64-mingw32/lib/../lib/libmsvcrt.a(dieybs01140.o)
                0x0000000061502b30                fseek
 .text          0x0000000061502b38        0x8 C:/msys64/mingw64/bin/../lib/gcc/x86_64-w64-mingw32/8.2.1/../../../../x86_64-w64-mingw32/lib/../lib/libmsvcrt.a(dieybs01137.o)
                0x0000000061502b38                fscanf
 .text          0x0000000061502b40        0x8 C:/msys64/mingw64/bin/../lib/gcc/x86_64-w64-mingw32/8.2.1/../../../../x86_64-w64-mingw32/lib/../lib/libmsvcrt.a(dieybs01136.o)
                0x0000000061502b40                frexp
 .text          0x0000000061502b48        0x8 C:/msys64/mingw64/bin/../lib/gcc/x86_64-w64-mingw32/8.2.1/../../../../x86_64-w64-mingw32/lib/../lib/libmsvcrt.a(dieybs01133.o)
                0x0000000061502b48                free
 .text          0x0000000061502b50        0x8 C:/msys64/mingw64/bin/../lib/gcc/x86_64-w64-mingw32/8.2.1/../../../../x86_64-w64-mingw32/lib/../lib/libmsvcrt.a(dieybs01132.o)
                0x0000000061502b50                fread
 .text          0x0000000061502b58        0x8 C:/msys64/mingw64/bin/../lib/gcc/x86_64-w64-mingw32/8.2.1/../../../../x86_64-w64-mingw32/lib/../lib/libmsvcrt.a(dieybs01129.o)
                0x0000000061502b58                fputs
 .text          0x0000000061502b60        0x8 C:/msys64/mingw64/bin/../lib/gcc/x86_64-w64-mingw32/8.2.1/../../../../x86_64-w64-mingw32/lib/../lib/libmsvcrt.a(dieybs01128.o)
                0x0000000061502b60                fputc
 .text          0x0000000061502b68        0x8 C:/msys64/mingw64/bin/../lib/gcc/x86_64-w64-mingw32/8.2.1/../../../../x86_64-w64-mingw32/lib/../lib/libmsvcrt.a(dieybs01126.o)
                0x0000000061502b68                fprintf
 .text          0x0000000061502b70        0x8 C:/msys64/mingw64/bin/../lib/gcc/x86_64-w64-mingw32/8.2.1/../../../../x86_64-w64-mingw32/lib/../lib/libmsvcrt.a(dieybs01124.o)
                0x0000000061502b70                fopen
 .text          0x0000000061502b78        0x8 C:/msys64/mingw64/bin/../lib/gcc/x86_64-w64-mingw32/8.2.1/../../../../x86_64-w64-mingw32/lib/../lib/libmsvcrt.a(dieybs01117.o)
                0x0000000061502b78                fgets
 .text          0x0000000061502b80        0x8 C:/msys64/mingw64/bin/../lib/gcc/x86_64-w64-mingw32/8.2.1/../../../../x86_64-w64-mingw32/lib/../lib/libmsvcrt.a(dieybs01116.o)
                0x0000000061502b80                fgetpos
 .text          0x0000000061502b88        0x8 C:/msys64/mingw64/bin/../lib/gcc/x86_64-w64-mingw32/8.2.1/../../../../x86_64-w64-mingw32/lib/../lib/libmsvcrt.a(dieybs01115.o)
                0x0000000061502b88                fgetc
 .text          0x0000000061502b90        0x8 C:/msys64/mingw64/bin/../lib/gcc/x86_64-w64-mingw32/8.2.1/../../../../x86_64-w64-mingw32/lib/../lib/libmsvcrt.a(dieybs01114.o)
                0x0000000061502b90                fflush
 .text          0x0000000061502b98        0x8 C:/msys64/mingw64/bin/../lib/gcc/x86_64-w64-mingw32/8.2.1/../../../../x86_64-w64-mingw32/lib/../lib/libmsvcrt.a(dieybs01113.o)
                0x0000000061502b98                ferror
 .text          0x0000000061502ba0        0x8 C:/msys64/mingw64/bin/../lib/gcc/x86_64-w64-mingw32/8.2.1/../../../../x86_64-w64-mingw32/lib/../lib/libmsvcrt.a(dieybs01112.o)
                0x0000000061502ba0                feof
 .text          0x0000000061502ba8        0x8 C:/msys64/mingw64/bin/../lib/gcc/x86_64-w64-mingw32/8.2.1/../../../../x86_64-w64-mingw32/lib/../lib/libmsvcrt.a(dieybs01111.o)
                0x0000000061502ba8                fclose
 .text          0x0000000061502bb0        0x8 C:/msys64/mingw64/bin/../lib/gcc/x86_64-w64-mingw32/8.2.1/../../../../x86_64-w64-mingw32/lib/../lib/libmsvcrt.a(dieybs01107.o)
                0x0000000061502bb0                exit
 .text          0x0000000061502bb8        0x8 C:/msys64/mingw64/bin/../lib/gcc/x86_64-w64-mingw32/8.2.1/../../../../x86_64-w64-mingw32/lib/../lib/libmsvcrt.a(dieybs01102.o)
                0x0000000061502bb8                cosh
 .text          0x0000000061502bc0        0x8 C:/msys64/mingw64/bin/../lib/gcc/x86_64-w64-mingw32/8.2.1/../../../../x86_64-w64-mingw32/lib/../lib/libmsvcrt.a(dieybs01099.o)
                0x0000000061502bc0                clock
 .text          0x0000000061502bc8        0x8 C:/msys64/mingw64/bin/../lib/gcc/x86_64-w64-mingw32/8.2.1/../../../../x86_64-w64-mingw32/lib/../lib/libmsvcrt.a(dieybs01097.o)
                0x0000000061502bc8                clearerr
 .text          0x0000000061502bd0        0x8 C:/msys64/mingw64/bin/../lib/gcc/x86_64-w64-mingw32/8.2.1/../../../../x86_64-w64-mingw32/lib/../lib/libmsvcrt.a(dieybs01094.o)
                0x0000000061502bd0                calloc
 .text          0x0000000061502bd8        0x8 C:/msys64/mingw64/bin/../lib/gcc/x86_64-w64-mingw32/8.2.1/../../../../x86_64-w64-mingw32/lib/../lib/libmsvcrt.a(dieybs01090.o)
                0x0000000061502bd8                atoi
 .text          0x0000000061502be0        0x8 C:/msys64/mingw64/bin/../lib/gcc/x86_64-w64-mingw32/8.2.1/../../../../x86_64-w64-mingw32/lib/../lib/libmsvcrt.a(dieybs01084.o)
                0x0000000061502be0                atan
 .text          0x0000000061502be8        0x8 C:/msys64/mingw64/bin/../lib/gcc/x86_64-w64-mingw32/8.2.1/../../../../x86_64-w64-mingw32/lib/../lib/libmsvcrt.a(dieybs01082.o)
                0x0000000061502be8                asin
 .text          0x0000000061502bf0        0x8 C:/msys64/mingw64/bin/../lib/gcc/x86_64-w64-mingw32/8.2.1/../../../../x86_64-w64-mingw32/lib/../lib/libmsvcrt.a(dieybs01079.o)
                0x0000000061502bf0                acos
 .text          0x0000000061502bf8        0x8 C:/msys64/mingw64/bin/../lib/gcc/x86_64-w64-mingw32/8.2.1/../../../../x86_64-w64-mingw32/lib/../lib/libmsvcrt.a(dieybs01077.o)
                0x0000000061502bf8                abort
 .text          0x0000000061502c00        0x8 C:/msys64/mingw64/bin/../lib/gcc/x86_64-w64-mingw32/8.2.1/../../../../x86_64-w64-mingw32/lib/../lib/libmsvcrt.a(dieybs01031.o)
                0x0000000061502c00                _write
 .text          0x0000000061502c08        0x8 C:/msys64/mingw64/bin/../lib/gcc/x86_64-w64-mingw32/8.2.1/../../../../x86_64-w64-mingw32/lib/../lib/libmsvcrt.a(dieybs00895.o)
                0x0000000061502c08                _vsnprintf
 .text          0x0000000061502c10        0x8 C:/msys64/mingw64/bin/../lib/gcc/x86_64-w64-mingw32/8.2.1/../../../../x86_64-w64-mingw32/lib/../lib/libmsvcrt.a(dieybs00863.o)
                0x0000000061502c10                _unlock
 .text          0x0000000061502c18        0x8 C:/msys64/mingw64/bin/../lib/gcc/x86_64-w64-mingw32/8.2.1/../../../../x86_64-w64-mingw32/lib/../lib/libmsvcrt.a(dieybs00834.o)
                0x0000000061502c18                _time64
 .text          0x0000000061502c20        0x8 C:/msys64/mingw64/bin/../lib/gcc/x86_64-w64-mingw32/8.2.1/../../../../x86_64-w64-mingw32/lib/../lib/libmsvcrt.a(dieybs00789.o)
                0x0000000061502c20                _strnicmp
 .text          0x0000000061502c28        0x8 C:/msys64/mingw64/bin/../lib/gcc/x86_64-w64-mingw32/8.2.1/../../../../x86_64-w64-mingw32/lib/../lib/libmsvcrt.a(dieybs00728.o)
                0x0000000061502c28                _snwprintf
 .text          0x0000000061502c30        0x8 C:/msys64/mingw64/bin/../lib/gcc/x86_64-w64-mingw32/8.2.1/../../../../x86_64-w64-mingw32/lib/../lib/libmsvcrt.a(dieybs00714.o)
                0x0000000061502c30                _setmode
 .text          0x0000000061502c38        0x8 C:/msys64/mingw64/bin/../lib/gcc/x86_64-w64-mingw32/8.2.1/../../../../x86_64-w64-mingw32/lib/../lib/libmsvcrt.a(dieybs00663.o)
                0x0000000061502c38                _popen
 .text          0x0000000061502c40        0x8 C:/msys64/mingw64/bin/../lib/gcc/x86_64-w64-mingw32/8.2.1/../../../../x86_64-w64-mingw32/lib/../lib/libmsvcrt.a(dieybs00659.o)
                0x0000000061502c40                _pclose
 .text          0x0000000061502c48        0x8 C:/msys64/mingw64/bin/../lib/gcc/x86_64-w64-mingw32/8.2.1/../../../../x86_64-w64-mingw32/lib/../lib/libmsvcrt.a(dieybs00651.o)
                0x0000000061502c48                _onexit
 .text          0x0000000061502c50        0x8 C:/msys64/mingw64/bin/../lib/gcc/x86_64-w64-mingw32/8.2.1/../../../../x86_64-w64-mingw32/lib/../lib/libmsvcrt.a(dieybs00646.o)
                0x0000000061502c50                _mktime64
 .text          0x0000000061502c58        0x8 C:/msys64/mingw64/bin/../lib/gcc/x86_64-w64-mingw32/8.2.1/../../../../x86_64-w64-mingw32/lib/../lib/libmsvcrt.a(dieybs00489.o)
                0x0000000061502c58                _lseeki64
 .text          0x0000000061502c60        0x8 C:/msys64/mingw64/bin/../lib/gcc/x86_64-w64-mingw32/8.2.1/../../../../x86_64-w64-mingw32/lib/../lib/libmsvcrt.a(dieybs00479.o)
                0x0000000061502c60                _lock
 .text          0x0000000061502c68        0x8 C:/msys64/mingw64/bin/../lib/gcc/x86_64-w64-mingw32/8.2.1/../../../../x86_64-w64-mingw32/lib/../lib/libmsvcrt.a(dieybs00478.o)
                0x0000000061502c68                _localtime64
 .text          0x0000000061502c70        0x8 C:/msys64/mingw64/bin/../lib/gcc/x86_64-w64-mingw32/8.2.1/../../../../x86_64-w64-mingw32/lib/../lib/libmsvcrt.a(dieybs00373.o)
                0x0000000061502c70                _isatty
 .text          0x0000000061502c78        0x8 C:/msys64/mingw64/bin/../lib/gcc/x86_64-w64-mingw32/8.2.1/../../../../x86_64-w64-mingw32/lib/../lib/libmsvcrt.a(dieybs00369.o)
                0x0000000061502c78                _initterm
 .text          0x0000000061502c80        0x8 C:/msys64/mingw64/bin/../lib/gcc/x86_64-w64-mingw32/8.2.1/../../../../x86_64-w64-mingw32/lib/../lib/libmsvcrt.a(dieybs00353.o)
                0x0000000061502c80                _gmtime64
 .text          0x0000000061502c88        0x0 C:/msys64/mingw64/bin/../lib/gcc/x86_64-w64-mingw32/8.2.1/../../../../x86_64-w64-mingw32/lib/../lib/libmsvcrt.a(dieybs00288.o)
 .text          0x0000000061502c88        0x8 C:/msys64/mingw64/bin/../lib/gcc/x86_64-w64-mingw32/8.2.1/../../../../x86_64-w64-mingw32/lib/../lib/libmsvcrt.a(dieybs00273.o)
                0x0000000061502c88                _fileno
 .text          0x0000000061502c90        0x8 C:/msys64/mingw64/bin/../lib/gcc/x86_64-w64-mingw32/8.2.1/../../../../x86_64-w64-mingw32/lib/../lib/libmsvcrt.a(dieybs00271.o)
                0x0000000061502c90                _filelengthi64
 .text          0x0000000061502c98        0x8 C:/msys64/mingw64/bin/../lib/gcc/x86_64-w64-mingw32/8.2.1/../../../../x86_64-w64-mingw32/lib/../lib/libmsvcrt.a(dieybs00254.o)
                0x0000000061502c98                _exit
 .text          0x0000000061502ca0        0x8 C:/msys64/mingw64/bin/../lib/gcc/x86_64-w64-mingw32/8.2.1/../../../../x86_64-w64-mingw32/lib/../lib/libmsvcrt.a(dieybs00237.o)
                0x0000000061502ca0                _errno
 .text          0x0000000061502ca8        0x8 C:/msys64/mingw64/bin/../lib/gcc/x86_64-w64-mingw32/8.2.1/../../../../x86_64-w64-mingw32/lib/../lib/libmsvcrt.a(dieybs00233.o)
                0x0000000061502ca8                _endthreadex
 .text          0x0000000061502cb0        0x8 C:/msys64/mingw64/bin/../lib/gcc/x86_64-w64-mingw32/8.2.1/../../../../x86_64-w64-mingw32/lib/../lib/libmsvcrt.a(dieybs00171.o)
                0x0000000061502cb0                _beginthreadex
 .text          0x0000000061502cb8        0x8 C:/msys64/mingw64/bin/../lib/gcc/x86_64-w64-mingw32/8.2.1/../../../../x86_64-w64-mingw32/lib/../lib/libmsvcrt.a(dieybs00162.o)
                0x0000000061502cb8                _atoi64
 .text          0x0000000061502cc0        0x8 C:/msys64/mingw64/bin/../lib/gcc/x86_64-w64-mingw32/8.2.1/../../../../x86_64-w64-mingw32/lib/../lib/libmsvcrt.a(dieybs00156.o)
                0x0000000061502cc0                _amsg_exit
 .text          0x0000000061502cc8        0x8 C:/msys64/mingw64/bin/../lib/gcc/x86_64-w64-mingw32/8.2.1/../../../../x86_64-w64-mingw32/lib/../lib/libmsvcrt.a(dieybs00142.o)
                0x0000000061502cc8                _access
 .text          0x0000000061502cd0        0x0 C:/msys64/mingw64/bin/../lib/gcc/x86_64-w64-mingw32/8.2.1/../../../../x86_64-w64-mingw32/lib/../lib/libmsvcrt.a(dieybs00122.o)
 .text          0x0000000061502cd0        0x8 C:/msys64/mingw64/bin/../lib/gcc/x86_64-w64-mingw32/8.2.1/../../../../x86_64-w64-mingw32/lib/../lib/libmsvcrt.a(dieybs00083.o)
                0x0000000061502cd0                __iob_func
 .text          0x0000000061502cd8        0x8 C:/msys64/mingw64/bin/../lib/gcc/x86_64-w64-mingw32/8.2.1/../../../../x86_64-w64-mingw32/lib/../lib/libmsvcrt.a(dieybs00079.o)
                0x0000000061502cd8                __doserrno
 .text          0x0000000061502ce0        0x8 C:/msys64/mingw64/bin/../lib/gcc/x86_64-w64-mingw32/8.2.1/../../../../x86_64-w64-mingw32/lib/../lib/libmsvcrt.a(dieybs00078.o)
                0x0000000061502ce0                __dllonexit
 .text          0x0000000061502ce8        0x8 C:/msys64/mingw64/bin/../lib/gcc/x86_64-w64-mingw32/8.2.1/../../../../x86_64-w64-mingw32/lib/../lib/libmsvcrt.a(dieybs00058.o)
                0x0000000061502ce8                __DestructExceptionObject
 .text          0x0000000061502cf0        0x0 C:/msys64/mingw64/bin/../lib/gcc/x86_64-w64-mingw32/8.2.1/../../../../x86_64-w64-mingw32/lib/../lib/libmsvcrt.a(dieybh.o)
 .text          0x0000000061502cf0        0x0 C:/msys64/mingw64/bin/../lib/gcc/x86_64-w64-mingw32/8.2.1/../../../../x86_64-w64-mingw32/lib/../lib/libmsvcrt.a(dieybt.o)
 .text          0x0000000061502cf0        0x8 C:/msys64/mingw64/bin/../lib/gcc/x86_64-w64-mingw32/8.2.1/../../../../x86_64-w64-mingw32/lib/../lib/libuser32.a(dyotbs00619.o)
                0x0000000061502cf0                MessageBoxW
 *fill*         0x0000000061502cf8        0x8 
 .text          0x0000000061502d00        0x0 C:/msys64/mingw64/bin/../lib/gcc/x86_64-w64-mingw32/8.2.1/../../../../x86_64-w64-mingw32/lib/../lib/libuser32.a(dyotbh.o)
 .text          0x0000000061502d00        0x0 C:/msys64/mingw64/bin/../lib/gcc/x86_64-w64-mingw32/8.2.1/../../../../x86_64-w64-mingw32/lib/../lib/libuser32.a(dyotbt.o)
 .text          0x0000000061502d00        0x8 C:/msys64/mingw64/bin/../lib/gcc/x86_64-w64-mingw32/8.2.1/../../../../x86_64-w64-mingw32/lib/../lib/libkernel32.a(dkzxbs01510.o)
                0x0000000061502d00                WriteFile
 .text          0x0000000061502d08        0x8 C:/msys64/mingw64/bin/../lib/gcc/x86_64-w64-mingw32/8.2.1/../../../../x86_64-w64-mingw32/lib/../lib/libkernel32.a(dkzxbs01490.o)
                0x0000000061502d08                WideCharToMultiByte
 .text          0x0000000061502d10        0x8 C:/msys64/mingw64/bin/../lib/gcc/x86_64-w64-mingw32/8.2.1/../../../../x86_64-w64-mingw32/lib/../lib/libkernel32.a(dkzxbs01454.o)
                0x0000000061502d10                WaitForSingleObjectEx
 .text          0x0000000061502d18        0x8 C:/msys64/mingw64/bin/../lib/gcc/x86_64-w64-mingw32/8.2.1/../../../../x86_64-w64-mingw32/lib/../lib/libkernel32.a(dkzxbs01453.o)
                0x0000000061502d18                WaitForSingleObject
 .text          0x0000000061502d20        0x8 C:/msys64/mingw64/bin/../lib/gcc/x86_64-w64-mingw32/8.2.1/../../../../x86_64-w64-mingw32/lib/../lib/libkernel32.a(dkzxbs01445.o)
                0x0000000061502d20                VirtualQuery
 .text          0x0000000061502d28        0x8 C:/msys64/mingw64/bin/../lib/gcc/x86_64-w64-mingw32/8.2.1/../../../../x86_64-w64-mingw32/lib/../lib/libkernel32.a(dkzxbs01443.o)
                0x0000000061502d28                VirtualProtect
 .text          0x0000000061502d30        0x8 C:/msys64/mingw64/bin/../lib/gcc/x86_64-w64-mingw32/8.2.1/../../../../x86_64-w64-mingw32/lib/../lib/libkernel32.a(dkzxbs01440.o)
                0x0000000061502d30                VirtualFree
 .text          0x0000000061502d38        0x8 C:/msys64/mingw64/bin/../lib/gcc/x86_64-w64-mingw32/8.2.1/../../../../x86_64-w64-mingw32/lib/../lib/libkernel32.a(dkzxbs01436.o)
                0x0000000061502d38                VirtualAlloc
 .text          0x0000000061502d40        0x8 C:/msys64/mingw64/bin/../lib/gcc/x86_64-w64-mingw32/8.2.1/../../../../x86_64-w64-mingw32/lib/../lib/libkernel32.a(dkzxbs01412.o)
                0x0000000061502d40                UnmapViewOfFile
 .text          0x0000000061502d48        0x8 C:/msys64/mingw64/bin/../lib/gcc/x86_64-w64-mingw32/8.2.1/../../../../x86_64-w64-mingw32/lib/../lib/libkernel32.a(dkzxbs01411.o)
                0x0000000061502d48                UnlockFileEx
 .text          0x0000000061502d50        0x8 C:/msys64/mingw64/bin/../lib/gcc/x86_64-w64-mingw32/8.2.1/../../../../x86_64-w64-mingw32/lib/../lib/libkernel32.a(dkzxbs01410.o)
                0x0000000061502d50                UnlockFile
 .text          0x0000000061502d58        0x8 C:/msys64/mingw64/bin/../lib/gcc/x86_64-w64-mingw32/8.2.1/../../../../x86_64-w64-mingw32/lib/../lib/libkernel32.a(dkzxbs01409.o)
                0x0000000061502d58                UnhandledExceptionFilter
 .text          0x0000000061502d60        0x8 C:/msys64/mingw64/bin/../lib/gcc/x86_64-w64-mingw32/8.2.1/../../../../x86_64-w64-mingw32/lib/../lib/libkernel32.a(dkzxbs01402.o)
                0x0000000061502d60                TryEnterCriticalSection
 .text          0x0000000061502d68        0x8 C:/msys64/mingw64/bin/../lib/gcc/x86_64-w64-mingw32/8.2.1/../../../../x86_64-w64-mingw32/lib/../lib/libkernel32.a(dkzxbs01395.o)
                0x0000000061502d68                TlsGetValue
 .text          0x0000000061502d70        0x8 C:/msys64/mingw64/bin/../lib/gcc/x86_64-w64-mingw32/8.2.1/../../../../x86_64-w64-mingw32/lib/../lib/libkernel32.a(dkzxbs01375.o)
                0x0000000061502d70                TerminateProcess
 .text          0x0000000061502d78        0x8 C:/msys64/mingw64/bin/../lib/gcc/x86_64-w64-mingw32/8.2.1/../../../../x86_64-w64-mingw32/lib/../lib/libkernel32.a(dkzxbs01371.o)
                0x0000000061502d78                SystemTimeToFileTime
 .text          0x0000000061502d80        0x8 C:/msys64/mingw64/bin/../lib/gcc/x86_64-w64-mingw32/8.2.1/../../../../x86_64-w64-mingw32/lib/../lib/libkernel32.a(dkzxbs01360.o)
                0x0000000061502d80                Sleep
 .text          0x0000000061502d88        0x8 C:/msys64/mingw64/bin/../lib/gcc/x86_64-w64-mingw32/8.2.1/../../../../x86_64-w64-mingw32/lib/../lib/libkernel32.a(dkzxbs01346.o)
                0x0000000061502d88                SetUnhandledExceptionFilter
 .text          0x0000000061502d90        0x8 C:/msys64/mingw64/bin/../lib/gcc/x86_64-w64-mingw32/8.2.1/../../../../x86_64-w64-mingw32/lib/../lib/libkernel32.a(dkzxbs01290.o)
                0x0000000061502d90                SetLastError
 .text          0x0000000061502d98        0x8 C:/msys64/mingw64/bin/../lib/gcc/x86_64-w64-mingw32/8.2.1/../../../../x86_64-w64-mingw32/lib/../lib/libkernel32.a(dkzxbs01276.o)
                0x0000000061502d98                SetFilePointer
 .text          0x0000000061502da0        0x8 C:/msys64/mingw64/bin/../lib/gcc/x86_64-w64-mingw32/8.2.1/../../../../x86_64-w64-mingw32/lib/../lib/libkernel32.a(dkzxbs01257.o)
                0x0000000061502da0                SetEndOfFile
 .text          0x0000000061502da8        0x8 C:/msys64/mingw64/bin/../lib/gcc/x86_64-w64-mingw32/8.2.1/../../../../x86_64-w64-mingw32/lib/../lib/libkernel32.a(dkzxbs01243.o)
                0x0000000061502da8                SetConsoleTextAttribute
 .text          0x0000000061502db0        0x8 C:/msys64/mingw64/bin/../lib/gcc/x86_64-w64-mingw32/8.2.1/../../../../x86_64-w64-mingw32/lib/../lib/libkernel32.a(dkzxbs01194.o)
                0x0000000061502db0                RtlVirtualUnwind
 .text          0x0000000061502db8        0x8 C:/msys64/mingw64/bin/../lib/gcc/x86_64-w64-mingw32/8.2.1/../../../../x86_64-w64-mingw32/lib/../lib/libkernel32.a(dkzxbs01193.o)
                0x0000000061502db8                RtlUnwindEx
 .text          0x0000000061502dc0        0x8 C:/msys64/mingw64/bin/../lib/gcc/x86_64-w64-mingw32/8.2.1/../../../../x86_64-w64-mingw32/lib/../lib/libkernel32.a(dkzxbs01187.o)
                0x0000000061502dc0                RtlLookupFunctionEntry
 .text          0x0000000061502dc8        0x8 C:/msys64/mingw64/bin/../lib/gcc/x86_64-w64-mingw32/8.2.1/../../../../x86_64-w64-mingw32/lib/../lib/libkernel32.a(dkzxbs01180.o)
                0x0000000061502dc8                RtlCaptureContext
 .text          0x0000000061502dd0        0x8 C:/msys64/mingw64/bin/../lib/gcc/x86_64-w64-mingw32/8.2.1/../../../../x86_64-w64-mingw32/lib/../lib/libkernel32.a(dkzxbs01179.o)
                0x0000000061502dd0                RtlAddFunctionTable
 .text          0x0000000061502dd8        0x8 C:/msys64/mingw64/bin/../lib/gcc/x86_64-w64-mingw32/8.2.1/../../../../x86_64-w64-mingw32/lib/../lib/libkernel32.a(dkzxbs01128.o)
                0x0000000061502dd8                ReadFile
 .text          0x0000000061502de0        0x8 C:/msys64/mingw64/bin/../lib/gcc/x86_64-w64-mingw32/8.2.1/../../../../x86_64-w64-mingw32/lib/../lib/libkernel32.a(dkzxbs01112.o)
                0x0000000061502de0                RaiseException
 .text          0x0000000061502de8        0x8 C:/msys64/mingw64/bin/../lib/gcc/x86_64-w64-mingw32/8.2.1/../../../../x86_64-w64-mingw32/lib/../lib/libkernel32.a(dkzxbs01093.o)
                0x0000000061502de8                QueryPerformanceCounter
 .text          0x0000000061502df0        0x8 C:/msys64/mingw64/bin/../lib/gcc/x86_64-w64-mingw32/8.2.1/../../../../x86_64-w64-mingw32/lib/../lib/libkernel32.a(dkzxbs01042.o)
                0x0000000061502df0                OutputDebugStringW
 .text          0x0000000061502df8        0x8 C:/msys64/mingw64/bin/../lib/gcc/x86_64-w64-mingw32/8.2.1/../../../../x86_64-w64-mingw32/lib/../lib/libkernel32.a(dkzxbs01041.o)
                0x0000000061502df8                OutputDebugStringA
 .text          0x0000000061502e00        0x8 C:/msys64/mingw64/bin/../lib/gcc/x86_64-w64-mingw32/8.2.1/../../../../x86_64-w64-mingw32/lib/../lib/libkernel32.a(dkzxbs00999.o)
                0x0000000061502e00                MultiByteToWideChar
 .text          0x0000000061502e08        0x8 C:/msys64/mingw64/bin/../lib/gcc/x86_64-w64-mingw32/8.2.1/../../../../x86_64-w64-mingw32/lib/../lib/libkernel32.a(dkzxbs00982.o)
                0x0000000061502e08                MapViewOfFile
 .text          0x0000000061502e10        0x8 C:/msys64/mingw64/bin/../lib/gcc/x86_64-w64-mingw32/8.2.1/../../../../x86_64-w64-mingw32/lib/../lib/libkernel32.a(dkzxbs00978.o)
                0x0000000061502e10                LockFileEx
 .text          0x0000000061502e18        0x8 C:/msys64/mingw64/bin/../lib/gcc/x86_64-w64-mingw32/8.2.1/../../../../x86_64-w64-mingw32/lib/../lib/libkernel32.a(dkzxbs00977.o)
                0x0000000061502e18                LockFile
 .text          0x0000000061502e20        0x8 C:/msys64/mingw64/bin/../lib/gcc/x86_64-w64-mingw32/8.2.1/../../../../x86_64-w64-mingw32/lib/../lib/libkernel32.a(dkzxbs00967.o)
                0x0000000061502e20                LocalFree
 .text          0x0000000061502e28        0x8 C:/msys64/mingw64/bin/../lib/gcc/x86_64-w64-mingw32/8.2.1/../../../../x86_64-w64-mingw32/lib/../lib/libkernel32.a(dkzxbs00957.o)
                0x0000000061502e28                LoadLibraryW
 .text          0x0000000061502e30        0x8 C:/msys64/mingw64/bin/../lib/gcc/x86_64-w64-mingw32/8.2.1/../../../../x86_64-w64-mingw32/lib/../lib/libkernel32.a(dkzxbs00955.o)
                0x0000000061502e30                LoadLibraryExA
 .text          0x0000000061502e38        0x8 C:/msys64/mingw64/bin/../lib/gcc/x86_64-w64-mingw32/8.2.1/../../../../x86_64-w64-mingw32/lib/../lib/libkernel32.a(dkzxbs00954.o)
                0x0000000061502e38                LoadLibraryA
 .text          0x0000000061502e40        0x8 C:/msys64/mingw64/bin/../lib/gcc/x86_64-w64-mingw32/8.2.1/../../../../x86_64-w64-mingw32/lib/../lib/libkernel32.a(dkzxbs00951.o)
                0x0000000061502e40                LeaveCriticalSection
 .text          0x0000000061502e48        0x8 C:/msys64/mingw64/bin/../lib/gcc/x86_64-w64-mingw32/8.2.1/../../../../x86_64-w64-mingw32/lib/../lib/libkernel32.a(dkzxbs00863.o)
                0x0000000061502e48                InitializeCriticalSection
 .text          0x0000000061502e50        0x8 C:/msys64/mingw64/bin/../lib/gcc/x86_64-w64-mingw32/8.2.1/../../../../x86_64-w64-mingw32/lib/../lib/libkernel32.a(dkzxbs00851.o)
                0x0000000061502e50                HeapValidate
 .text          0x0000000061502e58        0x8 C:/msys64/mingw64/bin/../lib/gcc/x86_64-w64-mingw32/8.2.1/../../../../x86_64-w64-mingw32/lib/../lib/libkernel32.a(dkzxbs00847.o)
                0x0000000061502e58                HeapSize
 .text          0x0000000061502e60        0x8 C:/msys64/mingw64/bin/../lib/gcc/x86_64-w64-mingw32/8.2.1/../../../../x86_64-w64-mingw32/lib/../lib/libkernel32.a(dkzxbs00845.o)
                0x0000000061502e60                HeapReAlloc
 .text          0x0000000061502e68        0x8 C:/msys64/mingw64/bin/../lib/gcc/x86_64-w64-mingw32/8.2.1/../../../../x86_64-w64-mingw32/lib/../lib/libkernel32.a(dkzxbs00841.o)
                0x0000000061502e68                HeapFree
 .text          0x0000000061502e70        0x8 C:/msys64/mingw64/bin/../lib/gcc/x86_64-w64-mingw32/8.2.1/../../../../x86_64-w64-mingw32/lib/../lib/libkernel32.a(dkzxbs00839.o)
                0x0000000061502e70                HeapDestroy
 .text          0x0000000061502e78        0x8 C:/msys64/mingw64/bin/../lib/gcc/x86_64-w64-mingw32/8.2.1/../../../../x86_64-w64-mingw32/lib/../lib/libkernel32.a(dkzxbs00837.o)
                0x0000000061502e78                HeapCreate
 .text          0x0000000061502e80        0x8 C:/msys64/mingw64/bin/../lib/gcc/x86_64-w64-mingw32/8.2.1/../../../../x86_64-w64-mingw32/lib/../lib/libkernel32.a(dkzxbs00836.o)
                0x0000000061502e80                HeapCompact
 .text          0x0000000061502e88        0x8 C:/msys64/mingw64/bin/../lib/gcc/x86_64-w64-mingw32/8.2.1/../../../../x86_64-w64-mingw32/lib/../lib/libkernel32.a(dkzxbs00835.o)
                0x0000000061502e88                HeapAlloc
 .text          0x0000000061502e90        0x8 C:/msys64/mingw64/bin/../lib/gcc/x86_64-w64-mingw32/8.2.1/../../../../x86_64-w64-mingw32/lib/../lib/libkernel32.a(dkzxbs00794.o)
                0x0000000061502e90                GetVersionExW
 .text          0x0000000061502e98        0x8 C:/msys64/mingw64/bin/../lib/gcc/x86_64-w64-mingw32/8.2.1/../../../../x86_64-w64-mingw32/lib/../lib/libkernel32.a(dkzxbs00793.o)
                0x0000000061502e98                GetVersionExA
 .text          0x0000000061502ea0        0x8 C:/msys64/mingw64/bin/../lib/gcc/x86_64-w64-mingw32/8.2.1/../../../../x86_64-w64-mingw32/lib/../lib/libkernel32.a(dkzxbs00781.o)
                0x0000000061502ea0                GetTimeZoneInformation
 .text          0x0000000061502ea8        0x8 C:/msys64/mingw64/bin/../lib/gcc/x86_64-w64-mingw32/8.2.1/../../../../x86_64-w64-mingw32/lib/../lib/libkernel32.a(dkzxbs00774.o)
                0x0000000061502ea8                GetTickCount
 .text          0x0000000061502eb0        0x8 C:/msys64/mingw64/bin/../lib/gcc/x86_64-w64-mingw32/8.2.1/../../../../x86_64-w64-mingw32/lib/../lib/libkernel32.a(dkzxbs00759.o)
                0x0000000061502eb0                GetTempPathW
 .text          0x0000000061502eb8        0x8 C:/msys64/mingw64/bin/../lib/gcc/x86_64-w64-mingw32/8.2.1/../../../../x86_64-w64-mingw32/lib/../lib/libkernel32.a(dkzxbs00758.o)
                0x0000000061502eb8                GetTempPathA
 .text          0x0000000061502ec0        0x8 C:/msys64/mingw64/bin/../lib/gcc/x86_64-w64-mingw32/8.2.1/../../../../x86_64-w64-mingw32/lib/../lib/libkernel32.a(dkzxbs00746.o)
                0x0000000061502ec0                GetSystemTimeAsFileTime
 .text          0x0000000061502ec8        0x8 C:/msys64/mingw64/bin/../lib/gcc/x86_64-w64-mingw32/8.2.1/../../../../x86_64-w64-mingw32/lib/../lib/libkernel32.a(dkzxbs00744.o)
                0x0000000061502ec8                GetSystemTime
 .text          0x0000000061502ed0        0x8 C:/msys64/mingw64/bin/../lib/gcc/x86_64-w64-mingw32/8.2.1/../../../../x86_64-w64-mingw32/lib/../lib/libkernel32.a(dkzxbs00740.o)
                0x0000000061502ed0                GetSystemInfo
 .text          0x0000000061502ed8        0x8 C:/msys64/mingw64/bin/../lib/gcc/x86_64-w64-mingw32/8.2.1/../../../../x86_64-w64-mingw32/lib/../lib/libkernel32.a(dkzxbs00724.o)
                0x0000000061502ed8                GetStdHandle
 .text          0x0000000061502ee0        0x8 C:/msys64/mingw64/bin/../lib/gcc/x86_64-w64-mingw32/8.2.1/../../../../x86_64-w64-mingw32/lib/../lib/libkernel32.a(dkzxbs00694.o)
                0x0000000061502ee0                GetProcessHeap
 .text          0x0000000061502ee8        0x8 C:/msys64/mingw64/bin/../lib/gcc/x86_64-w64-mingw32/8.2.1/../../../../x86_64-w64-mingw32/lib/../lib/libkernel32.a(dkzxbs00689.o)
                0x0000000061502ee8                GetProcAddress
 .text          0x0000000061502ef0        0x8 C:/msys64/mingw64/bin/../lib/gcc/x86_64-w64-mingw32/8.2.1/../../../../x86_64-w64-mingw32/lib/../lib/libkernel32.a(dkzxbs00631.o)
                0x0000000061502ef0                GetModuleHandleExA
 .text          0x0000000061502ef8        0x8 C:/msys64/mingw64/bin/../lib/gcc/x86_64-w64-mingw32/8.2.1/../../../../x86_64-w64-mingw32/lib/../lib/libkernel32.a(dkzxbs00630.o)
                0x0000000061502ef8                GetModuleHandleA
 .text          0x0000000061502f00        0x8 C:/msys64/mingw64/bin/../lib/gcc/x86_64-w64-mingw32/8.2.1/../../../../x86_64-w64-mingw32/lib/../lib/libkernel32.a(dkzxbs00629.o)
                0x0000000061502f00                GetModuleFileNameW
 .text          0x0000000061502f08        0x8 C:/msys64/mingw64/bin/../lib/gcc/x86_64-w64-mingw32/8.2.1/../../../../x86_64-w64-mingw32/lib/../lib/libkernel32.a(dkzxbs00628.o)
                0x0000000061502f08                GetModuleFileNameA
 .text          0x0000000061502f10        0x8 C:/msys64/mingw64/bin/../lib/gcc/x86_64-w64-mingw32/8.2.1/../../../../x86_64-w64-mingw32/lib/../lib/libkernel32.a(dkzxbs00609.o)
                0x0000000061502f10                GetLastError
 .text          0x0000000061502f18        0x8 C:/msys64/mingw64/bin/../lib/gcc/x86_64-w64-mingw32/8.2.1/../../../../x86_64-w64-mingw32/lib/../lib/libkernel32.a(dkzxbs00603.o)
                0x0000000061502f18                GetFullPathNameW
 .text          0x0000000061502f20        0x8 C:/msys64/mingw64/bin/../lib/gcc/x86_64-w64-mingw32/8.2.1/../../../../x86_64-w64-mingw32/lib/../lib/libkernel32.a(dkzxbs00600.o)
                0x0000000061502f20                GetFullPathNameA
 .text          0x0000000061502f28        0x8 C:/msys64/mingw64/bin/../lib/gcc/x86_64-w64-mingw32/8.2.1/../../../../x86_64-w64-mingw32/lib/../lib/libkernel32.a(dkzxbs00589.o)
                0x0000000061502f28                GetFileSize
 .text          0x0000000061502f30        0x8 C:/msys64/mingw64/bin/../lib/gcc/x86_64-w64-mingw32/8.2.1/../../../../x86_64-w64-mingw32/lib/../lib/libkernel32.a(dkzxbs00583.o)
                0x0000000061502f30                GetFileAttributesW
 .text          0x0000000061502f38        0x8 C:/msys64/mingw64/bin/../lib/gcc/x86_64-w64-mingw32/8.2.1/../../../../x86_64-w64-mingw32/lib/../lib/libkernel32.a(dkzxbs00580.o)
                0x0000000061502f38                GetFileAttributesExW
 .text          0x0000000061502f40        0x8 C:/msys64/mingw64/bin/../lib/gcc/x86_64-w64-mingw32/8.2.1/../../../../x86_64-w64-mingw32/lib/../lib/libkernel32.a(dkzxbs00578.o)
                0x0000000061502f40                GetFileAttributesA
 .text          0x0000000061502f48        0x8 C:/msys64/mingw64/bin/../lib/gcc/x86_64-w64-mingw32/8.2.1/../../../../x86_64-w64-mingw32/lib/../lib/libkernel32.a(dkzxbs00555.o)
                0x0000000061502f48                GetDiskFreeSpaceW
 .text          0x0000000061502f50        0x8 C:/msys64/mingw64/bin/../lib/gcc/x86_64-w64-mingw32/8.2.1/../../../../x86_64-w64-mingw32/lib/../lib/libkernel32.a(dkzxbs00552.o)
                0x0000000061502f50                GetDiskFreeSpaceA
 .text          0x0000000061502f58        0x8 C:/msys64/mingw64/bin/../lib/gcc/x86_64-w64-mingw32/8.2.1/../../../../x86_64-w64-mingw32/lib/../lib/libkernel32.a(dkzxbs00540.o)
                0x0000000061502f58                GetCurrentThreadId
 .text          0x0000000061502f60        0x8 C:/msys64/mingw64/bin/../lib/gcc/x86_64-w64-mingw32/8.2.1/../../../../x86_64-w64-mingw32/lib/../lib/libkernel32.a(dkzxbs00536.o)
                0x0000000061502f60                GetCurrentProcessId
 .text          0x0000000061502f68        0x8 C:/msys64/mingw64/bin/../lib/gcc/x86_64-w64-mingw32/8.2.1/../../../../x86_64-w64-mingw32/lib/../lib/libkernel32.a(dkzxbs00535.o)
                0x0000000061502f68                GetCurrentProcess
 .text          0x0000000061502f70        0x8 C:/msys64/mingw64/bin/../lib/gcc/x86_64-w64-mingw32/8.2.1/../../../../x86_64-w64-mingw32/lib/../lib/libkernel32.a(dkzxbs00514.o)
                0x0000000061502f70                GetConsoleScreenBufferInfo
 .text          0x0000000061502f78        0x8 C:/msys64/mingw64/bin/../lib/gcc/x86_64-w64-mingw32/8.2.1/../../../../x86_64-w64-mingw32/lib/../lib/libkernel32.a(dkzxbs00427.o)
                0x0000000061502f78                FreeLibrary
 .text          0x0000000061502f80        0x8 C:/msys64/mingw64/bin/../lib/gcc/x86_64-w64-mingw32/8.2.1/../../../../x86_64-w64-mingw32/lib/../lib/libkernel32.a(dkzxbs00423.o)
                0x0000000061502f80                FormatMessageW
 .text          0x0000000061502f88        0x8 C:/msys64/mingw64/bin/../lib/gcc/x86_64-w64-mingw32/8.2.1/../../../../x86_64-w64-mingw32/lib/../lib/libkernel32.a(dkzxbs00422.o)
                0x0000000061502f88                FormatMessageA
 .text          0x0000000061502f90        0x8 C:/msys64/mingw64/bin/../lib/gcc/x86_64-w64-mingw32/8.2.1/../../../../x86_64-w64-mingw32/lib/../lib/libkernel32.a(dkzxbs00415.o)
                0x0000000061502f90                FlushFileBuffers
 .text          0x0000000061502f98        0x8 C:/msys64/mingw64/bin/../lib/gcc/x86_64-w64-mingw32/8.2.1/../../../../x86_64-w64-mingw32/lib/../lib/libkernel32.a(dkzxbs00304.o)
                0x0000000061502f98                EnterCriticalSection
 .text          0x0000000061502fa0        0x8 C:/msys64/mingw64/bin/../lib/gcc/x86_64-w64-mingw32/8.2.1/../../../../x86_64-w64-mingw32/lib/../lib/libkernel32.a(dkzxbs00273.o)
                0x0000000061502fa0                DeleteFileW
 .text          0x0000000061502fa8        0x8 C:/msys64/mingw64/bin/../lib/gcc/x86_64-w64-mingw32/8.2.1/../../../../x86_64-w64-mingw32/lib/../lib/libkernel32.a(dkzxbs00270.o)
                0x0000000061502fa8                DeleteFileA
 .text          0x0000000061502fb0        0x8 C:/msys64/mingw64/bin/../lib/gcc/x86_64-w64-mingw32/8.2.1/../../../../x86_64-w64-mingw32/lib/../lib/libkernel32.a(dkzxbs00268.o)
                0x0000000061502fb0                DeleteCriticalSection
 .text          0x0000000061502fb8        0x8 C:/msys64/mingw64/bin/../lib/gcc/x86_64-w64-mingw32/8.2.1/../../../../x86_64-w64-mingw32/lib/../lib/libkernel32.a(dkzxbs00237.o)
                0x0000000061502fb8                CreateThread
 .text          0x0000000061502fc0        0x8 C:/msys64/mingw64/bin/../lib/gcc/x86_64-w64-mingw32/8.2.1/../../../../x86_64-w64-mingw32/lib/../lib/libkernel32.a(dkzxbs00214.o)
                0x0000000061502fc0                CreateMutexW
 .text          0x0000000061502fc8        0x8 C:/msys64/mingw64/bin/../lib/gcc/x86_64-w64-mingw32/8.2.1/../../../../x86_64-w64-mingw32/lib/../lib/libkernel32.a(dkzxbs00199.o)
                0x0000000061502fc8                CreateFileW
 .text          0x0000000061502fd0        0x8 C:/msys64/mingw64/bin/../lib/gcc/x86_64-w64-mingw32/8.2.1/../../../../x86_64-w64-mingw32/lib/../lib/libkernel32.a(dkzxbs00196.o)
                0x0000000061502fd0                CreateFileMappingW
 .text          0x0000000061502fd8        0x8 C:/msys64/mingw64/bin/../lib/gcc/x86_64-w64-mingw32/8.2.1/../../../../x86_64-w64-mingw32/lib/../lib/libkernel32.a(dkzxbs00192.o)
                0x0000000061502fd8                CreateFileMappingA
 .text          0x0000000061502fe0        0x8 C:/msys64/mingw64/bin/../lib/gcc/x86_64-w64-mingw32/8.2.1/../../../../x86_64-w64-mingw32/lib/../lib/libkernel32.a(dkzxbs00191.o)
                0x0000000061502fe0                CreateFileA
 .text          0x0000000061502fe8        0x8 C:/msys64/mingw64/bin/../lib/gcc/x86_64-w64-mingw32/8.2.1/../../../../x86_64-w64-mingw32/lib/../lib/libkernel32.a(dkzxbs00130.o)
                0x0000000061502fe8                CloseHandle
 .text          0x0000000061502ff0        0x8 C:/msys64/mingw64/bin/../lib/gcc/x86_64-w64-mingw32/8.2.1/../../../../x86_64-w64-mingw32/lib/../lib/libkernel32.a(dkzxbs00027.o)
                0x0000000061502ff0                AreFileApisANSI
 *fill*         0x0000000061502ff8        0x8 
 .text          0x0000000061503000        0x0 C:/msys64/mingw64/bin/../lib/gcc/x86_64-w64-mingw32/8.2.1/../../../../x86_64-w64-mingw32/lib/../lib/libkernel32.a(dkzxbh.o)
 .text          0x0000000061503000        0x0 C:/msys64/mingw64/bin/../lib/gcc/x86_64-w64-mingw32/8.2.1/../../../../x86_64-w64-mingw32/lib/../lib/libkernel32.a(dkzxbt.o)
 .text          0x0000000061503000      0x150 C:/msys64/mingw64/bin/../lib/gcc/x86_64-w64-mingw32/8.2.1/../../../../x86_64-w64-mingw32/lib/../lib/libmingw32.a(lib64_libmingw32_a-merr.o)
                0x0000000061503000                __mingw_raise_matherr
                0x0000000061503050                __mingw_setusermatherr
                0x0000000061503060                _matherr
 .text          0x0000000061503150        0x8 C:/msys64/mingw64/bin/../lib/gcc/x86_64-w64-mingw32/8.2.1/../../../../x86_64-w64-mingw32/lib/../lib/libmsvcrt.a(dieybs00127.o)
                0x0000000061503150                __setusermatherr
 *fill*         0x0000000061503158        0x8 
 .text          0x0000000061503160        0x0 C:/msys64/mingw64/bin/../lib/gcc/x86_64-w64-mingw32/8.2.1/crtend.o
 *(SORT(.text$*))
 *(.text.*)
 .text.unlikely
                0x0000000061503160       0x20 window/x86_64/libluajit.a(lj_alloc.o)
 .text.unlikely
                0x0000000061503180       0x60 C:/msys64/mingw64/bin/../lib/gcc/x86_64-w64-mingw32/8.2.1/../../../../x86_64-w64-mingw32/lib/../lib/libmingw32.a(lib64_libmingw32_a-pseudo-reloc.o)
 .text.startup  0x00000000615031e0       0x10 C:/msys64/mingw64/bin/../lib/gcc/x86_64-w64-mingw32/8.2.1/crtend.o
 *(.gnu.linkonce.t.*)
 *(.glue_7t)
 *(.glue_7)
                0x00000000615031f0                . = ALIGN (0x8)
                0x00000000615031f0                ___CTOR_LIST__ = .
                0x00000000615031f0                __CTOR_LIST__ = .
                0x00000000615031f0        0x4 LONG 0xffffffffffffffff
                0x00000000615031f4        0x4 LONG 0xffffffffffffffff
 *(.ctors)
 *(.ctor)
 *(SORT(.ctors.*))
 .ctors.65535   0x00000000615031f8        0x8 C:/msys64/mingw64/bin/../lib/gcc/x86_64-w64-mingw32/8.2.1/crtend.o
                0x0000000061503200        0x4 LONG 0x0
                0x0000000061503204        0x4 LONG 0x0
                0x0000000061503208                ___DTOR_LIST__ = .
                0x0000000061503208                __DTOR_LIST__ = .
                0x0000000061503208        0x4 LONG 0xffffffffffffffff
                0x000000006150320c        0x4 LONG 0xffffffffffffffff
 *(.dtors)
 *(.dtor)
 *(SORT(.dtors.*))
                0x0000000061503210        0x4 LONG 0x0
                0x0000000061503214        0x4 LONG 0x0
 *(.fini)
 *(.gcc_exc)
                [!provide]                        PROVIDE (etext, .)
 *(.gcc_except_table)

.data           0x0000000061504000     0x6000
                0x0000000061504000                __data_start__ = .
 *(.data)
 .data          0x0000000061504000        0x0 C:/msys64/mingw64/bin/../lib/gcc/x86_64-w64-mingw32/8.2.1/../../../../x86_64-w64-mingw32/lib/../lib/dllcrt2.o
 .data          0x0000000061504000        0x0 C:/msys64/mingw64/bin/../lib/gcc/x86_64-w64-mingw32/8.2.1/crtbegin.o
 .data          0x0000000061504000       0x40 C:\msys64\tmp\ccfy01SD.o
                0x0000000061504000                toluaflags
                0x0000000061504008                _DATA_ID
                0x000000006150400e                _SKEY_ID
                0x0000000061504011                _TP_ID
                0x0000000061504015                _F_ID
                0x0000000061504018                _FUNC_ID
                0x0000000061504020                _DISPATCH_ID
 .data          0x0000000061504040        0x0 C:\msys64\tmp\ccWMuz0v.o
 .data          0x0000000061504040        0x0 C:\msys64\tmp\ccFOXHzz.o
 .data          0x0000000061504040       0x10 C:\msys64\tmp\ccLjWXKz.o
 *fill*         0x0000000061504050       0x10 
 .data          0x0000000061504060      0x280 C:\msys64\tmp\ccz1diiN.o
 .data          0x00000000615042e0       0x10 C:\msys64\tmp\ccVizNw9.o
 .data          0x00000000615042f0       0x20 C:\msys64\tmp\ccjhsTYI.o
 *fill*         0x0000000061504310       0x10 
 .data          0x0000000061504320      0x1e0 C:\msys64\tmp\ccLt5nLD.o
 .data          0x0000000061504500        0x0 C:\msys64\tmp\ccuoZVRF.o
 .data          0x0000000061504500        0x0 C:\msys64\tmp\cctFmZYO.o
 .data          0x0000000061504500      0x8c0 C:\msys64\tmp\ccuduyC5.o
 .data          0x0000000061504dc0       0x10 C:\msys64\tmp\ccJuBzPw.o
 *fill*         0x0000000061504dd0       0x10 
 .data          0x0000000061504de0      0xe80 C:\msys64\tmp\ccTqPSxT.o
 .data          0x0000000061505c60     0x1f40 C:\msys64\tmp\ccXRde14.o
 .data          0x0000000061507ba0        0x0 C:\msys64\tmp\ccpSIAqr.o
 .data          0x0000000061507ba0        0x0 C:\msys64\tmp\ccZkAuiV.o
 .data          0x0000000061507ba0       0x40 C:\msys64\tmp\ccJabTGs.o
 .data          0x0000000061507be0       0xc0 C:\msys64\tmp\ccQHA7kH.o
 .data          0x0000000061507ca0        0x0 C:\msys64\tmp\ccDKFcP3.o
 .data          0x0000000061507ca0       0x40 C:\msys64\tmp\ccRApjM5.o
 .data          0x0000000061507ce0       0xc0 C:\msys64\tmp\cc5MSZGd.o
 .data          0x0000000061507da0        0x0 C:\msys64\tmp\ccxqqLTc.o
 .data          0x0000000061507da0       0x20 C:\msys64\tmp\ccenaSVZ.o
 .data          0x0000000061507dc0      0x320 C:\msys64\tmp\ccSZ239v.o
 .data          0x00000000615080e0       0x40 C:\msys64\tmp\ccvj8G4H.o
 .data          0x0000000061508120      0x340 C:\msys64\tmp\ccldb7oK.o
 .data          0x0000000061508460        0x0 C:\msys64\tmp\cc1vz69F.o
 .data          0x0000000061508460        0x0 C:\msys64\tmp\ccXkOUMF.o
 .data          0x0000000061508460        0x0 C:\msys64\tmp\cc7I1SCN.o
 .data          0x0000000061508460     0x10e0 C:\msys64\tmp\ccaJ2lTQ.o
 .data          0x0000000061509540        0x0 C:\msys64\tmp\ccTYAR93.o
 .data          0x0000000061509540       0x60 C:\msys64\tmp\cc2LD5lo.o
 .data          0x00000000615095a0        0x0 C:\msys64\tmp\cctiLsmQ.o
 .data          0x00000000615095a0        0x0 C:\msys64\tmp\cckEQkSt.o
 .data          0x00000000615095a0        0x0 C:\msys64\tmp\ccxxh8wg.o
 .data          0x00000000615095a0        0x0 C:\msys64\tmp\ccoLUxS8.o
 .data          0x00000000615095a0        0x0 C:\msys64\tmp\cc5FaVq8.o
 .data          0x00000000615095a0        0x0 C:\msys64\tmp\ccg4nTgg.o
 .data          0x00000000615095a0        0x0 C:\msys64\tmp\ccmZReTk.o
 .data          0x00000000615095a0        0x0 C:\msys64\tmp\ccA4uJAu.o
 .data          0x00000000615095a0        0x0 C:\msys64\tmp\ccS3faXP.o
 .data          0x00000000615095a0        0x0 C:\msys64\tmp\ccoUgfsm.o
 .data          0x00000000615095a0      0x400 C:\msys64\tmp\ccUcMoTZ.o
 .data          0x00000000615099a0        0x0 C:\msys64\tmp\ccidGW4M.o
 .data          0x00000000615099a0      0x400 C:\msys64\tmp\ccYk3DtG.o
 .data          0x0000000061509da0        0x0 C:\msys64\tmp\ccQIpGaD.o
 .data          0x0000000061509da0        0x0 C:/msys64/mingw64/bin/../lib/gcc/x86_64-w64-mingw32/8.2.1/../../../../x86_64-w64-mingw32/lib/../lib/libws2_32.a(dmgss00195.o)
 .data          0x0000000061509da0        0x0 C:/msys64/mingw64/bin/../lib/gcc/x86_64-w64-mingw32/8.2.1/../../../../x86_64-w64-mingw32/lib/../lib/libws2_32.a(dmgss00194.o)
 .data          0x0000000061509da0        0x0 C:/msys64/mingw64/bin/../lib/gcc/x86_64-w64-mingw32/8.2.1/../../../../x86_64-w64-mingw32/lib/../lib/libws2_32.a(dmgss00193.o)
 .data          0x0000000061509da0        0x0 C:/msys64/mingw64/bin/../lib/gcc/x86_64-w64-mingw32/8.2.1/../../../../x86_64-w64-mingw32/lib/../lib/libws2_32.a(dmgss00192.o)
 .data          0x0000000061509da0        0x0 C:/msys64/mingw64/bin/../lib/gcc/x86_64-w64-mingw32/8.2.1/../../../../x86_64-w64-mingw32/lib/../lib/libws2_32.a(dmgss00191.o)
 .data          0x0000000061509da0        0x0 C:/msys64/mingw64/bin/../lib/gcc/x86_64-w64-mingw32/8.2.1/../../../../x86_64-w64-mingw32/lib/../lib/libws2_32.a(dmgss00190.o)
 .data          0x0000000061509da0        0x0 C:/msys64/mingw64/bin/../lib/gcc/x86_64-w64-mingw32/8.2.1/../../../../x86_64-w64-mingw32/lib/../lib/libws2_32.a(dmgss00189.o)
 .data          0x0000000061509da0        0x0 C:/msys64/mingw64/bin/../lib/gcc/x86_64-w64-mingw32/8.2.1/../../../../x86_64-w64-mingw32/lib/../lib/libws2_32.a(dmgss00188.o)
 .data          0x0000000061509da0        0x0 C:/msys64/mingw64/bin/../lib/gcc/x86_64-w64-mingw32/8.2.1/../../../../x86_64-w64-mingw32/lib/../lib/libws2_32.a(dmgss00185.o)
 .data          0x0000000061509da0        0x0 C:/msys64/mingw64/bin/../lib/gcc/x86_64-w64-mingw32/8.2.1/../../../../x86_64-w64-mingw32/lib/../lib/libws2_32.a(dmgss00184.o)
 .data          0x0000000061509da0        0x0 C:/msys64/mingw64/bin/../lib/gcc/x86_64-w64-mingw32/8.2.1/../../../../x86_64-w64-mingw32/lib/../lib/libws2_32.a(dmgss00181.o)
 .data          0x0000000061509da0        0x0 C:/msys64/mingw64/bin/../lib/gcc/x86_64-w64-mingw32/8.2.1/../../../../x86_64-w64-mingw32/lib/../lib/libws2_32.a(dmgss00178.o)
 .data          0x0000000061509da0        0x0 C:/msys64/mingw64/bin/../lib/gcc/x86_64-w64-mingw32/8.2.1/../../../../x86_64-w64-mingw32/lib/../lib/libws2_32.a(dmgss00177.o)
 .data          0x0000000061509da0        0x0 C:/msys64/mingw64/bin/../lib/gcc/x86_64-w64-mingw32/8.2.1/../../../../x86_64-w64-mingw32/lib/../lib/libws2_32.a(dmgss00176.o)
 .data          0x0000000061509da0        0x0 C:/msys64/mingw64/bin/../lib/gcc/x86_64-w64-mingw32/8.2.1/../../../../x86_64-w64-mingw32/lib/../lib/libws2_32.a(dmgss00171.o)
 .data          0x0000000061509da0        0x0 C:/msys64/mingw64/bin/../lib/gcc/x86_64-w64-mingw32/8.2.1/../../../../x86_64-w64-mingw32/lib/../lib/libws2_32.a(dmgss00170.o)
 .data          0x0000000061509da0        0x0 C:/msys64/mingw64/bin/../lib/gcc/x86_64-w64-mingw32/8.2.1/../../../../x86_64-w64-mingw32/lib/../lib/libws2_32.a(dmgss00169.o)
 .data          0x0000000061509da0        0x0 C:/msys64/mingw64/bin/../lib/gcc/x86_64-w64-mingw32/8.2.1/../../../../x86_64-w64-mingw32/lib/../lib/libws2_32.a(dmgss00168.o)
 .data          0x0000000061509da0        0x0 C:/msys64/mingw64/bin/../lib/gcc/x86_64-w64-mingw32/8.2.1/../../../../x86_64-w64-mingw32/lib/../lib/libws2_32.a(dmgss00167.o)
 .data          0x0000000061509da0        0x0 C:/msys64/mingw64/bin/../lib/gcc/x86_64-w64-mingw32/8.2.1/../../../../x86_64-w64-mingw32/lib/../lib/libws2_32.a(dmgss00166.o)
 .data          0x0000000061509da0        0x0 C:/msys64/mingw64/bin/../lib/gcc/x86_64-w64-mingw32/8.2.1/../../../../x86_64-w64-mingw32/lib/../lib/libws2_32.a(dmgss00165.o)
 .data          0x0000000061509da0        0x0 C:/msys64/mingw64/bin/../lib/gcc/x86_64-w64-mingw32/8.2.1/../../../../x86_64-w64-mingw32/lib/../lib/libws2_32.a(dmgss00164.o)
 .data          0x0000000061509da0        0x0 C:/msys64/mingw64/bin/../lib/gcc/x86_64-w64-mingw32/8.2.1/../../../../x86_64-w64-mingw32/lib/../lib/libws2_32.a(dmgss00163.o)
 .data          0x0000000061509da0        0x0 C:/msys64/mingw64/bin/../lib/gcc/x86_64-w64-mingw32/8.2.1/../../../../x86_64-w64-mingw32/lib/../lib/libws2_32.a(dmgss00162.o)
 .data          0x0000000061509da0        0x0 C:/msys64/mingw64/bin/../lib/gcc/x86_64-w64-mingw32/8.2.1/../../../../x86_64-w64-mingw32/lib/../lib/libws2_32.a(dmgss00161.o)
 .data          0x0000000061509da0        0x0 C:/msys64/mingw64/bin/../lib/gcc/x86_64-w64-mingw32/8.2.1/../../../../x86_64-w64-mingw32/lib/../lib/libws2_32.a(dmgss00160.o)
 .data          0x0000000061509da0        0x0 C:/msys64/mingw64/bin/../lib/gcc/x86_64-w64-mingw32/8.2.1/../../../../x86_64-w64-mingw32/lib/../lib/libws2_32.a(dmgss00088.o)
 .data          0x0000000061509da0        0x0 C:/msys64/mingw64/bin/../lib/gcc/x86_64-w64-mingw32/8.2.1/../../../../x86_64-w64-mingw32/lib/../lib/libws2_32.a(dmgss00047.o)
 .data          0x0000000061509da0        0x0 C:/msys64/mingw64/bin/../lib/gcc/x86_64-w64-mingw32/8.2.1/../../../../x86_64-w64-mingw32/lib/../lib/libws2_32.a(dmgss00030.o)
 .data          0x0000000061509da0        0x0 C:/msys64/mingw64/bin/../lib/gcc/x86_64-w64-mingw32/8.2.1/../../../../x86_64-w64-mingw32/lib/../lib/libws2_32.a(lib64_libws2_32_a-gai_strerrorA.o)
 .data          0x0000000061509da0        0x0 C:/msys64/mingw64/bin/../lib/gcc/x86_64-w64-mingw32/8.2.1/../../../../x86_64-w64-mingw32/lib/../lib/libws2_32.a(lib64_libws2_32_a-gai_strerrorW.o)
 .data          0x0000000061509da0        0x0 C:/msys64/mingw64/bin/../lib/gcc/x86_64-w64-mingw32/8.2.1/../../../../x86_64-w64-mingw32/lib/../lib/libws2_32.a(dmgsh.o)
 .data          0x0000000061509da0        0x0 C:/msys64/mingw64/bin/../lib/gcc/x86_64-w64-mingw32/8.2.1/../../../../x86_64-w64-mingw32/lib/../lib/libws2_32.a(dmgst.o)
 .data          0x0000000061509da0        0x0 window/x86_64/libluajit.a(lj_gc.o)
 .data          0x0000000061509da0       0x10 window/x86_64/libluajit.a(lj_err.o)
                0x0000000061509da0                _INFO_ID
                0x0000000061509da8                lj_err_allmsg
 .data          0x0000000061509db0        0x0 window/x86_64/libluajit.a(lj_char.o)
 .data          0x0000000061509db0        0x0 window/x86_64/libluajit.a(lj_bc.o)
 .data          0x0000000061509db0        0x0 window/x86_64/libluajit.a(lj_obj.o)
 .data          0x0000000061509db0        0x0 window/x86_64/libluajit.a(lj_buf.o)
 .data          0x0000000061509db0        0x0 window/x86_64/libluajit.a(lj_str.o)
 .data          0x0000000061509db0        0x0 window/x86_64/libluajit.a(lj_tab.o)
 .data          0x0000000061509db0        0x0 window/x86_64/libluajit.a(lj_func.o)
 .data          0x0000000061509db0        0x0 window/x86_64/libluajit.a(lj_udata.o)
 .data          0x0000000061509db0        0x0 window/x86_64/libluajit.a(lj_meta.o)
 .data          0x0000000061509db0        0x0 window/x86_64/libluajit.a(lj_debug.o)
 .data          0x0000000061509db0        0x0 window/x86_64/libluajit.a(lj_state.o)
 .data          0x0000000061509db0        0x0 window/x86_64/libluajit.a(lj_dispatch.o)
 .data          0x0000000061509db0        0x0 window/x86_64/libluajit.a(lj_vmevent.o)
 .data          0x0000000061509db0        0x0 window/x86_64/libluajit.a(lj_vmmath.o)
 .data          0x0000000061509db0        0x0 window/x86_64/libluajit.a(lj_strscan.o)
 .data          0x0000000061509db0        0x0 window/x86_64/libluajit.a(lj_strfmt.o)
 .data          0x0000000061509db0        0x0 window/x86_64/libluajit.a(lj_strfmt_num.o)
 .data          0x0000000061509db0        0x0 window/x86_64/libluajit.a(lj_api.o)
 .data          0x0000000061509db0        0x0 window/x86_64/libluajit.a(lj_profile.o)
 .data          0x0000000061509db0        0x0 window/x86_64/libluajit.a(lj_lex.o)
 .data          0x0000000061509db0        0x0 window/x86_64/libluajit.a(lj_parse.o)
 .data          0x0000000061509db0        0x0 window/x86_64/libluajit.a(lj_bcread.o)
 .data          0x0000000061509db0        0x0 window/x86_64/libluajit.a(lj_bcwrite.o)
 .data          0x0000000061509db0        0x0 window/x86_64/libluajit.a(lj_load.o)
 .data          0x0000000061509db0        0x0 window/x86_64/libluajit.a(lj_ir.o)
 .data          0x0000000061509db0        0x0 window/x86_64/libluajit.a(lj_opt_mem.o)
 .data          0x0000000061509db0        0x0 window/x86_64/libluajit.a(lj_opt_fold.o)
 .data          0x0000000061509db0        0x0 window/x86_64/libluajit.a(lj_opt_narrow.o)
 .data          0x0000000061509db0        0x0 window/x86_64/libluajit.a(lj_opt_dce.o)
 .data          0x0000000061509db0        0x0 window/x86_64/libluajit.a(lj_opt_loop.o)
 .data          0x0000000061509db0        0x0 window/x86_64/libluajit.a(lj_opt_split.o)
 .data          0x0000000061509db0        0x0 window/x86_64/libluajit.a(lj_opt_sink.o)
 .data          0x0000000061509db0        0x0 window/x86_64/libluajit.a(lj_mcode.o)
 .data          0x0000000061509db0        0x0 window/x86_64/libluajit.a(lj_snap.o)
 .data          0x0000000061509db0        0x0 window/x86_64/libluajit.a(lj_record.o)
 .data          0x0000000061509db0        0x0 window/x86_64/libluajit.a(lj_crecord.o)
 .data          0x0000000061509db0        0x0 window/x86_64/libluajit.a(lj_ffrecord.o)
 .data          0x0000000061509db0        0x0 window/x86_64/libluajit.a(lj_asm.o)
 .data          0x0000000061509db0        0x0 window/x86_64/libluajit.a(lj_trace.o)
 .data          0x0000000061509db0        0x0 window/x86_64/libluajit.a(lj_gdbjit.o)
 .data          0x0000000061509db0        0x0 window/x86_64/libluajit.a(lj_ctype.o)
 .data          0x0000000061509db0        0x0 window/x86_64/libluajit.a(lj_cdata.o)
 .data          0x0000000061509db0        0x0 window/x86_64/libluajit.a(lj_cconv.o)
 .data          0x0000000061509db0        0x0 window/x86_64/libluajit.a(lj_ccall.o)
 .data          0x0000000061509db0        0x0 window/x86_64/libluajit.a(lj_ccallback.o)
 .data          0x0000000061509db0        0x0 window/x86_64/libluajit.a(lj_carith.o)
 .data          0x0000000061509db0        0x0 window/x86_64/libluajit.a(lj_clib.o)
 .data          0x0000000061509db0        0x0 window/x86_64/libluajit.a(lj_cparse.o)
 .data          0x0000000061509db0        0x0 window/x86_64/libluajit.a(lj_lib.o)
 .data          0x0000000061509db0        0x0 window/x86_64/libluajit.a(lj_alloc.o)
 .data          0x0000000061509db0       0x20 window/x86_64/libluajit.a(lib_aux.o)
                0x0000000061509db0                _SRESULT_ID
                0x0000000061509dc0                _KEY_ID
 .data          0x0000000061509dd0        0x0 window/x86_64/libluajit.a(lib_log.o)
 .data          0x0000000061509dd0        0x0 window/x86_64/libluajit.a(lib_base.o)
 .data          0x0000000061509dd0        0x0 window/x86_64/libluajit.a(lib_math.o)
 .data          0x0000000061509dd0        0x0 window/x86_64/libluajit.a(lib_bit.o)
 .data          0x0000000061509dd0        0x0 window/x86_64/libluajit.a(lib_string.o)
 .data          0x0000000061509dd0        0x0 window/x86_64/libluajit.a(lib_table.o)
 .data          0x0000000061509dd0        0x0 window/x86_64/libluajit.a(lib_io.o)
 .data          0x0000000061509dd0        0x0 window/x86_64/libluajit.a(lib_os.o)
 .data          0x0000000061509dd0        0x0 window/x86_64/libluajit.a(lib_package.o)
 .data          0x0000000061509dd0        0x0 window/x86_64/libluajit.a(lib_debug.o)
 .data          0x0000000061509dd0        0x0 window/x86_64/libluajit.a(lib_jit.o)
 .data          0x0000000061509dd0        0x0 window/x86_64/libluajit.a(lib_ffi.o)
 .data          0x0000000061509dd0        0x0 window/x86_64/libluajit.a(lib_init.o)
 .data          0x0000000061509dd0        0x0 C:/msys64/mingw64/bin/../lib/gcc/x86_64-w64-mingw32/8.2.1/../../../../x86_64-w64-mingw32/lib/../lib/libmingw32.a(lib64_libmingw32_a-atonexit.o)
 .data          0x0000000061509dd0       0x10 C:/msys64/mingw64/bin/../lib/gcc/x86_64-w64-mingw32/8.2.1/../../../../x86_64-w64-mingw32/lib/../lib/libmingw32.a(lib64_libmingw32_a-gccmain.o)
 .data          0x0000000061509de0       0x10 C:/msys64/mingw64/bin/../lib/gcc/x86_64-w64-mingw32/8.2.1/../../../../x86_64-w64-mingw32/lib/../lib/libmingw32.a(lib64_libmingw32_a-natstart.o)
                0x0000000061509de0                __native_vcclrit_reason
                0x0000000061509de4                __native_dllmain_reason
 .data          0x0000000061509df0        0x0 C:/msys64/mingw64/bin/../lib/gcc/x86_64-w64-mingw32/8.2.1/../../../../x86_64-w64-mingw32/lib/../lib/libmingw32.a(lib64_libmingw32_a-gs_support.o)
 .data          0x0000000061509df0        0x0 C:/msys64/mingw64/bin/../lib/gcc/x86_64-w64-mingw32/8.2.1/../../../../x86_64-w64-mingw32/lib/../lib/libmingw32.a(lib64_libmingw32_a-tlssup.o)
 .data          0x0000000061509df0        0x0 C:/msys64/mingw64/bin/../lib/gcc/x86_64-w64-mingw32/8.2.1/../../../../x86_64-w64-mingw32/lib/../lib/libmingw32.a(lib64_libmingw32_a-cinitexe.o)
 .data          0x0000000061509df0        0x0 C:/msys64/mingw64/bin/../lib/gcc/x86_64-w64-mingw32/8.2.1/../../../../x86_64-w64-mingw32/lib/../lib/libmingw32.a(lib64_libmingw32_a-mingw_helpers.o)
 .data          0x0000000061509df0        0x0 C:/msys64/mingw64/bin/../lib/gcc/x86_64-w64-mingw32/8.2.1/../../../../x86_64-w64-mingw32/lib/../lib/libmingw32.a(lib64_libmingw32_a-pseudo-reloc.o)
 .data          0x0000000061509df0        0x0 C:/msys64/mingw64/bin/../lib/gcc/x86_64-w64-mingw32/8.2.1/../../../../x86_64-w64-mingw32/lib/../lib/libmingw32.a(lib64_libmingw32_a-crt_handler.o)
 .data          0x0000000061509df0        0x0 C:/msys64/mingw64/bin/../lib/gcc/x86_64-w64-mingw32/8.2.1/../../../../x86_64-w64-mingw32/lib/../lib/libmingw32.a(lib64_libmingw32_a-tlsthrd.o)
 .data          0x0000000061509df0       0x10 C:/msys64/mingw64/bin/../lib/gcc/x86_64-w64-mingw32/8.2.1/../../../../x86_64-w64-mingw32/lib/../lib/libmingw32.a(lib64_libmingw32_a-tlsmcrt.o)
                0x0000000061509df0                _CRT_MT
 .data          0x0000000061509e00        0x0 C:/msys64/mingw64/bin/../lib/gcc/x86_64-w64-mingw32/8.2.1/../../../../x86_64-w64-mingw32/lib/../lib/libmingw32.a(lib64_libmingw32_a-pseudo-reloc-list.o)
 .data          0x0000000061509e00        0x0 C:/msys64/mingw64/bin/../lib/gcc/x86_64-w64-mingw32/8.2.1/../../../../x86_64-w64-mingw32/lib/../lib/libmingw32.a(lib64_libmingw32_a-pesect.o)
 .data          0x0000000061509e00        0x0 C:/msys64/mingw64/bin/../lib/gcc/x86_64-w64-mingw32/8.2.1/../../../../x86_64-w64-mingw32/lib/../lib/libmingw32.a(lib64_libmingw32_a-CRT_fp10.o)
 .data          0x0000000061509e00        0x0 C:/msys64/mingw64/bin/../lib/gcc/x86_64-w64-mingw32/8.2.1/libgcc.a(_chkstk_ms.o)
 .data          0x0000000061509e00        0x0 C:/msys64/mingw64/bin/../lib/gcc/x86_64-w64-mingw32/8.2.1/libgcc.a(_ctors.o)
 .data          0x0000000061509e00        0x0 C:/msys64/mingw64/bin/../lib/gcc/x86_64-w64-mingw32/8.2.1/../../../../x86_64-w64-mingw32/lib/../lib/libmingwex.a(lib64_libmingwex_a-dllentry.o)
 .data          0x0000000061509e00        0x0 C:/msys64/mingw64/bin/../lib/gcc/x86_64-w64-mingw32/8.2.1/../../../../x86_64-w64-mingw32/lib/../lib/libmingwex.a(lib64_libmingwex_a-dllmain.o)
 .data          0x0000000061509e00       0x20 C:/msys64/mingw64/bin/../lib/gcc/x86_64-w64-mingw32/8.2.1/../../../../x86_64-w64-mingw32/lib/../lib/libmingwex.a(lib64_libmingwex_a-strtodnrp.o)
 .data          0x0000000061509e20        0x0 C:/msys64/mingw64/bin/../lib/gcc/x86_64-w64-mingw32/8.2.1/../../../../x86_64-w64-mingw32/lib/../lib/libmingwex.a(lib64_libmingwex_a-fpclassify.o)
 .data          0x0000000061509e20        0x0 C:/msys64/mingw64/bin/../lib/gcc/x86_64-w64-mingw32/8.2.1/../../../../x86_64-w64-mingw32/lib/../lib/libmingwex.a(lib64_libmingwex_a-isnan.o)
 .data          0x0000000061509e20        0x0 C:/msys64/mingw64/bin/../lib/gcc/x86_64-w64-mingw32/8.2.1/../../../../x86_64-w64-mingw32/lib/../lib/libmingwex.a(lib64_libmingwex_a-modf.o)
 .data          0x0000000061509e20        0x0 C:/msys64/mingw64/bin/../lib/gcc/x86_64-w64-mingw32/8.2.1/../../../../x86_64-w64-mingw32/lib/../lib/libmingwex.a(lib64_libmingwex_a-powf.o)
 .data          0x0000000061509e20        0x0 C:/msys64/mingw64/bin/../lib/gcc/x86_64-w64-mingw32/8.2.1/../../../../x86_64-w64-mingw32/lib/../lib/libmingwex.a(lib64_libmingwex_a-sqrt.o)
 .data          0x0000000061509e20        0x0 C:/msys64/mingw64/bin/../lib/gcc/x86_64-w64-mingw32/8.2.1/../../../../x86_64-w64-mingw32/lib/../lib/libmingwex.a(lib64_libmingwex_a-difftime64.o)
 .data          0x0000000061509e20        0x0 C:/msys64/mingw64/bin/../lib/gcc/x86_64-w64-mingw32/8.2.1/../../../../x86_64-w64-mingw32/lib/../lib/libmingwex.a(lib64_libmingwex_a-gettimeofday.o)
 .data          0x0000000061509e20        0x0 C:/msys64/mingw64/bin/../lib/gcc/x86_64-w64-mingw32/8.2.1/../../../../x86_64-w64-mingw32/lib/../lib/libmingwex.a(lib64_libmingwex_a-strtoimax.o)
 .data          0x0000000061509e20        0x0 C:/msys64/mingw64/bin/../lib/gcc/x86_64-w64-mingw32/8.2.1/../../../../x86_64-w64-mingw32/lib/../lib/libmingwex.a(lib64_libmingwex_a-strtoumax.o)
 .data          0x0000000061509e20        0x0 C:/msys64/mingw64/bin/../lib/gcc/x86_64-w64-mingw32/8.2.1/../../../../x86_64-w64-mingw32/lib/../lib/libmingwex.a(lib64_libmingwex_a-wassert.o)
 .data          0x0000000061509e20        0x0 C:/msys64/mingw64/bin/../lib/gcc/x86_64-w64-mingw32/8.2.1/../../../../x86_64-w64-mingw32/lib/../lib/libmingwex.a(lib64_libmingwex_a-atoll.o)
 .data          0x0000000061509e20        0x0 C:/msys64/mingw64/bin/../lib/gcc/x86_64-w64-mingw32/8.2.1/../../../../x86_64-w64-mingw32/lib/../lib/libmingwex.a(lib64_libmingwex_a-fseeko64.o)
 .data          0x0000000061509e20        0x0 C:/msys64/mingw64/bin/../lib/gcc/x86_64-w64-mingw32/8.2.1/../../../../x86_64-w64-mingw32/lib/../lib/libmingwex.a(lib64_libmingwex_a-ftello64.o)
 .data          0x0000000061509e20        0x0 C:/msys64/mingw64/bin/../lib/gcc/x86_64-w64-mingw32/8.2.1/../../../../x86_64-w64-mingw32/lib/../lib/libmingwex.a(lib64_libmingwex_a-vsnprintf.o)
 .data          0x0000000061509e20        0x0 C:/msys64/mingw64/bin/../lib/gcc/x86_64-w64-mingw32/8.2.1/../../../../x86_64-w64-mingw32/lib/../lib/libmingwex.a(lib64_libmingwex_a-atan2.o)
 .data          0x0000000061509e20        0x0 C:/msys64/mingw64/bin/../lib/gcc/x86_64-w64-mingw32/8.2.1/../../../../x86_64-w64-mingw32/lib/../lib/libmingwex.a(lib64_libmingwex_a-cos.o)
 .data          0x0000000061509e20        0x0 C:/msys64/mingw64/bin/../lib/gcc/x86_64-w64-mingw32/8.2.1/../../../../x86_64-w64-mingw32/lib/../lib/libmingwex.a(lib64_libmingwex_a-cosl_internal.o)
 .data          0x0000000061509e20       0x20 C:/msys64/mingw64/bin/../lib/gcc/x86_64-w64-mingw32/8.2.1/../../../../x86_64-w64-mingw32/lib/../lib/libmingwex.a(lib64_libmingwex_a-exp.o)
 .data          0x0000000061509e40        0x0 C:/msys64/mingw64/bin/../lib/gcc/x86_64-w64-mingw32/8.2.1/../../../../x86_64-w64-mingw32/lib/../lib/libmingwex.a(lib64_libmingwex_a-floor.o)
 .data          0x0000000061509e40        0x0 C:/msys64/mingw64/bin/../lib/gcc/x86_64-w64-mingw32/8.2.1/../../../../x86_64-w64-mingw32/lib/../lib/libmingwex.a(lib64_libmingwex_a-fmod.o)
 .data          0x0000000061509e40        0x0 C:/msys64/mingw64/bin/../lib/gcc/x86_64-w64-mingw32/8.2.1/../../../../x86_64-w64-mingw32/lib/../lib/libmingwex.a(lib64_libmingwex_a-ldexp.o)
 .data          0x0000000061509e40        0x0 C:/msys64/mingw64/bin/../lib/gcc/x86_64-w64-mingw32/8.2.1/../../../../x86_64-w64-mingw32/lib/../lib/libmingwex.a(lib64_libmingwex_a-log.o)
 .data          0x0000000061509e40        0x0 C:/msys64/mingw64/bin/../lib/gcc/x86_64-w64-mingw32/8.2.1/../../../../x86_64-w64-mingw32/lib/../lib/libmingwex.a(lib64_libmingwex_a-pow.o)
 .data          0x0000000061509e40        0x0 C:/msys64/mingw64/bin/../lib/gcc/x86_64-w64-mingw32/8.2.1/../../../../x86_64-w64-mingw32/lib/../lib/libmingwex.a(lib64_libmingwex_a-sin.o)
 .data          0x0000000061509e40        0x0 C:/msys64/mingw64/bin/../lib/gcc/x86_64-w64-mingw32/8.2.1/../../../../x86_64-w64-mingw32/lib/../lib/libmingwex.a(lib64_libmingwex_a-sinl_internal.o)
 .data          0x0000000061509e40        0x0 C:/msys64/mingw64/bin/../lib/gcc/x86_64-w64-mingw32/8.2.1/../../../../x86_64-w64-mingw32/lib/../lib/libmingwex.a(lib64_libmingwex_a-strtodg.o)
 .data          0x0000000061509e40        0x0 C:/msys64/mingw64/bin/../lib/gcc/x86_64-w64-mingw32/8.2.1/../../../../x86_64-w64-mingw32/lib/../lib/libmingwex.a(lib64_libmingwex_a-sum.o)
 .data          0x0000000061509e40        0x0 C:/msys64/mingw64/bin/../lib/gcc/x86_64-w64-mingw32/8.2.1/../../../../x86_64-w64-mingw32/lib/../lib/libmingwex.a(lib64_libmingwex_a-powi.o)
 .data          0x0000000061509e40        0x0 C:/msys64/mingw64/bin/../lib/gcc/x86_64-w64-mingw32/8.2.1/../../../../x86_64-w64-mingw32/lib/../lib/libmingwex.a(lib64_libmingwex_a-exp2l.o)
 .data          0x0000000061509e40        0x0 C:/msys64/mingw64/bin/../lib/gcc/x86_64-w64-mingw32/8.2.1/../../../../x86_64-w64-mingw32/lib/../lib/libmingwex.a(lib64_libmingwex_a-internal_logl.o)
 .data          0x0000000061509e40        0x0 C:/msys64/mingw64/bin/../lib/gcc/x86_64-w64-mingw32/8.2.1/../../../../x86_64-w64-mingw32/lib/../lib/libmingwex.a(lib64_libmingwex_a-log2l.o)
 .data          0x0000000061509e40        0x0 C:/msys64/mingw64/bin/../lib/gcc/x86_64-w64-mingw32/8.2.1/../../../../x86_64-w64-mingw32/lib/../lib/libmingwex.a(lib64_libmingwex_a-gethex.o)
 .data          0x0000000061509e40        0x0 C:/msys64/mingw64/bin/../lib/gcc/x86_64-w64-mingw32/8.2.1/../../../../x86_64-w64-mingw32/lib/../lib/libmingwex.a(lib64_libmingwex_a-gmisc.o)
 .data          0x0000000061509e40        0x0 C:/msys64/mingw64/bin/../lib/gcc/x86_64-w64-mingw32/8.2.1/../../../../x86_64-w64-mingw32/lib/../lib/libmingwex.a(lib64_libmingwex_a-hd_init.o)
 .data          0x0000000061509e40        0x0 C:/msys64/mingw64/bin/../lib/gcc/x86_64-w64-mingw32/8.2.1/../../../../x86_64-w64-mingw32/lib/../lib/libmingwex.a(lib64_libmingwex_a-hexnan.o)
 .data          0x0000000061509e40       0x10 C:/msys64/mingw64/bin/../lib/gcc/x86_64-w64-mingw32/8.2.1/../../../../x86_64-w64-mingw32/lib/../lib/libmingwex.a(lib64_libmingwex_a-misc.o)
 .data          0x0000000061509e50        0x0 C:/msys64/mingw64/bin/../lib/gcc/x86_64-w64-mingw32/8.2.1/../../../../x86_64-w64-mingw32/lib/../lib/libmingwex.a(lib64_libmingwex_a-smisc.o)
 .data          0x0000000061509e50        0x0 C:/msys64/mingw64/bin/../lib/gcc/x86_64-w64-mingw32/8.2.1/../../../../x86_64-w64-mingw32/lib/../lib/libmsvcrt.a(dieybs01325.o)
 .data          0x0000000061509e50        0x0 C:/msys64/mingw64/bin/../lib/gcc/x86_64-w64-mingw32/8.2.1/../../../../x86_64-w64-mingw32/lib/../lib/libmsvcrt.a(dieybs01305.o)
 .data          0x0000000061509e50        0x0 C:/msys64/mingw64/bin/../lib/gcc/x86_64-w64-mingw32/8.2.1/../../../../x86_64-w64-mingw32/lib/../lib/libmsvcrt.a(dieybs01288.o)
 .data          0x0000000061509e50        0x0 C:/msys64/mingw64/bin/../lib/gcc/x86_64-w64-mingw32/8.2.1/../../../../x86_64-w64-mingw32/lib/../lib/libmsvcrt.a(dieybs01286.o)
 .data          0x0000000061509e50        0x0 C:/msys64/mingw64/bin/../lib/gcc/x86_64-w64-mingw32/8.2.1/../../../../x86_64-w64-mingw32/lib/../lib/libmsvcrt.a(dieybs01282.o)
 .data          0x0000000061509e50        0x0 C:/msys64/mingw64/bin/../lib/gcc/x86_64-w64-mingw32/8.2.1/../../../../x86_64-w64-mingw32/lib/../lib/libmsvcrt.a(dieybs01280.o)
 .data          0x0000000061509e50        0x0 C:/msys64/mingw64/bin/../lib/gcc/x86_64-w64-mingw32/8.2.1/../../../../x86_64-w64-mingw32/lib/../lib/libmsvcrt.a(dieybs01278.o)
 .data          0x0000000061509e50        0x0 C:/msys64/mingw64/bin/../lib/gcc/x86_64-w64-mingw32/8.2.1/../../../../x86_64-w64-mingw32/lib/../lib/libmsvcrt.a(dieybs01277.o)
 .data          0x0000000061509e50        0x0 C:/msys64/mingw64/bin/../lib/gcc/x86_64-w64-mingw32/8.2.1/../../../../x86_64-w64-mingw32/lib/../lib/libmsvcrt.a(dieybs01275.o)
 .data          0x0000000061509e50        0x0 C:/msys64/mingw64/bin/../lib/gcc/x86_64-w64-mingw32/8.2.1/../../../../x86_64-w64-mingw32/lib/../lib/libmsvcrt.a(dieybs01274.o)
 .data          0x0000000061509e50        0x0 C:/msys64/mingw64/bin/../lib/gcc/x86_64-w64-mingw32/8.2.1/../../../../x86_64-w64-mingw32/lib/../lib/libmsvcrt.a(dieybs01268.o)
 .data          0x0000000061509e50        0x0 C:/msys64/mingw64/bin/../lib/gcc/x86_64-w64-mingw32/8.2.1/../../../../x86_64-w64-mingw32/lib/../lib/libmsvcrt.a(dieybs01267.o)
 .data          0x0000000061509e50        0x0 C:/msys64/mingw64/bin/../lib/gcc/x86_64-w64-mingw32/8.2.1/../../../../x86_64-w64-mingw32/lib/../lib/libmsvcrt.a(dieybs01263.o)
 .data          0x0000000061509e50        0x0 C:/msys64/mingw64/bin/../lib/gcc/x86_64-w64-mingw32/8.2.1/../../../../x86_64-w64-mingw32/lib/../lib/libmsvcrt.a(dieybs01261.o)
 .data          0x0000000061509e50        0x0 C:/msys64/mingw64/bin/../lib/gcc/x86_64-w64-mingw32/8.2.1/../../../../x86_64-w64-mingw32/lib/../lib/libmsvcrt.a(dieybs01258.o)
 .data          0x0000000061509e50        0x0 C:/msys64/mingw64/bin/../lib/gcc/x86_64-w64-mingw32/8.2.1/../../../../x86_64-w64-mingw32/lib/../lib/libmsvcrt.a(dieybs01257.o)
 .data          0x0000000061509e50        0x0 C:/msys64/mingw64/bin/../lib/gcc/x86_64-w64-mingw32/8.2.1/../../../../x86_64-w64-mingw32/lib/../lib/libmsvcrt.a(dieybs01254.o)
 .data          0x0000000061509e50        0x0 C:/msys64/mingw64/bin/../lib/gcc/x86_64-w64-mingw32/8.2.1/../../../../x86_64-w64-mingw32/lib/../lib/libmsvcrt.a(dieybs01253.o)
 .data          0x0000000061509e50        0x0 C:/msys64/mingw64/bin/../lib/gcc/x86_64-w64-mingw32/8.2.1/../../../../x86_64-w64-mingw32/lib/../lib/libmsvcrt.a(dieybs01251.o)
 .data          0x0000000061509e50        0x0 C:/msys64/mingw64/bin/../lib/gcc/x86_64-w64-mingw32/8.2.1/../../../../x86_64-w64-mingw32/lib/../lib/libmsvcrt.a(dieybs01248.o)
 .data          0x0000000061509e50        0x0 C:/msys64/mingw64/bin/../lib/gcc/x86_64-w64-mingw32/8.2.1/../../../../x86_64-w64-mingw32/lib/../lib/libmsvcrt.a(dieybs01246.o)
 .data          0x0000000061509e50        0x0 C:/msys64/mingw64/bin/../lib/gcc/x86_64-w64-mingw32/8.2.1/../../../../x86_64-w64-mingw32/lib/../lib/libmsvcrt.a(dieybs01245.o)
 .data          0x0000000061509e50        0x0 C:/msys64/mingw64/bin/../lib/gcc/x86_64-w64-mingw32/8.2.1/../../../../x86_64-w64-mingw32/lib/../lib/libmsvcrt.a(dieybs01241.o)
 .data          0x0000000061509e50        0x0 C:/msys64/mingw64/bin/../lib/gcc/x86_64-w64-mingw32/8.2.1/../../../../x86_64-w64-mingw32/lib/../lib/libmsvcrt.a(dieybs01237.o)
 .data          0x0000000061509e50        0x0 C:/msys64/mingw64/bin/../lib/gcc/x86_64-w64-mingw32/8.2.1/../../../../x86_64-w64-mingw32/lib/../lib/libmsvcrt.a(dieybs01235.o)
 .data          0x0000000061509e50        0x0 C:/msys64/mingw64/bin/../lib/gcc/x86_64-w64-mingw32/8.2.1/../../../../x86_64-w64-mingw32/lib/../lib/libmsvcrt.a(dieybs01232.o)
 .data          0x0000000061509e50        0x0 C:/msys64/mingw64/bin/../lib/gcc/x86_64-w64-mingw32/8.2.1/../../../../x86_64-w64-mingw32/lib/../lib/libmsvcrt.a(dieybs01231.o)
 .data          0x0000000061509e50        0x0 C:/msys64/mingw64/bin/../lib/gcc/x86_64-w64-mingw32/8.2.1/../../../../x86_64-w64-mingw32/lib/../lib/libmsvcrt.a(dieybs01230.o)
 .data          0x0000000061509e50        0x0 C:/msys64/mingw64/bin/../lib/gcc/x86_64-w64-mingw32/8.2.1/../../../../x86_64-w64-mingw32/lib/../lib/libmsvcrt.a(dieybs01225.o)
 .data          0x0000000061509e50        0x0 C:/msys64/mingw64/bin/../lib/gcc/x86_64-w64-mingw32/8.2.1/../../../../x86_64-w64-mingw32/lib/../lib/libmsvcrt.a(dieybs01224.o)
 .data          0x0000000061509e50        0x0 C:/msys64/mingw64/bin/../lib/gcc/x86_64-w64-mingw32/8.2.1/../../../../x86_64-w64-mingw32/lib/../lib/libmsvcrt.a(dieybs01223.o)
 .data          0x0000000061509e50        0x0 C:/msys64/mingw64/bin/../lib/gcc/x86_64-w64-mingw32/8.2.1/../../../../x86_64-w64-mingw32/lib/../lib/libmsvcrt.a(dieybs01222.o)
 .data          0x0000000061509e50        0x0 C:/msys64/mingw64/bin/../lib/gcc/x86_64-w64-mingw32/8.2.1/../../../../x86_64-w64-mingw32/lib/../lib/libmsvcrt.a(dieybs01220.o)
 .data          0x0000000061509e50        0x0 C:/msys64/mingw64/bin/../lib/gcc/x86_64-w64-mingw32/8.2.1/../../../../x86_64-w64-mingw32/lib/../lib/libmsvcrt.a(dieybs01218.o)
 .data          0x0000000061509e50        0x0 C:/msys64/mingw64/bin/../lib/gcc/x86_64-w64-mingw32/8.2.1/../../../../x86_64-w64-mingw32/lib/../lib/libmsvcrt.a(dieybs01215.o)
 .data          0x0000000061509e50        0x0 C:/msys64/mingw64/bin/../lib/gcc/x86_64-w64-mingw32/8.2.1/../../../../x86_64-w64-mingw32/lib/../lib/libmsvcrt.a(dieybs01214.o)
 .data          0x0000000061509e50        0x0 C:/msys64/mingw64/bin/../lib/gcc/x86_64-w64-mingw32/8.2.1/../../../../x86_64-w64-mingw32/lib/../lib/libmsvcrt.a(dieybs01213.o)
 .data          0x0000000061509e50        0x0 C:/msys64/mingw64/bin/../lib/gcc/x86_64-w64-mingw32/8.2.1/../../../../x86_64-w64-mingw32/lib/../lib/libmsvcrt.a(dieybs01211.o)
 .data          0x0000000061509e50        0x0 C:/msys64/mingw64/bin/../lib/gcc/x86_64-w64-mingw32/8.2.1/../../../../x86_64-w64-mingw32/lib/../lib/libmsvcrt.a(dieybs01204.o)
 .data          0x0000000061509e50        0x0 C:/msys64/mingw64/bin/../lib/gcc/x86_64-w64-mingw32/8.2.1/../../../../x86_64-w64-mingw32/lib/../lib/libmsvcrt.a(dieybs01203.o)
 .data          0x0000000061509e50        0x0 C:/msys64/mingw64/bin/../lib/gcc/x86_64-w64-mingw32/8.2.1/../../../../x86_64-w64-mingw32/lib/../lib/libmsvcrt.a(dieybs01202.o)
 .data          0x0000000061509e50        0x0 C:/msys64/mingw64/bin/../lib/gcc/x86_64-w64-mingw32/8.2.1/../../../../x86_64-w64-mingw32/lib/../lib/libmsvcrt.a(dieybs01201.o)
 .data          0x0000000061509e50        0x0 C:/msys64/mingw64/bin/../lib/gcc/x86_64-w64-mingw32/8.2.1/../../../../x86_64-w64-mingw32/lib/../lib/libmsvcrt.a(dieybs01200.o)
 .data          0x0000000061509e50        0x0 C:/msys64/mingw64/bin/../lib/gcc/x86_64-w64-mingw32/8.2.1/../../../../x86_64-w64-mingw32/lib/../lib/libmsvcrt.a(dieybs01193.o)
 .data          0x0000000061509e50        0x0 C:/msys64/mingw64/bin/../lib/gcc/x86_64-w64-mingw32/8.2.1/../../../../x86_64-w64-mingw32/lib/../lib/libmsvcrt.a(dieybs01189.o)
 .data          0x0000000061509e50        0x0 C:/msys64/mingw64/bin/../lib/gcc/x86_64-w64-mingw32/8.2.1/../../../../x86_64-w64-mingw32/lib/../lib/libmsvcrt.a(dieybs01187.o)
 .data          0x0000000061509e50        0x0 C:/msys64/mingw64/bin/../lib/gcc/x86_64-w64-mingw32/8.2.1/../../../../x86_64-w64-mingw32/lib/../lib/libmsvcrt.a(dieybs01186.o)
 .data          0x0000000061509e50        0x0 C:/msys64/mingw64/bin/../lib/gcc/x86_64-w64-mingw32/8.2.1/../../../../x86_64-w64-mingw32/lib/../lib/libmsvcrt.a(dieybs01182.o)
 .data          0x0000000061509e50        0x0 C:/msys64/mingw64/bin/../lib/gcc/x86_64-w64-mingw32/8.2.1/../../../../x86_64-w64-mingw32/lib/../lib/libmsvcrt.a(dieybs01168.o)
 .data          0x0000000061509e50        0x0 C:/msys64/mingw64/bin/../lib/gcc/x86_64-w64-mingw32/8.2.1/../../../../x86_64-w64-mingw32/lib/../lib/libmsvcrt.a(dieybs01167.o)
 .data          0x0000000061509e50        0x0 C:/msys64/mingw64/bin/../lib/gcc/x86_64-w64-mingw32/8.2.1/../../../../x86_64-w64-mingw32/lib/../lib/libmsvcrt.a(dieybs01166.o)
 .data          0x0000000061509e50        0x0 C:/msys64/mingw64/bin/../lib/gcc/x86_64-w64-mingw32/8.2.1/../../../../x86_64-w64-mingw32/lib/../lib/libmsvcrt.a(dieybs01165.o)
 .data          0x0000000061509e50        0x0 C:/msys64/mingw64/bin/../lib/gcc/x86_64-w64-mingw32/8.2.1/../../../../x86_64-w64-mingw32/lib/../lib/libmsvcrt.a(dieybs01164.o)
 .data          0x0000000061509e50        0x0 C:/msys64/mingw64/bin/../lib/gcc/x86_64-w64-mingw32/8.2.1/../../../../x86_64-w64-mingw32/lib/../lib/libmsvcrt.a(dieybs01162.o)
 .data          0x0000000061509e50        0x0 C:/msys64/mingw64/bin/../lib/gcc/x86_64-w64-mingw32/8.2.1/../../../../x86_64-w64-mingw32/lib/../lib/libmsvcrt.a(dieybs01161.o)
 .data          0x0000000061509e50        0x0 C:/msys64/mingw64/bin/../lib/gcc/x86_64-w64-mingw32/8.2.1/../../../../x86_64-w64-mingw32/lib/../lib/libmsvcrt.a(dieybs01160.o)
 .data          0x0000000061509e50        0x0 C:/msys64/mingw64/bin/../lib/gcc/x86_64-w64-mingw32/8.2.1/../../../../x86_64-w64-mingw32/lib/../lib/libmsvcrt.a(dieybs01159.o)
 .data          0x0000000061509e50        0x0 C:/msys64/mingw64/bin/../lib/gcc/x86_64-w64-mingw32/8.2.1/../../../../x86_64-w64-mingw32/lib/../lib/libmsvcrt.a(dieybs01158.o)
 .data          0x0000000061509e50        0x0 C:/msys64/mingw64/bin/../lib/gcc/x86_64-w64-mingw32/8.2.1/../../../../x86_64-w64-mingw32/lib/../lib/libmsvcrt.a(dieybs01150.o)
 .data          0x0000000061509e50        0x0 C:/msys64/mingw64/bin/../lib/gcc/x86_64-w64-mingw32/8.2.1/../../../../x86_64-w64-mingw32/lib/../lib/libmsvcrt.a(dieybs01148.o)
 .data          0x0000000061509e50        0x0 C:/msys64/mingw64/bin/../lib/gcc/x86_64-w64-mingw32/8.2.1/../../../../x86_64-w64-mingw32/lib/../lib/libmsvcrt.a(dieybs01145.o)
 .data          0x0000000061509e50        0x0 C:/msys64/mingw64/bin/../lib/gcc/x86_64-w64-mingw32/8.2.1/../../../../x86_64-w64-mingw32/lib/../lib/libmsvcrt.a(dieybs01143.o)
 .data          0x0000000061509e50        0x0 C:/msys64/mingw64/bin/../lib/gcc/x86_64-w64-mingw32/8.2.1/../../../../x86_64-w64-mingw32/lib/../lib/libmsvcrt.a(dieybs01142.o)
 .data          0x0000000061509e50        0x0 C:/msys64/mingw64/bin/../lib/gcc/x86_64-w64-mingw32/8.2.1/../../../../x86_64-w64-mingw32/lib/../lib/libmsvcrt.a(dieybs01141.o)
 .data          0x0000000061509e50        0x0 C:/msys64/mingw64/bin/../lib/gcc/x86_64-w64-mingw32/8.2.1/../../../../x86_64-w64-mingw32/lib/../lib/libmsvcrt.a(dieybs01140.o)
 .data          0x0000000061509e50        0x0 C:/msys64/mingw64/bin/../lib/gcc/x86_64-w64-mingw32/8.2.1/../../../../x86_64-w64-mingw32/lib/../lib/libmsvcrt.a(dieybs01137.o)
 .data          0x0000000061509e50        0x0 C:/msys64/mingw64/bin/../lib/gcc/x86_64-w64-mingw32/8.2.1/../../../../x86_64-w64-mingw32/lib/../lib/libmsvcrt.a(dieybs01136.o)
 .data          0x0000000061509e50        0x0 C:/msys64/mingw64/bin/../lib/gcc/x86_64-w64-mingw32/8.2.1/../../../../x86_64-w64-mingw32/lib/../lib/libmsvcrt.a(dieybs01133.o)
 .data          0x0000000061509e50        0x0 C:/msys64/mingw64/bin/../lib/gcc/x86_64-w64-mingw32/8.2.1/../../../../x86_64-w64-mingw32/lib/../lib/libmsvcrt.a(dieybs01132.o)
 .data          0x0000000061509e50        0x0 C:/msys64/mingw64/bin/../lib/gcc/x86_64-w64-mingw32/8.2.1/../../../../x86_64-w64-mingw32/lib/../lib/libmsvcrt.a(dieybs01129.o)
 .data          0x0000000061509e50        0x0 C:/msys64/mingw64/bin/../lib/gcc/x86_64-w64-mingw32/8.2.1/../../../../x86_64-w64-mingw32/lib/../lib/libmsvcrt.a(dieybs01128.o)
 .data          0x0000000061509e50        0x0 C:/msys64/mingw64/bin/../lib/gcc/x86_64-w64-mingw32/8.2.1/../../../../x86_64-w64-mingw32/lib/../lib/libmsvcrt.a(dieybs01126.o)
 .data          0x0000000061509e50        0x0 C:/msys64/mingw64/bin/../lib/gcc/x86_64-w64-mingw32/8.2.1/../../../../x86_64-w64-mingw32/lib/../lib/libmsvcrt.a(dieybs01124.o)
 .data          0x0000000061509e50        0x0 C:/msys64/mingw64/bin/../lib/gcc/x86_64-w64-mingw32/8.2.1/../../../../x86_64-w64-mingw32/lib/../lib/libmsvcrt.a(dieybs01117.o)
 .data          0x0000000061509e50        0x0 C:/msys64/mingw64/bin/../lib/gcc/x86_64-w64-mingw32/8.2.1/../../../../x86_64-w64-mingw32/lib/../lib/libmsvcrt.a(dieybs01116.o)
 .data          0x0000000061509e50        0x0 C:/msys64/mingw64/bin/../lib/gcc/x86_64-w64-mingw32/8.2.1/../../../../x86_64-w64-mingw32/lib/../lib/libmsvcrt.a(dieybs01115.o)
 .data          0x0000000061509e50        0x0 C:/msys64/mingw64/bin/../lib/gcc/x86_64-w64-mingw32/8.2.1/../../../../x86_64-w64-mingw32/lib/../lib/libmsvcrt.a(dieybs01114.o)
 .data          0x0000000061509e50        0x0 C:/msys64/mingw64/bin/../lib/gcc/x86_64-w64-mingw32/8.2.1/../../../../x86_64-w64-mingw32/lib/../lib/libmsvcrt.a(dieybs01113.o)
 .data          0x0000000061509e50        0x0 C:/msys64/mingw64/bin/../lib/gcc/x86_64-w64-mingw32/8.2.1/../../../../x86_64-w64-mingw32/lib/../lib/libmsvcrt.a(dieybs01112.o)
 .data          0x0000000061509e50        0x0 C:/msys64/mingw64/bin/../lib/gcc/x86_64-w64-mingw32/8.2.1/../../../../x86_64-w64-mingw32/lib/../lib/libmsvcrt.a(dieybs01111.o)
 .data          0x0000000061509e50        0x0 C:/msys64/mingw64/bin/../lib/gcc/x86_64-w64-mingw32/8.2.1/../../../../x86_64-w64-mingw32/lib/../lib/libmsvcrt.a(dieybs01107.o)
 .data          0x0000000061509e50        0x0 C:/msys64/mingw64/bin/../lib/gcc/x86_64-w64-mingw32/8.2.1/../../../../x86_64-w64-mingw32/lib/../lib/libmsvcrt.a(dieybs01102.o)
 .data          0x0000000061509e50        0x0 C:/msys64/mingw64/bin/../lib/gcc/x86_64-w64-mingw32/8.2.1/../../../../x86_64-w64-mingw32/lib/../lib/libmsvcrt.a(dieybs01099.o)
 .data          0x0000000061509e50        0x0 C:/msys64/mingw64/bin/../lib/gcc/x86_64-w64-mingw32/8.2.1/../../../../x86_64-w64-mingw32/lib/../lib/libmsvcrt.a(dieybs01097.o)
 .data          0x0000000061509e50        0x0 C:/msys64/mingw64/bin/../lib/gcc/x86_64-w64-mingw32/8.2.1/../../../../x86_64-w64-mingw32/lib/../lib/libmsvcrt.a(dieybs01094.o)
 .data          0x0000000061509e50        0x0 C:/msys64/mingw64/bin/../lib/gcc/x86_64-w64-mingw32/8.2.1/../../../../x86_64-w64-mingw32/lib/../lib/libmsvcrt.a(dieybs01090.o)
 .data          0x0000000061509e50        0x0 C:/msys64/mingw64/bin/../lib/gcc/x86_64-w64-mingw32/8.2.1/../../../../x86_64-w64-mingw32/lib/../lib/libmsvcrt.a(dieybs01084.o)
 .data          0x0000000061509e50        0x0 C:/msys64/mingw64/bin/../lib/gcc/x86_64-w64-mingw32/8.2.1/../../../../x86_64-w64-mingw32/lib/../lib/libmsvcrt.a(dieybs01082.o)
 .data          0x0000000061509e50        0x0 C:/msys64/mingw64/bin/../lib/gcc/x86_64-w64-mingw32/8.2.1/../../../../x86_64-w64-mingw32/lib/../lib/libmsvcrt.a(dieybs01079.o)
 .data          0x0000000061509e50        0x0 C:/msys64/mingw64/bin/../lib/gcc/x86_64-w64-mingw32/8.2.1/../../../../x86_64-w64-mingw32/lib/../lib/libmsvcrt.a(dieybs01077.o)
 .data          0x0000000061509e50        0x0 C:/msys64/mingw64/bin/../lib/gcc/x86_64-w64-mingw32/8.2.1/../../../../x86_64-w64-mingw32/lib/../lib/libmsvcrt.a(dieybs01031.o)
 .data          0x0000000061509e50        0x0 C:/msys64/mingw64/bin/../lib/gcc/x86_64-w64-mingw32/8.2.1/../../../../x86_64-w64-mingw32/lib/../lib/libmsvcrt.a(dieybs00895.o)
 .data          0x0000000061509e50        0x0 C:/msys64/mingw64/bin/../lib/gcc/x86_64-w64-mingw32/8.2.1/../../../../x86_64-w64-mingw32/lib/../lib/libmsvcrt.a(dieybs00863.o)
 .data          0x0000000061509e50        0x0 C:/msys64/mingw64/bin/../lib/gcc/x86_64-w64-mingw32/8.2.1/../../../../x86_64-w64-mingw32/lib/../lib/libmsvcrt.a(dieybs00834.o)
 .data          0x0000000061509e50        0x0 C:/msys64/mingw64/bin/../lib/gcc/x86_64-w64-mingw32/8.2.1/../../../../x86_64-w64-mingw32/lib/../lib/libmsvcrt.a(dieybs00789.o)
 .data          0x0000000061509e50        0x0 C:/msys64/mingw64/bin/../lib/gcc/x86_64-w64-mingw32/8.2.1/../../../../x86_64-w64-mingw32/lib/../lib/libmsvcrt.a(dieybs00728.o)
 .data          0x0000000061509e50        0x0 C:/msys64/mingw64/bin/../lib/gcc/x86_64-w64-mingw32/8.2.1/../../../../x86_64-w64-mingw32/lib/../lib/libmsvcrt.a(dieybs00714.o)
 .data          0x0000000061509e50        0x0 C:/msys64/mingw64/bin/../lib/gcc/x86_64-w64-mingw32/8.2.1/../../../../x86_64-w64-mingw32/lib/../lib/libmsvcrt.a(dieybs00663.o)
 .data          0x0000000061509e50        0x0 C:/msys64/mingw64/bin/../lib/gcc/x86_64-w64-mingw32/8.2.1/../../../../x86_64-w64-mingw32/lib/../lib/libmsvcrt.a(dieybs00659.o)
 .data          0x0000000061509e50        0x0 C:/msys64/mingw64/bin/../lib/gcc/x86_64-w64-mingw32/8.2.1/../../../../x86_64-w64-mingw32/lib/../lib/libmsvcrt.a(dieybs00651.o)
 .data          0x0000000061509e50        0x0 C:/msys64/mingw64/bin/../lib/gcc/x86_64-w64-mingw32/8.2.1/../../../../x86_64-w64-mingw32/lib/../lib/libmsvcrt.a(dieybs00646.o)
 .data          0x0000000061509e50        0x0 C:/msys64/mingw64/bin/../lib/gcc/x86_64-w64-mingw32/8.2.1/../../../../x86_64-w64-mingw32/lib/../lib/libmsvcrt.a(dieybs00489.o)
 .data          0x0000000061509e50        0x0 C:/msys64/mingw64/bin/../lib/gcc/x86_64-w64-mingw32/8.2.1/../../../../x86_64-w64-mingw32/lib/../lib/libmsvcrt.a(dieybs00479.o)
 .data          0x0000000061509e50        0x0 C:/msys64/mingw64/bin/../lib/gcc/x86_64-w64-mingw32/8.2.1/../../../../x86_64-w64-mingw32/lib/../lib/libmsvcrt.a(dieybs00478.o)
 .data          0x0000000061509e50        0x0 C:/msys64/mingw64/bin/../lib/gcc/x86_64-w64-mingw32/8.2.1/../../../../x86_64-w64-mingw32/lib/../lib/libmsvcrt.a(dieybs00373.o)
 .data          0x0000000061509e50        0x0 C:/msys64/mingw64/bin/../lib/gcc/x86_64-w64-mingw32/8.2.1/../../../../x86_64-w64-mingw32/lib/../lib/libmsvcrt.a(dieybs00369.o)
 .data          0x0000000061509e50        0x0 C:/msys64/mingw64/bin/../lib/gcc/x86_64-w64-mingw32/8.2.1/../../../../x86_64-w64-mingw32/lib/../lib/libmsvcrt.a(dieybs00353.o)
 .data          0x0000000061509e50        0x0 C:/msys64/mingw64/bin/../lib/gcc/x86_64-w64-mingw32/8.2.1/../../../../x86_64-w64-mingw32/lib/../lib/libmsvcrt.a(dieybs00288.o)
 .data          0x0000000061509e50        0x0 C:/msys64/mingw64/bin/../lib/gcc/x86_64-w64-mingw32/8.2.1/../../../../x86_64-w64-mingw32/lib/../lib/libmsvcrt.a(dieybs00273.o)
 .data          0x0000000061509e50        0x0 C:/msys64/mingw64/bin/../lib/gcc/x86_64-w64-mingw32/8.2.1/../../../../x86_64-w64-mingw32/lib/../lib/libmsvcrt.a(dieybs00271.o)
 .data          0x0000000061509e50        0x0 C:/msys64/mingw64/bin/../lib/gcc/x86_64-w64-mingw32/8.2.1/../../../../x86_64-w64-mingw32/lib/../lib/libmsvcrt.a(dieybs00254.o)
 .data          0x0000000061509e50        0x0 C:/msys64/mingw64/bin/../lib/gcc/x86_64-w64-mingw32/8.2.1/../../../../x86_64-w64-mingw32/lib/../lib/libmsvcrt.a(dieybs00237.o)
 .data          0x0000000061509e50        0x0 C:/msys64/mingw64/bin/../lib/gcc/x86_64-w64-mingw32/8.2.1/../../../../x86_64-w64-mingw32/lib/../lib/libmsvcrt.a(dieybs00233.o)
 .data          0x0000000061509e50        0x0 C:/msys64/mingw64/bin/../lib/gcc/x86_64-w64-mingw32/8.2.1/../../../../x86_64-w64-mingw32/lib/../lib/libmsvcrt.a(dieybs00171.o)
 .data          0x0000000061509e50        0x0 C:/msys64/mingw64/bin/../lib/gcc/x86_64-w64-mingw32/8.2.1/../../../../x86_64-w64-mingw32/lib/../lib/libmsvcrt.a(dieybs00162.o)
 .data          0x0000000061509e50        0x0 C:/msys64/mingw64/bin/../lib/gcc/x86_64-w64-mingw32/8.2.1/../../../../x86_64-w64-mingw32/lib/../lib/libmsvcrt.a(dieybs00156.o)
 .data          0x0000000061509e50        0x0 C:/msys64/mingw64/bin/../lib/gcc/x86_64-w64-mingw32/8.2.1/../../../../x86_64-w64-mingw32/lib/../lib/libmsvcrt.a(dieybs00142.o)
 .data          0x0000000061509e50        0x0 C:/msys64/mingw64/bin/../lib/gcc/x86_64-w64-mingw32/8.2.1/../../../../x86_64-w64-mingw32/lib/../lib/libmsvcrt.a(dieybs00122.o)
 .data          0x0000000061509e50        0x0 C:/msys64/mingw64/bin/../lib/gcc/x86_64-w64-mingw32/8.2.1/../../../../x86_64-w64-mingw32/lib/../lib/libmsvcrt.a(dieybs00083.o)
 .data          0x0000000061509e50        0x0 C:/msys64/mingw64/bin/../lib/gcc/x86_64-w64-mingw32/8.2.1/../../../../x86_64-w64-mingw32/lib/../lib/libmsvcrt.a(dieybs00079.o)
 .data          0x0000000061509e50        0x0 C:/msys64/mingw64/bin/../lib/gcc/x86_64-w64-mingw32/8.2.1/../../../../x86_64-w64-mingw32/lib/../lib/libmsvcrt.a(dieybs00078.o)
 .data          0x0000000061509e50        0x0 C:/msys64/mingw64/bin/../lib/gcc/x86_64-w64-mingw32/8.2.1/../../../../x86_64-w64-mingw32/lib/../lib/libmsvcrt.a(dieybs00058.o)
 .data          0x0000000061509e50        0x0 C:/msys64/mingw64/bin/../lib/gcc/x86_64-w64-mingw32/8.2.1/../../../../x86_64-w64-mingw32/lib/../lib/libmsvcrt.a(dieybh.o)
 .data          0x0000000061509e50        0x0 C:/msys64/mingw64/bin/../lib/gcc/x86_64-w64-mingw32/8.2.1/../../../../x86_64-w64-mingw32/lib/../lib/libmsvcrt.a(dieybt.o)
 .data          0x0000000061509e50        0x0 C:/msys64/mingw64/bin/../lib/gcc/x86_64-w64-mingw32/8.2.1/../../../../x86_64-w64-mingw32/lib/../lib/libuser32.a(dyotbs00619.o)
 .data          0x0000000061509e50        0x0 C:/msys64/mingw64/bin/../lib/gcc/x86_64-w64-mingw32/8.2.1/../../../../x86_64-w64-mingw32/lib/../lib/libuser32.a(dyotbh.o)
 .data          0x0000000061509e50        0x0 C:/msys64/mingw64/bin/../lib/gcc/x86_64-w64-mingw32/8.2.1/../../../../x86_64-w64-mingw32/lib/../lib/libuser32.a(dyotbt.o)
 .data          0x0000000061509e50        0x0 C:/msys64/mingw64/bin/../lib/gcc/x86_64-w64-mingw32/8.2.1/../../../../x86_64-w64-mingw32/lib/../lib/libkernel32.a(dkzxbs01510.o)
 .data          0x0000000061509e50        0x0 C:/msys64/mingw64/bin/../lib/gcc/x86_64-w64-mingw32/8.2.1/../../../../x86_64-w64-mingw32/lib/../lib/libkernel32.a(dkzxbs01490.o)
 .data          0x0000000061509e50        0x0 C:/msys64/mingw64/bin/../lib/gcc/x86_64-w64-mingw32/8.2.1/../../../../x86_64-w64-mingw32/lib/../lib/libkernel32.a(dkzxbs01454.o)
 .data          0x0000000061509e50        0x0 C:/msys64/mingw64/bin/../lib/gcc/x86_64-w64-mingw32/8.2.1/../../../../x86_64-w64-mingw32/lib/../lib/libkernel32.a(dkzxbs01453.o)
 .data          0x0000000061509e50        0x0 C:/msys64/mingw64/bin/../lib/gcc/x86_64-w64-mingw32/8.2.1/../../../../x86_64-w64-mingw32/lib/../lib/libkernel32.a(dkzxbs01445.o)
 .data          0x0000000061509e50        0x0 C:/msys64/mingw64/bin/../lib/gcc/x86_64-w64-mingw32/8.2.1/../../../../x86_64-w64-mingw32/lib/../lib/libkernel32.a(dkzxbs01443.o)
 .data          0x0000000061509e50        0x0 C:/msys64/mingw64/bin/../lib/gcc/x86_64-w64-mingw32/8.2.1/../../../../x86_64-w64-mingw32/lib/../lib/libkernel32.a(dkzxbs01440.o)
 .data          0x0000000061509e50        0x0 C:/msys64/mingw64/bin/../lib/gcc/x86_64-w64-mingw32/8.2.1/../../../../x86_64-w64-mingw32/lib/../lib/libkernel32.a(dkzxbs01436.o)
 .data          0x0000000061509e50        0x0 C:/msys64/mingw64/bin/../lib/gcc/x86_64-w64-mingw32/8.2.1/../../../../x86_64-w64-mingw32/lib/../lib/libkernel32.a(dkzxbs01412.o)
 .data          0x0000000061509e50        0x0 C:/msys64/mingw64/bin/../lib/gcc/x86_64-w64-mingw32/8.2.1/../../../../x86_64-w64-mingw32/lib/../lib/libkernel32.a(dkzxbs01411.o)
 .data          0x0000000061509e50        0x0 C:/msys64/mingw64/bin/../lib/gcc/x86_64-w64-mingw32/8.2.1/../../../../x86_64-w64-mingw32/lib/../lib/libkernel32.a(dkzxbs01410.o)
 .data          0x0000000061509e50        0x0 C:/msys64/mingw64/bin/../lib/gcc/x86_64-w64-mingw32/8.2.1/../../../../x86_64-w64-mingw32/lib/../lib/libkernel32.a(dkzxbs01409.o)
 .data          0x0000000061509e50        0x0 C:/msys64/mingw64/bin/../lib/gcc/x86_64-w64-mingw32/8.2.1/../../../../x86_64-w64-mingw32/lib/../lib/libkernel32.a(dkzxbs01402.o)
 .data          0x0000000061509e50        0x0 C:/msys64/mingw64/bin/../lib/gcc/x86_64-w64-mingw32/8.2.1/../../../../x86_64-w64-mingw32/lib/../lib/libkernel32.a(dkzxbs01395.o)
 .data          0x0000000061509e50        0x0 C:/msys64/mingw64/bin/../lib/gcc/x86_64-w64-mingw32/8.2.1/../../../../x86_64-w64-mingw32/lib/../lib/libkernel32.a(dkzxbs01375.o)
 .data          0x0000000061509e50        0x0 C:/msys64/mingw64/bin/../lib/gcc/x86_64-w64-mingw32/8.2.1/../../../../x86_64-w64-mingw32/lib/../lib/libkernel32.a(dkzxbs01371.o)
 .data          0x0000000061509e50        0x0 C:/msys64/mingw64/bin/../lib/gcc/x86_64-w64-mingw32/8.2.1/../../../../x86_64-w64-mingw32/lib/../lib/libkernel32.a(dkzxbs01360.o)
 .data          0x0000000061509e50        0x0 C:/msys64/mingw64/bin/../lib/gcc/x86_64-w64-mingw32/8.2.1/../../../../x86_64-w64-mingw32/lib/../lib/libkernel32.a(dkzxbs01346.o)
 .data          0x0000000061509e50        0x0 C:/msys64/mingw64/bin/../lib/gcc/x86_64-w64-mingw32/8.2.1/../../../../x86_64-w64-mingw32/lib/../lib/libkernel32.a(dkzxbs01290.o)
 .data          0x0000000061509e50        0x0 C:/msys64/mingw64/bin/../lib/gcc/x86_64-w64-mingw32/8.2.1/../../../../x86_64-w64-mingw32/lib/../lib/libkernel32.a(dkzxbs01276.o)
 .data          0x0000000061509e50        0x0 C:/msys64/mingw64/bin/../lib/gcc/x86_64-w64-mingw32/8.2.1/../../../../x86_64-w64-mingw32/lib/../lib/libkernel32.a(dkzxbs01257.o)
 .data          0x0000000061509e50        0x0 C:/msys64/mingw64/bin/../lib/gcc/x86_64-w64-mingw32/8.2.1/../../../../x86_64-w64-mingw32/lib/../lib/libkernel32.a(dkzxbs01243.o)
 .data          0x0000000061509e50        0x0 C:/msys64/mingw64/bin/../lib/gcc/x86_64-w64-mingw32/8.2.1/../../../../x86_64-w64-mingw32/lib/../lib/libkernel32.a(dkzxbs01194.o)
 .data          0x0000000061509e50        0x0 C:/msys64/mingw64/bin/../lib/gcc/x86_64-w64-mingw32/8.2.1/../../../../x86_64-w64-mingw32/lib/../lib/libkernel32.a(dkzxbs01193.o)
 .data          0x0000000061509e50        0x0 C:/msys64/mingw64/bin/../lib/gcc/x86_64-w64-mingw32/8.2.1/../../../../x86_64-w64-mingw32/lib/../lib/libkernel32.a(dkzxbs01187.o)
 .data          0x0000000061509e50        0x0 C:/msys64/mingw64/bin/../lib/gcc/x86_64-w64-mingw32/8.2.1/../../../../x86_64-w64-mingw32/lib/../lib/libkernel32.a(dkzxbs01180.o)
 .data          0x0000000061509e50        0x0 C:/msys64/mingw64/bin/../lib/gcc/x86_64-w64-mingw32/8.2.1/../../../../x86_64-w64-mingw32/lib/../lib/libkernel32.a(dkzxbs01179.o)
 .data          0x0000000061509e50        0x0 C:/msys64/mingw64/bin/../lib/gcc/x86_64-w64-mingw32/8.2.1/../../../../x86_64-w64-mingw32/lib/../lib/libkernel32.a(dkzxbs01128.o)
 .data          0x0000000061509e50        0x0 C:/msys64/mingw64/bin/../lib/gcc/x86_64-w64-mingw32/8.2.1/../../../../x86_64-w64-mingw32/lib/../lib/libkernel32.a(dkzxbs01112.o)
 .data          0x0000000061509e50        0x0 C:/msys64/mingw64/bin/../lib/gcc/x86_64-w64-mingw32/8.2.1/../../../../x86_64-w64-mingw32/lib/../lib/libkernel32.a(dkzxbs01093.o)
 .data          0x0000000061509e50        0x0 C:/msys64/mingw64/bin/../lib/gcc/x86_64-w64-mingw32/8.2.1/../../../../x86_64-w64-mingw32/lib/../lib/libkernel32.a(dkzxbs01042.o)
 .data          0x0000000061509e50        0x0 C:/msys64/mingw64/bin/../lib/gcc/x86_64-w64-mingw32/8.2.1/../../../../x86_64-w64-mingw32/lib/../lib/libkernel32.a(dkzxbs01041.o)
 .data          0x0000000061509e50        0x0 C:/msys64/mingw64/bin/../lib/gcc/x86_64-w64-mingw32/8.2.1/../../../../x86_64-w64-mingw32/lib/../lib/libkernel32.a(dkzxbs00999.o)
 .data          0x0000000061509e50        0x0 C:/msys64/mingw64/bin/../lib/gcc/x86_64-w64-mingw32/8.2.1/../../../../x86_64-w64-mingw32/lib/../lib/libkernel32.a(dkzxbs00982.o)
 .data          0x0000000061509e50        0x0 C:/msys64/mingw64/bin/../lib/gcc/x86_64-w64-mingw32/8.2.1/../../../../x86_64-w64-mingw32/lib/../lib/libkernel32.a(dkzxbs00978.o)
 .data          0x0000000061509e50        0x0 C:/msys64/mingw64/bin/../lib/gcc/x86_64-w64-mingw32/8.2.1/../../../../x86_64-w64-mingw32/lib/../lib/libkernel32.a(dkzxbs00977.o)
 .data          0x0000000061509e50        0x0 C:/msys64/mingw64/bin/../lib/gcc/x86_64-w64-mingw32/8.2.1/../../../../x86_64-w64-mingw32/lib/../lib/libkernel32.a(dkzxbs00967.o)
 .data          0x0000000061509e50        0x0 C:/msys64/mingw64/bin/../lib/gcc/x86_64-w64-mingw32/8.2.1/../../../../x86_64-w64-mingw32/lib/../lib/libkernel32.a(dkzxbs00957.o)
 .data          0x0000000061509e50        0x0 C:/msys64/mingw64/bin/../lib/gcc/x86_64-w64-mingw32/8.2.1/../../../../x86_64-w64-mingw32/lib/../lib/libkernel32.a(dkzxbs00955.o)
 .data          0x0000000061509e50        0x0 C:/msys64/mingw64/bin/../lib/gcc/x86_64-w64-mingw32/8.2.1/../../../../x86_64-w64-mingw32/lib/../lib/libkernel32.a(dkzxbs00954.o)
 .data          0x0000000061509e50        0x0 C:/msys64/mingw64/bin/../lib/gcc/x86_64-w64-mingw32/8.2.1/../../../../x86_64-w64-mingw32/lib/../lib/libkernel32.a(dkzxbs00951.o)
 .data          0x0000000061509e50        0x0 C:/msys64/mingw64/bin/../lib/gcc/x86_64-w64-mingw32/8.2.1/../../../../x86_64-w64-mingw32/lib/../lib/libkernel32.a(dkzxbs00863.o)
 .data          0x0000000061509e50        0x0 C:/msys64/mingw64/bin/../lib/gcc/x86_64-w64-mingw32/8.2.1/../../../../x86_64-w64-mingw32/lib/../lib/libkernel32.a(dkzxbs00851.o)
 .data          0x0000000061509e50        0x0 C:/msys64/mingw64/bin/../lib/gcc/x86_64-w64-mingw32/8.2.1/../../../../x86_64-w64-mingw32/lib/../lib/libkernel32.a(dkzxbs00847.o)
 .data          0x0000000061509e50        0x0 C:/msys64/mingw64/bin/../lib/gcc/x86_64-w64-mingw32/8.2.1/../../../../x86_64-w64-mingw32/lib/../lib/libkernel32.a(dkzxbs00845.o)
 .data          0x0000000061509e50        0x0 C:/msys64/mingw64/bin/../lib/gcc/x86_64-w64-mingw32/8.2.1/../../../../x86_64-w64-mingw32/lib/../lib/libkernel32.a(dkzxbs00841.o)
 .data          0x0000000061509e50        0x0 C:/msys64/mingw64/bin/../lib/gcc/x86_64-w64-mingw32/8.2.1/../../../../x86_64-w64-mingw32/lib/../lib/libkernel32.a(dkzxbs00839.o)
 .data          0x0000000061509e50        0x0 C:/msys64/mingw64/bin/../lib/gcc/x86_64-w64-mingw32/8.2.1/../../../../x86_64-w64-mingw32/lib/../lib/libkernel32.a(dkzxbs00837.o)
 .data          0x0000000061509e50        0x0 C:/msys64/mingw64/bin/../lib/gcc/x86_64-w64-mingw32/8.2.1/../../../../x86_64-w64-mingw32/lib/../lib/libkernel32.a(dkzxbs00836.o)
 .data          0x0000000061509e50        0x0 C:/msys64/mingw64/bin/../lib/gcc/x86_64-w64-mingw32/8.2.1/../../../../x86_64-w64-mingw32/lib/../lib/libkernel32.a(dkzxbs00835.o)
 .data          0x0000000061509e50        0x0 C:/msys64/mingw64/bin/../lib/gcc/x86_64-w64-mingw32/8.2.1/../../../../x86_64-w64-mingw32/lib/../lib/libkernel32.a(dkzxbs00794.o)
 .data          0x0000000061509e50        0x0 C:/msys64/mingw64/bin/../lib/gcc/x86_64-w64-mingw32/8.2.1/../../../../x86_64-w64-mingw32/lib/../lib/libkernel32.a(dkzxbs00793.o)
 .data          0x0000000061509e50        0x0 C:/msys64/mingw64/bin/../lib/gcc/x86_64-w64-mingw32/8.2.1/../../../../x86_64-w64-mingw32/lib/../lib/libkernel32.a(dkzxbs00781.o)
 .data          0x0000000061509e50        0x0 C:/msys64/mingw64/bin/../lib/gcc/x86_64-w64-mingw32/8.2.1/../../../../x86_64-w64-mingw32/lib/../lib/libkernel32.a(dkzxbs00774.o)
 .data          0x0000000061509e50        0x0 C:/msys64/mingw64/bin/../lib/gcc/x86_64-w64-mingw32/8.2.1/../../../../x86_64-w64-mingw32/lib/../lib/libkernel32.a(dkzxbs00759.o)
 .data          0x0000000061509e50        0x0 C:/msys64/mingw64/bin/../lib/gcc/x86_64-w64-mingw32/8.2.1/../../../../x86_64-w64-mingw32/lib/../lib/libkernel32.a(dkzxbs00758.o)
 .data          0x0000000061509e50        0x0 C:/msys64/mingw64/bin/../lib/gcc/x86_64-w64-mingw32/8.2.1/../../../../x86_64-w64-mingw32/lib/../lib/libkernel32.a(dkzxbs00746.o)
 .data          0x0000000061509e50        0x0 C:/msys64/mingw64/bin/../lib/gcc/x86_64-w64-mingw32/8.2.1/../../../../x86_64-w64-mingw32/lib/../lib/libkernel32.a(dkzxbs00744.o)
 .data          0x0000000061509e50        0x0 C:/msys64/mingw64/bin/../lib/gcc/x86_64-w64-mingw32/8.2.1/../../../../x86_64-w64-mingw32/lib/../lib/libkernel32.a(dkzxbs00740.o)
 .data          0x0000000061509e50        0x0 C:/msys64/mingw64/bin/../lib/gcc/x86_64-w64-mingw32/8.2.1/../../../../x86_64-w64-mingw32/lib/../lib/libkernel32.a(dkzxbs00724.o)
 .data          0x0000000061509e50        0x0 C:/msys64/mingw64/bin/../lib/gcc/x86_64-w64-mingw32/8.2.1/../../../../x86_64-w64-mingw32/lib/../lib/libkernel32.a(dkzxbs00694.o)
 .data          0x0000000061509e50        0x0 C:/msys64/mingw64/bin/../lib/gcc/x86_64-w64-mingw32/8.2.1/../../../../x86_64-w64-mingw32/lib/../lib/libkernel32.a(dkzxbs00689.o)
 .data          0x0000000061509e50        0x0 C:/msys64/mingw64/bin/../lib/gcc/x86_64-w64-mingw32/8.2.1/../../../../x86_64-w64-mingw32/lib/../lib/libkernel32.a(dkzxbs00631.o)
 .data          0x0000000061509e50        0x0 C:/msys64/mingw64/bin/../lib/gcc/x86_64-w64-mingw32/8.2.1/../../../../x86_64-w64-mingw32/lib/../lib/libkernel32.a(dkzxbs00630.o)
 .data          0x0000000061509e50        0x0 C:/msys64/mingw64/bin/../lib/gcc/x86_64-w64-mingw32/8.2.1/../../../../x86_64-w64-mingw32/lib/../lib/libkernel32.a(dkzxbs00629.o)
 .data          0x0000000061509e50        0x0 C:/msys64/mingw64/bin/../lib/gcc/x86_64-w64-mingw32/8.2.1/../../../../x86_64-w64-mingw32/lib/../lib/libkernel32.a(dkzxbs00628.o)
 .data          0x0000000061509e50        0x0 C:/msys64/mingw64/bin/../lib/gcc/x86_64-w64-mingw32/8.2.1/../../../../x86_64-w64-mingw32/lib/../lib/libkernel32.a(dkzxbs00609.o)
 .data          0x0000000061509e50        0x0 C:/msys64/mingw64/bin/../lib/gcc/x86_64-w64-mingw32/8.2.1/../../../../x86_64-w64-mingw32/lib/../lib/libkernel32.a(dkzxbs00603.o)
 .data          0x0000000061509e50        0x0 C:/msys64/mingw64/bin/../lib/gcc/x86_64-w64-mingw32/8.2.1/../../../../x86_64-w64-mingw32/lib/../lib/libkernel32.a(dkzxbs00600.o)
 .data          0x0000000061509e50        0x0 C:/msys64/mingw64/bin/../lib/gcc/x86_64-w64-mingw32/8.2.1/../../../../x86_64-w64-mingw32/lib/../lib/libkernel32.a(dkzxbs00589.o)
 .data          0x0000000061509e50        0x0 C:/msys64/mingw64/bin/../lib/gcc/x86_64-w64-mingw32/8.2.1/../../../../x86_64-w64-mingw32/lib/../lib/libkernel32.a(dkzxbs00583.o)
 .data          0x0000000061509e50        0x0 C:/msys64/mingw64/bin/../lib/gcc/x86_64-w64-mingw32/8.2.1/../../../../x86_64-w64-mingw32/lib/../lib/libkernel32.a(dkzxbs00580.o)
 .data          0x0000000061509e50        0x0 C:/msys64/mingw64/bin/../lib/gcc/x86_64-w64-mingw32/8.2.1/../../../../x86_64-w64-mingw32/lib/../lib/libkernel32.a(dkzxbs00578.o)
 .data          0x0000000061509e50        0x0 C:/msys64/mingw64/bin/../lib/gcc/x86_64-w64-mingw32/8.2.1/../../../../x86_64-w64-mingw32/lib/../lib/libkernel32.a(dkzxbs00555.o)
 .data          0x0000000061509e50        0x0 C:/msys64/mingw64/bin/../lib/gcc/x86_64-w64-mingw32/8.2.1/../../../../x86_64-w64-mingw32/lib/../lib/libkernel32.a(dkzxbs00552.o)
 .data          0x0000000061509e50        0x0 C:/msys64/mingw64/bin/../lib/gcc/x86_64-w64-mingw32/8.2.1/../../../../x86_64-w64-mingw32/lib/../lib/libkernel32.a(dkzxbs00540.o)
 .data          0x0000000061509e50        0x0 C:/msys64/mingw64/bin/../lib/gcc/x86_64-w64-mingw32/8.2.1/../../../../x86_64-w64-mingw32/lib/../lib/libkernel32.a(dkzxbs00536.o)
 .data          0x0000000061509e50        0x0 C:/msys64/mingw64/bin/../lib/gcc/x86_64-w64-mingw32/8.2.1/../../../../x86_64-w64-mingw32/lib/../lib/libkernel32.a(dkzxbs00535.o)
 .data          0x0000000061509e50        0x0 C:/msys64/mingw64/bin/../lib/gcc/x86_64-w64-mingw32/8.2.1/../../../../x86_64-w64-mingw32/lib/../lib/libkernel32.a(dkzxbs00514.o)
 .data          0x0000000061509e50        0x0 C:/msys64/mingw64/bin/../lib/gcc/x86_64-w64-mingw32/8.2.1/../../../../x86_64-w64-mingw32/lib/../lib/libkernel32.a(dkzxbs00427.o)
 .data          0x0000000061509e50        0x0 C:/msys64/mingw64/bin/../lib/gcc/x86_64-w64-mingw32/8.2.1/../../../../x86_64-w64-mingw32/lib/../lib/libkernel32.a(dkzxbs00423.o)
 .data          0x0000000061509e50        0x0 C:/msys64/mingw64/bin/../lib/gcc/x86_64-w64-mingw32/8.2.1/../../../../x86_64-w64-mingw32/lib/../lib/libkernel32.a(dkzxbs00422.o)
 .data          0x0000000061509e50        0x0 C:/msys64/mingw64/bin/../lib/gcc/x86_64-w64-mingw32/8.2.1/../../../../x86_64-w64-mingw32/lib/../lib/libkernel32.a(dkzxbs00415.o)
 .data          0x0000000061509e50        0x0 C:/msys64/mingw64/bin/../lib/gcc/x86_64-w64-mingw32/8.2.1/../../../../x86_64-w64-mingw32/lib/../lib/libkernel32.a(dkzxbs00304.o)
 .data          0x0000000061509e50        0x0 C:/msys64/mingw64/bin/../lib/gcc/x86_64-w64-mingw32/8.2.1/../../../../x86_64-w64-mingw32/lib/../lib/libkernel32.a(dkzxbs00273.o)
 .data          0x0000000061509e50        0x0 C:/msys64/mingw64/bin/../lib/gcc/x86_64-w64-mingw32/8.2.1/../../../../x86_64-w64-mingw32/lib/../lib/libkernel32.a(dkzxbs00270.o)
 .data          0x0000000061509e50        0x0 C:/msys64/mingw64/bin/../lib/gcc/x86_64-w64-mingw32/8.2.1/../../../../x86_64-w64-mingw32/lib/../lib/libkernel32.a(dkzxbs00268.o)
 .data          0x0000000061509e50        0x0 C:/msys64/mingw64/bin/../lib/gcc/x86_64-w64-mingw32/8.2.1/../../../../x86_64-w64-mingw32/lib/../lib/libkernel32.a(dkzxbs00237.o)
 .data          0x0000000061509e50        0x0 C:/msys64/mingw64/bin/../lib/gcc/x86_64-w64-mingw32/8.2.1/../../../../x86_64-w64-mingw32/lib/../lib/libkernel32.a(dkzxbs00214.o)
 .data          0x0000000061509e50        0x0 C:/msys64/mingw64/bin/../lib/gcc/x86_64-w64-mingw32/8.2.1/../../../../x86_64-w64-mingw32/lib/../lib/libkernel32.a(dkzxbs00199.o)
 .data          0x0000000061509e50        0x0 C:/msys64/mingw64/bin/../lib/gcc/x86_64-w64-mingw32/8.2.1/../../../../x86_64-w64-mingw32/lib/../lib/libkernel32.a(dkzxbs00196.o)
 .data          0x0000000061509e50        0x0 C:/msys64/mingw64/bin/../lib/gcc/x86_64-w64-mingw32/8.2.1/../../../../x86_64-w64-mingw32/lib/../lib/libkernel32.a(dkzxbs00192.o)
 .data          0x0000000061509e50        0x0 C:/msys64/mingw64/bin/../lib/gcc/x86_64-w64-mingw32/8.2.1/../../../../x86_64-w64-mingw32/lib/../lib/libkernel32.a(dkzxbs00191.o)
 .data          0x0000000061509e50        0x0 C:/msys64/mingw64/bin/../lib/gcc/x86_64-w64-mingw32/8.2.1/../../../../x86_64-w64-mingw32/lib/../lib/libkernel32.a(dkzxbs00130.o)
 .data          0x0000000061509e50        0x0 C:/msys64/mingw64/bin/../lib/gcc/x86_64-w64-mingw32/8.2.1/../../../../x86_64-w64-mingw32/lib/../lib/libkernel32.a(dkzxbs00027.o)
 .data          0x0000000061509e50        0x0 C:/msys64/mingw64/bin/../lib/gcc/x86_64-w64-mingw32/8.2.1/../../../../x86_64-w64-mingw32/lib/../lib/libkernel32.a(dkzxbh.o)
 .data          0x0000000061509e50        0x0 C:/msys64/mingw64/bin/../lib/gcc/x86_64-w64-mingw32/8.2.1/../../../../x86_64-w64-mingw32/lib/../lib/libkernel32.a(dkzxbt.o)
 .data          0x0000000061509e50        0x0 C:/msys64/mingw64/bin/../lib/gcc/x86_64-w64-mingw32/8.2.1/../../../../x86_64-w64-mingw32/lib/../lib/libmingw32.a(lib64_libmingw32_a-merr.o)
 .data          0x0000000061509e50        0x0 C:/msys64/mingw64/bin/../lib/gcc/x86_64-w64-mingw32/8.2.1/../../../../x86_64-w64-mingw32/lib/../lib/libmsvcrt.a(dieybs00127.o)
 .data          0x0000000061509e50        0x0 C:/msys64/mingw64/bin/../lib/gcc/x86_64-w64-mingw32/8.2.1/crtend.o
 *(.data2)
 *(SORT(.data$*))
 .data$__security_cookie
                0x0000000061509e50       0x10 C:/msys64/mingw64/bin/../lib/gcc/x86_64-w64-mingw32/8.2.1/../../../../x86_64-w64-mingw32/lib/../lib/libmingw32.a(lib64_libmingw32_a-gs_support.o)
                0x0000000061509e50                __security_cookie
 .data$__security_cookie_complement
                0x0000000061509e60       0x10 C:/msys64/mingw64/bin/../lib/gcc/x86_64-w64-mingw32/8.2.1/../../../../x86_64-w64-mingw32/lib/../lib/libmingw32.a(lib64_libmingw32_a-gs_support.o)
                0x0000000061509e60                __security_cookie_complement
 *(.jcr)
                0x0000000061509e70                __data_end__ = .
 *(.data_cygwin_nocopy)

.rdata          0x000000006150a000    0x1e600
 *(.rdata)
 .rdata         0x000000006150a000      0x6c0 C:\msys64\tmp\ccfy01SD.o
 .rdata         0x000000006150a6c0      0x100 C:\msys64\tmp\ccWMuz0v.o
 .rdata         0x000000006150a7c0      0x110 C:\msys64\tmp\ccFOXHzz.o
 *fill*         0x000000006150a8d0       0x10 
 .rdata         0x000000006150a8e0      0x540 C:\msys64\tmp\ccLjWXKz.o
 .rdata         0x000000006150ae20      0x610 C:\msys64\tmp\ccz1diiN.o
 *fill*         0x000000006150b430       0x10 
 .rdata         0x000000006150b440      0x1e0 C:\msys64\tmp\ccVizNw9.o
 .rdata         0x000000006150b620     0x1240 C:\msys64\tmp\ccjhsTYI.o
 .rdata         0x000000006150c860      0xb40 C:\msys64\tmp\ccLt5nLD.o
 .rdata         0x000000006150d3a0      0x440 C:\msys64\tmp\ccuoZVRF.o
 .rdata         0x000000006150d7e0       0xf0 C:\msys64\tmp\cctFmZYO.o
 .rdata         0x000000006150d8d0      0x560 C:\msys64\tmp\ccuduyC5.o
 .rdata         0x000000006150de30       0x90 C:\msys64\tmp\ccJuBzPw.o
 .rdata         0x000000006150dec0     0x2ee0 C:\msys64\tmp\ccTqPSxT.o
 .rdata         0x0000000061510da0     0xaa20 C:\msys64\tmp\ccXRde14.o
                0x0000000061510da0                sqlite3_version
 .rdata         0x000000006151b7c0       0x70 C:\msys64\tmp\ccpSIAqr.o
 .rdata         0x000000006151b830       0x40 C:\msys64\tmp\ccZkAuiV.o
 .rdata         0x000000006151b870       0x20 C:\msys64\tmp\ccJabTGs.o
 .rdata         0x000000006151b890       0xb0 C:\msys64\tmp\ccQHA7kH.o
 .rdata         0x000000006151b940       0x20 C:\msys64\tmp\ccDKFcP3.o
 .rdata         0x000000006151b960      0x120 C:\msys64\tmp\ccRApjM5.o
 .rdata         0x000000006151ba80       0xc0 C:\msys64\tmp\cc5MSZGd.o
 .rdata         0x000000006151bb40      0x180 C:\msys64\tmp\ccxqqLTc.o
 .rdata         0x000000006151bcc0       0x70 C:\msys64\tmp\ccenaSVZ.o
 .rdata         0x000000006151bd30      0x190 C:\msys64\tmp\ccSZ239v.o
 .rdata         0x000000006151bec0       0x70 C:\msys64\tmp\ccvj8G4H.o
 .rdata         0x000000006151bf30      0x240 C:\msys64\tmp\ccldb7oK.o
 .rdata         0x000000006151c170      0x5f0 C:\msys64\tmp\cc1vz69F.o
 .rdata         0x000000006151c760       0x10 C:\msys64\tmp\ccXkOUMF.o
 .rdata         0x000000006151c770       0x10 C:\msys64\tmp\ccaJ2lTQ.o
 .rdata         0x000000006151c780       0x50 C:\msys64\tmp\ccTYAR93.o
 .rdata         0x000000006151c7d0      0x130 C:\msys64\tmp\cc2LD5lo.o
 .rdata         0x000000006151c900      0x4e0 C:\msys64\tmp\cckEQkSt.o
 .rdata         0x000000006151cde0       0x50 C:\msys64\tmp\ccxxh8wg.o
 .rdata         0x000000006151ce30      0x190 C:\msys64\tmp\ccoLUxS8.o
 .rdata         0x000000006151cfc0      0x170 C:\msys64\tmp\cc5FaVq8.o
 .rdata         0x000000006151d130      0x1d0 C:\msys64\tmp\ccA4uJAu.o
 .rdata         0x000000006151d300       0x20 C:\msys64\tmp\ccS3faXP.o
 .rdata         0x000000006151d320       0xc0 C:\msys64\tmp\ccoUgfsm.o
 .rdata         0x000000006151d3e0       0x50 C:\msys64\tmp\ccUcMoTZ.o
 *fill*         0x000000006151d430       0x10 
 .rdata         0x000000006151d440      0x220 C:\msys64\tmp\ccidGW4M.o
 .rdata         0x000000006151d660      0x100 C:\msys64\tmp\ccQIpGaD.o
 .rdata         0x000000006151d760       0x80 window/x86_64/libluajit.a(lj_gc.o)
 .rdata         0x000000006151d7e0      0xf40 window/x86_64/libluajit.a(lj_err.o)
 .rdata         0x000000006151e720      0x120 window/x86_64/libluajit.a(lj_char.o)
                0x000000006151e720                lj_char_bits
 .rdata         0x000000006151e840      0x280 window/x86_64/libluajit.a(lj_bc.o)
                0x000000006151e840                lj_bc_mode
                0x000000006151e980                lj_bc_ofs
 .rdata         0x000000006151eac0      0x140 window/x86_64/libluajit.a(lj_obj.o)
                0x000000006151eb20                lj_obj_itypename
                0x000000006151eba0                lj_obj_typename
 .rdata         0x000000006151ec00       0x10 window/x86_64/libluajit.a(lj_str.o)
 .rdata         0x000000006151ec10       0x90 window/x86_64/libluajit.a(lj_meta.o)
 .rdata         0x000000006151eca0      0x220 window/x86_64/libluajit.a(lj_debug.o)
 .rdata         0x000000006151eec0       0x50 window/x86_64/libluajit.a(lj_dispatch.o)
 .rdata         0x000000006151ef10       0x20 window/x86_64/libluajit.a(lj_vmevent.o)
 .rdata         0x000000006151ef30       0x90 window/x86_64/libluajit.a(lj_vmmath.o)
 .rdata         0x000000006151efc0       0x20 window/x86_64/libluajit.a(lj_strscan.o)
 .rdata         0x000000006151efe0       0xc0 window/x86_64/libluajit.a(lj_strfmt.o)
 .rdata         0x000000006151f0a0      0x2e0 window/x86_64/libluajit.a(lj_strfmt_num.o)
 .rdata         0x000000006151f380       0x30 window/x86_64/libluajit.a(lj_api.o)
 .rdata         0x000000006151f3b0       0x30 window/x86_64/libluajit.a(lj_profile.o)
 .rdata         0x000000006151f3e0      0x5e0 window/x86_64/libluajit.a(lj_lex.o)
 .rdata         0x000000006151f9c0       0xf0 window/x86_64/libluajit.a(lj_parse.o)
 .rdata         0x000000006151fab0       0x10 window/x86_64/libluajit.a(lj_bcread.o)
 .rdata         0x000000006151fac0       0x40 window/x86_64/libluajit.a(lj_load.o)
 .rdata         0x000000006151fb00      0x780 window/x86_64/libluajit.a(lj_ir.o)
                0x000000006151fb60                lj_ir_callinfo
                0x00000000615201d0                lj_ir_type_size
                0x0000000061520200                lj_ir_mode
 .rdata         0x0000000061520280     0x1500 window/x86_64/libluajit.a(lj_opt_fold.o)
 .rdata         0x0000000061521780       0x20 window/x86_64/libluajit.a(lj_opt_narrow.o)
 .rdata         0x00000000615217a0      0x260 window/x86_64/libluajit.a(lj_opt_sink.o)
 .rdata         0x0000000061521a00       0x50 window/x86_64/libluajit.a(lj_snap.o)
 .rdata         0x0000000061521a50      0x390 window/x86_64/libluajit.a(lj_record.o)
 .rdata         0x0000000061521de0      0x100 window/x86_64/libluajit.a(lj_crecord.o)
 .rdata         0x0000000061521ee0      0x3c0 window/x86_64/libluajit.a(lj_ffrecord.o)
 .rdata         0x00000000615222a0      0x580 window/x86_64/libluajit.a(lj_asm.o)
 .rdata         0x0000000061522820       0xd0 window/x86_64/libluajit.a(lj_trace.o)
 *fill*         0x00000000615228f0       0x10 
 .rdata         0x0000000061522900      0x4e0 window/x86_64/libluajit.a(lj_ctype.o)
 .rdata         0x0000000061522de0      0x110 window/x86_64/libluajit.a(lj_cconv.o)
 .rdata         0x0000000061522ef0       0x40 window/x86_64/libluajit.a(lj_carith.o)
 .rdata         0x0000000061522f30       0x90 window/x86_64/libluajit.a(lj_clib.o)
 .rdata         0x0000000061522fc0      0x3c0 window/x86_64/libluajit.a(lj_cparse.o)
 .rdata         0x0000000061523380       0x30 window/x86_64/libluajit.a(lj_lib.o)
 .rdata         0x00000000615233b0       0x70 window/x86_64/libluajit.a(lib_aux.o)
 .rdata         0x0000000061523420       0x30 window/x86_64/libluajit.a(lib_log.o)
 *fill*         0x0000000061523450       0x10 
 .rdata         0x0000000061523460      0x380 window/x86_64/libluajit.a(lib_base.o)
 .rdata         0x00000000615237e0      0x180 window/x86_64/libluajit.a(lib_math.o)
 .rdata         0x0000000061523960       0xc0 window/x86_64/libluajit.a(lib_bit.o)
 .rdata         0x0000000061523a20      0x1e0 window/x86_64/libluajit.a(lib_string.o)
 .rdata         0x0000000061523c00      0x260 window/x86_64/libluajit.a(lib_table.o)
 .rdata         0x0000000061523e60      0x220 window/x86_64/libluajit.a(lib_io.o)
 .rdata         0x0000000061524080      0x120 window/x86_64/libluajit.a(lib_os.o)
 .rdata         0x00000000615241a0      0x3c0 window/x86_64/libluajit.a(lib_package.o)
 .rdata         0x0000000061524560      0x300 window/x86_64/libluajit.a(lib_debug.o)
 .rdata         0x0000000061524860      0x4c0 window/x86_64/libluajit.a(lib_jit.o)
 .rdata         0x0000000061524d20      0x360 window/x86_64/libluajit.a(lib_ffi.o)
 .rdata         0x0000000061525080      0x140 window/x86_64/libluajit.a(lib_init.o)
 .rdata         0x00000000615251c0       0x10 C:/msys64/mingw64/bin/../lib/gcc/x86_64-w64-mingw32/8.2.1/../../../../x86_64-w64-mingw32/lib/../lib/libmingw32.a(lib64_libmingw32_a-gs_support.o)
 .rdata         0x00000000615251d0       0x10 C:/msys64/mingw64/bin/../lib/gcc/x86_64-w64-mingw32/8.2.1/../../../../x86_64-w64-mingw32/lib/../lib/libmingw32.a(lib64_libmingw32_a-tlssup.o)
                0x00000000615251d0                __dyn_tls_init_callback
 .rdata         0x00000000615251e0      0x110 C:/msys64/mingw64/bin/../lib/gcc/x86_64-w64-mingw32/8.2.1/../../../../x86_64-w64-mingw32/lib/../lib/libmingw32.a(lib64_libmingw32_a-pseudo-reloc.o)
 .rdata         0x00000000615252f0       0x10 C:/msys64/mingw64/bin/../lib/gcc/x86_64-w64-mingw32/8.2.1/../../../../x86_64-w64-mingw32/lib/../lib/libmingw32.a(lib64_libmingw32_a-crt_handler.o)
 .rdata         0x0000000061525300       0x20 C:/msys64/mingw64/bin/../lib/gcc/x86_64-w64-mingw32/8.2.1/../../../../x86_64-w64-mingw32/lib/../lib/libmingwex.a(lib64_libmingwex_a-strtodnrp.o)
 .rdata         0x0000000061525320       0x30 C:/msys64/mingw64/bin/../lib/gcc/x86_64-w64-mingw32/8.2.1/../../../../x86_64-w64-mingw32/lib/../lib/libmingwex.a(lib64_libmingwex_a-sqrt.o)
 .rdata         0x0000000061525350       0x10 C:/msys64/mingw64/bin/../lib/gcc/x86_64-w64-mingw32/8.2.1/../../../../x86_64-w64-mingw32/lib/../lib/libmingwex.a(lib64_libmingwex_a-difftime64.o)
 .rdata         0x0000000061525360       0xe0 C:/msys64/mingw64/bin/../lib/gcc/x86_64-w64-mingw32/8.2.1/../../../../x86_64-w64-mingw32/lib/../lib/libmingwex.a(lib64_libmingwex_a-wassert.o)
 .rdata         0x0000000061525440      0x180 C:/msys64/mingw64/bin/../lib/gcc/x86_64-w64-mingw32/8.2.1/../../../../x86_64-w64-mingw32/lib/../lib/libmingwex.a(lib64_libmingwex_a-fseeko64.o)
 .rdata         0x00000000615255c0       0x10 C:/msys64/mingw64/bin/../lib/gcc/x86_64-w64-mingw32/8.2.1/../../../../x86_64-w64-mingw32/lib/../lib/libmingwex.a(lib64_libmingwex_a-cos.o)
 .rdata         0x00000000615255d0       0x30 C:/msys64/mingw64/bin/../lib/gcc/x86_64-w64-mingw32/8.2.1/../../../../x86_64-w64-mingw32/lib/../lib/libmingwex.a(lib64_libmingwex_a-exp.o)
 .rdata         0x0000000061525600       0x10 C:/msys64/mingw64/bin/../lib/gcc/x86_64-w64-mingw32/8.2.1/../../../../x86_64-w64-mingw32/lib/../lib/libmingwex.a(lib64_libmingwex_a-floor.o)
 .rdata         0x0000000061525610       0x20 C:/msys64/mingw64/bin/../lib/gcc/x86_64-w64-mingw32/8.2.1/../../../../x86_64-w64-mingw32/lib/../lib/libmingwex.a(lib64_libmingwex_a-log.o)
 .rdata         0x0000000061525630       0x80 C:/msys64/mingw64/bin/../lib/gcc/x86_64-w64-mingw32/8.2.1/../../../../x86_64-w64-mingw32/lib/../lib/libmingwex.a(lib64_libmingwex_a-pow.o)
 .rdata         0x00000000615256b0       0x10 C:/msys64/mingw64/bin/../lib/gcc/x86_64-w64-mingw32/8.2.1/../../../../x86_64-w64-mingw32/lib/../lib/libmingwex.a(lib64_libmingwex_a-sin.o)
 .rdata         0x00000000615256c0      0x180 C:/msys64/mingw64/bin/../lib/gcc/x86_64-w64-mingw32/8.2.1/../../../../x86_64-w64-mingw32/lib/../lib/libmingwex.a(lib64_libmingwex_a-strtodg.o)
 .rdata         0x0000000061525840       0x60 C:/msys64/mingw64/bin/../lib/gcc/x86_64-w64-mingw32/8.2.1/../../../../x86_64-w64-mingw32/lib/../lib/libmingwex.a(lib64_libmingwex_a-powi.o)
 .rdata         0x00000000615258a0       0x20 C:/msys64/mingw64/bin/../lib/gcc/x86_64-w64-mingw32/8.2.1/../../../../x86_64-w64-mingw32/lib/../lib/libmingwex.a(lib64_libmingwex_a-hd_init.o)
 .rdata         0x00000000615258c0      0x160 C:/msys64/mingw64/bin/../lib/gcc/x86_64-w64-mingw32/8.2.1/../../../../x86_64-w64-mingw32/lib/../lib/libmingwex.a(lib64_libmingwex_a-misc.o)
                0x00000000615258e0                __tens_D2A
                0x00000000615259a0                __tinytens_D2A
                0x00000000615259e0                __bigtens_D2A
 .rdata         0x0000000061525a20      0x140 C:/msys64/mingw64/bin/../lib/gcc/x86_64-w64-mingw32/8.2.1/../../../../x86_64-w64-mingw32/lib/../lib/libmingw32.a(lib64_libmingw32_a-merr.o)
 *(SORT(.rdata$*))
 .rdata$.refptr._CRT_MT
                0x0000000061525b60       0x10 C:/msys64/mingw64/bin/../lib/gcc/x86_64-w64-mingw32/8.2.1/../../../../x86_64-w64-mingw32/lib/../lib/libmingw32.a(lib64_libmingw32_a-tlssup.o)
                0x0000000061525b60                .refptr._CRT_MT
 .rdata$.refptr._KEY_ID
                0x0000000061525b70       0x10 C:\msys64\tmp\ccfy01SD.o
                0x0000000061525b70                .refptr._KEY_ID
 .rdata$.refptr.__CTOR_LIST__
                0x0000000061525b80       0x10 C:/msys64/mingw64/bin/../lib/gcc/x86_64-w64-mingw32/8.2.1/../../../../x86_64-w64-mingw32/lib/../lib/libmingw32.a(lib64_libmingw32_a-gccmain.o)
                0x0000000061525b80                .refptr.__CTOR_LIST__
 .rdata$.refptr.__RUNTIME_PSEUDO_RELOC_LIST_END__
                0x0000000061525b90       0x10 C:/msys64/mingw64/bin/../lib/gcc/x86_64-w64-mingw32/8.2.1/../../../../x86_64-w64-mingw32/lib/../lib/libmingw32.a(lib64_libmingw32_a-pseudo-reloc.o)
                0x0000000061525b90                .refptr.__RUNTIME_PSEUDO_RELOC_LIST_END__
 .rdata$.refptr.__RUNTIME_PSEUDO_RELOC_LIST__
                0x0000000061525ba0       0x10 C:/msys64/mingw64/bin/../lib/gcc/x86_64-w64-mingw32/8.2.1/../../../../x86_64-w64-mingw32/lib/../lib/libmingw32.a(lib64_libmingw32_a-pseudo-reloc.o)
                0x0000000061525ba0                .refptr.__RUNTIME_PSEUDO_RELOC_LIST__
 .rdata$.refptr.__bigtens_D2A
                0x0000000061525bb0       0x10 C:/msys64/mingw64/bin/../lib/gcc/x86_64-w64-mingw32/8.2.1/../../../../x86_64-w64-mingw32/lib/../lib/libmingwex.a(lib64_libmingwex_a-strtodg.o)
                0x0000000061525bb0                .refptr.__bigtens_D2A
 .rdata$.refptr.__dyn_tls_init_callback
                0x0000000061525bc0       0x10 C:/msys64/mingw64/bin/../lib/gcc/x86_64-w64-mingw32/8.2.1/../../../../x86_64-w64-mingw32/lib/../lib/dllcrt2.o
                0x0000000061525bc0                .refptr.__dyn_tls_init_callback
 .rdata$.refptr.__hexdig_D2A
                0x0000000061525bd0       0x10 C:/msys64/mingw64/bin/../lib/gcc/x86_64-w64-mingw32/8.2.1/../../../../x86_64-w64-mingw32/lib/../lib/libmingwex.a(lib64_libmingwex_a-gethex.o)
                0x0000000061525bd0                .refptr.__hexdig_D2A
 .rdata$.refptr.__image_base__
                0x0000000061525be0       0x10 C:/msys64/mingw64/bin/../lib/gcc/x86_64-w64-mingw32/8.2.1/../../../../x86_64-w64-mingw32/lib/../lib/libmingw32.a(lib64_libmingw32_a-pseudo-reloc.o)
                0x0000000061525be0                .refptr.__image_base__
 .rdata$.refptr.__imp___pioinfo
                0x0000000061525bf0       0x10 C:/msys64/mingw64/bin/../lib/gcc/x86_64-w64-mingw32/8.2.1/../../../../x86_64-w64-mingw32/lib/../lib/libmingwex.a(lib64_libmingwex_a-fseeko64.o)
                0x0000000061525bf0                .refptr.__imp___pioinfo
 .rdata$.refptr.__imp__fmode
                0x0000000061525c00       0x10 window/x86_64/libluajit.a(lj_clib.o)
                0x0000000061525c00                .refptr.__imp__fmode
 .rdata$.refptr.__imp__onexit
                0x0000000061525c10       0x10 C:/msys64/mingw64/bin/../lib/gcc/x86_64-w64-mingw32/8.2.1/../../../../x86_64-w64-mingw32/lib/../lib/libmingw32.a(lib64_libmingw32_a-atonexit.o)
                0x0000000061525c10                .refptr.__imp__onexit
 .rdata$.refptr.__native_dllmain_reason
                0x0000000061525c20       0x10 C:/msys64/mingw64/bin/../lib/gcc/x86_64-w64-mingw32/8.2.1/../../../../x86_64-w64-mingw32/lib/../lib/dllcrt2.o
                0x0000000061525c20                .refptr.__native_dllmain_reason
 .rdata$.refptr.__native_startup_lock
                0x0000000061525c30       0x10 C:/msys64/mingw64/bin/../lib/gcc/x86_64-w64-mingw32/8.2.1/../../../../x86_64-w64-mingw32/lib/../lib/dllcrt2.o
                0x0000000061525c30                .refptr.__native_startup_lock
 .rdata$.refptr.__native_startup_state
                0x0000000061525c40       0x10 C:/msys64/mingw64/bin/../lib/gcc/x86_64-w64-mingw32/8.2.1/../../../../x86_64-w64-mingw32/lib/../lib/dllcrt2.o
                0x0000000061525c40                .refptr.__native_startup_state
 .rdata$.refptr.__onexitbegin
                0x0000000061525c50       0x10 C:/msys64/mingw64/bin/../lib/gcc/x86_64-w64-mingw32/8.2.1/../../../../x86_64-w64-mingw32/lib/../lib/dllcrt2.o
                0x0000000061525c50                .refptr.__onexitbegin
 .rdata$.refptr.__onexitend
                0x0000000061525c60       0x10 C:/msys64/mingw64/bin/../lib/gcc/x86_64-w64-mingw32/8.2.1/../../../../x86_64-w64-mingw32/lib/../lib/dllcrt2.o
                0x0000000061525c60                .refptr.__onexitend
 .rdata$.refptr.__tens_D2A
                0x0000000061525c70       0x10 C:/msys64/mingw64/bin/../lib/gcc/x86_64-w64-mingw32/8.2.1/../../../../x86_64-w64-mingw32/lib/../lib/libmingwex.a(lib64_libmingwex_a-strtodg.o)
                0x0000000061525c70                .refptr.__tens_D2A
 .rdata$.refptr.__tinytens_D2A
                0x0000000061525c80       0x10 C:/msys64/mingw64/bin/../lib/gcc/x86_64-w64-mingw32/8.2.1/../../../../x86_64-w64-mingw32/lib/../lib/libmingwex.a(lib64_libmingwex_a-strtodg.o)
                0x0000000061525c80                .refptr.__tinytens_D2A
 .rdata$.refptr.__xc_a
                0x0000000061525c90       0x10 C:/msys64/mingw64/bin/../lib/gcc/x86_64-w64-mingw32/8.2.1/../../../../x86_64-w64-mingw32/lib/../lib/dllcrt2.o
                0x0000000061525c90                .refptr.__xc_a
 .rdata$.refptr.__xc_z
                0x0000000061525ca0       0x10 C:/msys64/mingw64/bin/../lib/gcc/x86_64-w64-mingw32/8.2.1/../../../../x86_64-w64-mingw32/lib/../lib/dllcrt2.o
                0x0000000061525ca0                .refptr.__xc_z
 .rdata$.refptr.__xi_a
                0x0000000061525cb0       0x10 C:/msys64/mingw64/bin/../lib/gcc/x86_64-w64-mingw32/8.2.1/../../../../x86_64-w64-mingw32/lib/../lib/dllcrt2.o
                0x0000000061525cb0                .refptr.__xi_a
 .rdata$.refptr.__xi_z
                0x0000000061525cc0       0x10 C:/msys64/mingw64/bin/../lib/gcc/x86_64-w64-mingw32/8.2.1/../../../../x86_64-w64-mingw32/lib/../lib/dllcrt2.o
                0x0000000061525cc0                .refptr.__xi_z
 .rdata$.refptr._pbcM_free
                0x0000000061525cd0       0x10 C:\msys64\tmp\ccxxh8wg.o
                0x0000000061525cd0                .refptr._pbcM_free
 .rdata$.refptr.fclose
                0x0000000061525ce0       0x10 C:\msys64\tmp\ccTqPSxT.o
                0x0000000061525ce0                .refptr.fclose
 .rdata$.refptr.lj_alloc_f
                0x0000000061525cf0       0x10 window/x86_64/libluajit.a(lj_state.o)
                0x0000000061525cf0                .refptr.lj_alloc_f
 .rdata$.refptr.lj_bc_mode
                0x0000000061525d00       0x10 window/x86_64/libluajit.a(lj_meta.o)
                0x0000000061525d00                .refptr.lj_bc_mode
 .rdata$.refptr.lj_bc_ofs
                0x0000000061525d10       0x10 window/x86_64/libluajit.a(lj_dispatch.o)
                0x0000000061525d10                .refptr.lj_bc_ofs
 .rdata$.refptr.lj_char_bits
                0x0000000061525d20       0x10 window/x86_64/libluajit.a(lj_str.o)
                0x0000000061525d20                .refptr.lj_char_bits
 .rdata$.refptr.lj_cont_cat
                0x0000000061525d30       0x10 window/x86_64/libluajit.a(lj_meta.o)
                0x0000000061525d30                .refptr.lj_cont_cat
 .rdata$.refptr.lj_cont_condf
                0x0000000061525d40       0x10 window/x86_64/libluajit.a(lj_meta.o)
                0x0000000061525d40                .refptr.lj_cont_condf
 .rdata$.refptr.lj_cont_condt
                0x0000000061525d50       0x10 window/x86_64/libluajit.a(lj_meta.o)
                0x0000000061525d50                .refptr.lj_cont_condt
 .rdata$.refptr.lj_cont_hook
                0x0000000061525d60       0x10 window/x86_64/libluajit.a(lj_api.o)
                0x0000000061525d60                .refptr.lj_cont_hook
 .rdata$.refptr.lj_cont_nop
                0x0000000061525d70       0x10 window/x86_64/libluajit.a(lj_meta.o)
                0x0000000061525d70                .refptr.lj_cont_nop
 .rdata$.refptr.lj_cont_ra
                0x0000000061525d80       0x10 window/x86_64/libluajit.a(lj_meta.o)
                0x0000000061525d80                .refptr.lj_cont_ra
 .rdata$.refptr.lj_cont_stitch
                0x0000000061525d90       0x10 window/x86_64/libluajit.a(lj_ffrecord.o)
                0x0000000061525d90                .refptr.lj_cont_stitch
 .rdata$.refptr.lj_err_allmsg
                0x0000000061525da0       0x10 window/x86_64/libluajit.a(lj_bcread.o)
                0x0000000061525da0                .refptr.lj_err_allmsg
 .rdata$.refptr.lj_ir_callinfo
                0x0000000061525db0       0x10 window/x86_64/libluajit.a(lj_opt_fold.o)
                0x0000000061525db0                .refptr.lj_ir_callinfo
 .rdata$.refptr.lj_ir_mode
                0x0000000061525dc0       0x10 window/x86_64/libluajit.a(lj_opt_fold.o)
                0x0000000061525dc0                .refptr.lj_ir_mode
 .rdata$.refptr.lj_ir_type_size
                0x0000000061525dd0       0x10 window/x86_64/libluajit.a(lj_opt_mem.o)
                0x0000000061525dd0                .refptr.lj_ir_type_size
 .rdata$.refptr.lj_obj_itypename
                0x0000000061525de0       0x10 window/x86_64/libluajit.a(lj_err.o)
                0x0000000061525de0                .refptr.lj_obj_itypename
 .rdata$.refptr.lj_obj_typename
                0x0000000061525df0       0x10 window/x86_64/libluajit.a(lj_err.o)
                0x0000000061525df0                .refptr.lj_obj_typename
 .rdata$.refptr.lj_vm_asm_begin
                0x0000000061525e00       0x10 window/x86_64/libluajit.a(lj_dispatch.o)
                0x0000000061525e00                .refptr.lj_vm_asm_begin
 .rdata$.refptr.lj_vm_callhook
                0x0000000061525e10       0x10 window/x86_64/libluajit.a(lj_dispatch.o)
                0x0000000061525e10                .refptr.lj_vm_callhook
 .rdata$.refptr.lj_vm_ceil_sse
                0x0000000061525e20       0x10 window/x86_64/libluajit.a(lj_asm.o)
                0x0000000061525e20                .refptr.lj_vm_ceil_sse
 .rdata$.refptr.lj_vm_exit_handler
                0x0000000061525e30       0x10 window/x86_64/libluajit.a(lj_mcode.o)
                0x0000000061525e30                .refptr.lj_vm_exit_handler
 .rdata$.refptr.lj_vm_exit_interp
                0x0000000061525e40       0x10 window/x86_64/libluajit.a(lj_asm.o)
                0x0000000061525e40                .refptr.lj_vm_exit_interp
 .rdata$.refptr.lj_vm_ffi_callback
                0x0000000061525e50       0x10 window/x86_64/libluajit.a(lj_ccallback.o)
                0x0000000061525e50                .refptr.lj_vm_ffi_callback
 .rdata$.refptr.lj_vm_floor_sse
                0x0000000061525e60       0x10 window/x86_64/libluajit.a(lj_asm.o)
                0x0000000061525e60                .refptr.lj_vm_floor_sse
 .rdata$.refptr.lj_vm_inshook
                0x0000000061525e70       0x10 window/x86_64/libluajit.a(lj_dispatch.o)
                0x0000000061525e70                .refptr.lj_vm_inshook
 .rdata$.refptr.lj_vm_powi_sse
                0x0000000061525e80       0x10 window/x86_64/libluajit.a(lj_asm.o)
                0x0000000061525e80                .refptr.lj_vm_powi_sse
 .rdata$.refptr.lj_vm_profhook
                0x0000000061525e90       0x10 window/x86_64/libluajit.a(lj_dispatch.o)
                0x0000000061525e90                .refptr.lj_vm_profhook
 .rdata$.refptr.lj_vm_record
                0x0000000061525ea0       0x10 window/x86_64/libluajit.a(lj_dispatch.o)
                0x0000000061525ea0                .refptr.lj_vm_record
 .rdata$.refptr.lj_vm_rethook
                0x0000000061525eb0       0x10 window/x86_64/libluajit.a(lj_dispatch.o)
                0x0000000061525eb0                .refptr.lj_vm_rethook
 .rdata$.refptr.lj_vm_trunc_sse
                0x0000000061525ec0       0x10 window/x86_64/libluajit.a(lj_asm.o)
                0x0000000061525ec0                .refptr.lj_vm_trunc_sse
 .rdata$.refptr.lj_vm_unwind_c_eh
                0x0000000061525ed0       0x10 window/x86_64/libluajit.a(lj_err.o)
                0x0000000061525ed0                .refptr.lj_vm_unwind_c_eh
 .rdata$.refptr.lj_vm_unwind_ff_eh
                0x0000000061525ee0       0x10 window/x86_64/libluajit.a(lj_err.o)
                0x0000000061525ee0                .refptr.lj_vm_unwind_ff_eh
 .rdata$.refptr.luaopen_base
                0x0000000061525ef0       0x10 window/x86_64/libluajit.a(lib_init.o)
                0x0000000061525ef0                .refptr.luaopen_base
 .rdata$.refptr.luaopen_ffi
                0x0000000061525f00       0x10 window/x86_64/libluajit.a(lib_init.o)
                0x0000000061525f00                .refptr.luaopen_ffi
 .rdata$.refptr.mingw_app_type
                0x0000000061525f10       0x10 C:/msys64/mingw64/bin/../lib/gcc/x86_64-w64-mingw32/8.2.1/../../../../x86_64-w64-mingw32/lib/../lib/dllcrt2.o
                0x0000000061525f10                .refptr.mingw_app_type
 .rdata$.refptr.socket_ioerror
                0x0000000061525f20       0x10 C:\msys64\tmp\ccSZ239v.o
                0x0000000061525f20                .refptr.socket_ioerror
 .rdata$.refptr.socket_recv
                0x0000000061525f30       0x10 C:\msys64\tmp\ccSZ239v.o
                0x0000000061525f30                .refptr.socket_recv
 .rdata$.refptr.socket_send
                0x0000000061525f40       0x10 C:\msys64\tmp\ccSZ239v.o
                0x0000000061525f40                .refptr.socket_send
 .rdata$.refptr.sqlite3_free
                0x0000000061525f50       0x10 C:\msys64\tmp\ccTqPSxT.o
                0x0000000061525f50                .refptr.sqlite3_free
 .rdata$Z       0x0000000061525f60        0xd window/x86_64/libluajit.a(lj_vm.o)
 *fill*         0x0000000061525f6d        0x3 
 .rdata$zzz     0x0000000061525f70       0x30 C:/msys64/mingw64/bin/../lib/gcc/x86_64-w64-mingw32/8.2.1/../../../../x86_64-w64-mingw32/lib/../lib/dllcrt2.o
 .rdata$zzz     0x0000000061525fa0       0x40 C:/msys64/mingw64/bin/../lib/gcc/x86_64-w64-mingw32/8.2.1/crtbegin.o
 .rdata$zzz     0x0000000061525fe0       0x40 C:\msys64\tmp\ccfy01SD.o
 .rdata$zzz     0x0000000061526020       0x40 C:\msys64\tmp\ccWMuz0v.o
 .rdata$zzz     0x0000000061526060       0x40 C:\msys64\tmp\ccFOXHzz.o
 .rdata$zzz     0x00000000615260a0       0x40 C:\msys64\tmp\ccLjWXKz.o
 .rdata$zzz     0x00000000615260e0       0x40 C:\msys64\tmp\ccz1diiN.o
 .rdata$zzz     0x0000000061526120       0x40 C:\msys64\tmp\ccVizNw9.o
 .rdata$zzz     0x0000000061526160       0x40 C:\msys64\tmp\ccjhsTYI.o
 .rdata$zzz     0x00000000615261a0       0x40 C:\msys64\tmp\ccLt5nLD.o
 .rdata$zzz     0x00000000615261e0       0x40 C:\msys64\tmp\ccuoZVRF.o
 .rdata$zzz     0x0000000061526220       0x40 C:\msys64\tmp\cctFmZYO.o
 .rdata$zzz     0x0000000061526260       0x40 C:\msys64\tmp\ccuduyC5.o
 .rdata$zzz     0x00000000615262a0       0x40 C:\msys64\tmp\ccJuBzPw.o
 .rdata$zzz     0x00000000615262e0       0x40 C:\msys64\tmp\ccTqPSxT.o
 .rdata$zzz     0x0000000061526320       0x40 C:\msys64\tmp\ccXRde14.o
 .rdata$zzz     0x0000000061526360       0x40 C:\msys64\tmp\ccpSIAqr.o
 .rdata$zzz     0x00000000615263a0       0x40 C:\msys64\tmp\ccZkAuiV.o
 .rdata$zzz     0x00000000615263e0       0x40 C:\msys64\tmp\ccJabTGs.o
 .rdata$zzz     0x0000000061526420       0x40 C:\msys64\tmp\ccQHA7kH.o
 .rdata$zzz     0x0000000061526460       0x40 C:\msys64\tmp\ccDKFcP3.o
 .rdata$zzz     0x00000000615264a0       0x40 C:\msys64\tmp\ccRApjM5.o
 .rdata$zzz     0x00000000615264e0       0x40 C:\msys64\tmp\cc5MSZGd.o
 .rdata$zzz     0x0000000061526520       0x40 C:\msys64\tmp\ccxqqLTc.o
 .rdata$zzz     0x0000000061526560       0x40 C:\msys64\tmp\ccenaSVZ.o
 .rdata$zzz     0x00000000615265a0       0x40 C:\msys64\tmp\ccSZ239v.o
 .rdata$zzz     0x00000000615265e0       0x40 C:\msys64\tmp\ccvj8G4H.o
 .rdata$zzz     0x0000000061526620       0x40 C:\msys64\tmp\ccldb7oK.o
 .rdata$zzz     0x0000000061526660       0x40 C:\msys64\tmp\cc1vz69F.o
 .rdata$zzz     0x00000000615266a0       0x40 C:\msys64\tmp\ccXkOUMF.o
 .rdata$zzz     0x00000000615266e0       0x40 C:\msys64\tmp\cc7I1SCN.o
 .rdata$zzz     0x0000000061526720       0x40 C:\msys64\tmp\ccaJ2lTQ.o
 .rdata$zzz     0x0000000061526760       0x40 C:\msys64\tmp\ccTYAR93.o
 .rdata$zzz     0x00000000615267a0       0x40 C:\msys64\tmp\cc2LD5lo.o
 .rdata$zzz     0x00000000615267e0       0x40 C:\msys64\tmp\cctiLsmQ.o
 .rdata$zzz     0x0000000061526820       0x40 C:\msys64\tmp\cckEQkSt.o
 .rdata$zzz     0x0000000061526860       0x40 C:\msys64\tmp\ccxxh8wg.o
 .rdata$zzz     0x00000000615268a0       0x40 C:\msys64\tmp\ccoLUxS8.o
 .rdata$zzz     0x00000000615268e0       0x40 C:\msys64\tmp\cc5FaVq8.o
 .rdata$zzz     0x0000000061526920       0x40 C:\msys64\tmp\ccg4nTgg.o
 .rdata$zzz     0x0000000061526960       0x40 C:\msys64\tmp\ccmZReTk.o
 .rdata$zzz     0x00000000615269a0       0x40 C:\msys64\tmp\ccA4uJAu.o
 .rdata$zzz     0x00000000615269e0       0x40 C:\msys64\tmp\ccS3faXP.o
 .rdata$zzz     0x0000000061526a20       0x40 C:\msys64\tmp\ccoUgfsm.o
 .rdata$zzz     0x0000000061526a60       0x40 C:\msys64\tmp\ccUcMoTZ.o
 .rdata$zzz     0x0000000061526aa0       0x40 C:\msys64\tmp\ccidGW4M.o
 .rdata$zzz     0x0000000061526ae0       0x40 C:\msys64\tmp\ccYk3DtG.o
 .rdata$zzz     0x0000000061526b20       0x40 C:\msys64\tmp\ccQIpGaD.o
 .rdata$zzz     0x0000000061526b60       0x30 C:/msys64/mingw64/bin/../lib/gcc/x86_64-w64-mingw32/8.2.1/../../../../x86_64-w64-mingw32/lib/../lib/libws2_32.a(lib64_libws2_32_a-gai_strerrorA.o)
 .rdata$zzz     0x0000000061526b90       0x30 C:/msys64/mingw64/bin/../lib/gcc/x86_64-w64-mingw32/8.2.1/../../../../x86_64-w64-mingw32/lib/../lib/libws2_32.a(lib64_libws2_32_a-gai_strerrorW.o)
 .rdata$zzz     0x0000000061526bc0       0x40 window/x86_64/libluajit.a(lj_gc.o)
 .rdata$zzz     0x0000000061526c00       0x40 window/x86_64/libluajit.a(lj_err.o)
 .rdata$zzz     0x0000000061526c40       0x40 window/x86_64/libluajit.a(lj_char.o)
 .rdata$zzz     0x0000000061526c80       0x40 window/x86_64/libluajit.a(lj_bc.o)
 .rdata$zzz     0x0000000061526cc0       0x40 window/x86_64/libluajit.a(lj_obj.o)
 .rdata$zzz     0x0000000061526d00       0x40 window/x86_64/libluajit.a(lj_buf.o)
 .rdata$zzz     0x0000000061526d40       0x40 window/x86_64/libluajit.a(lj_str.o)
 .rdata$zzz     0x0000000061526d80       0x40 window/x86_64/libluajit.a(lj_tab.o)
 .rdata$zzz     0x0000000061526dc0       0x40 window/x86_64/libluajit.a(lj_func.o)
 .rdata$zzz     0x0000000061526e00       0x40 window/x86_64/libluajit.a(lj_udata.o)
 .rdata$zzz     0x0000000061526e40       0x40 window/x86_64/libluajit.a(lj_meta.o)
 .rdata$zzz     0x0000000061526e80       0x40 window/x86_64/libluajit.a(lj_debug.o)
 .rdata$zzz     0x0000000061526ec0       0x40 window/x86_64/libluajit.a(lj_state.o)
 .rdata$zzz     0x0000000061526f00       0x40 window/x86_64/libluajit.a(lj_dispatch.o)
 .rdata$zzz     0x0000000061526f40       0x40 window/x86_64/libluajit.a(lj_vmevent.o)
 .rdata$zzz     0x0000000061526f80       0x40 window/x86_64/libluajit.a(lj_vmmath.o)
 .rdata$zzz     0x0000000061526fc0       0x40 window/x86_64/libluajit.a(lj_strscan.o)
 .rdata$zzz     0x0000000061527000       0x40 window/x86_64/libluajit.a(lj_strfmt.o)
 .rdata$zzz     0x0000000061527040       0x40 window/x86_64/libluajit.a(lj_strfmt_num.o)
 .rdata$zzz     0x0000000061527080       0x40 window/x86_64/libluajit.a(lj_api.o)
 .rdata$zzz     0x00000000615270c0       0x40 window/x86_64/libluajit.a(lj_profile.o)
 .rdata$zzz     0x0000000061527100       0x40 window/x86_64/libluajit.a(lj_lex.o)
 .rdata$zzz     0x0000000061527140       0x40 window/x86_64/libluajit.a(lj_parse.o)
 .rdata$zzz     0x0000000061527180       0x40 window/x86_64/libluajit.a(lj_bcread.o)
 .rdata$zzz     0x00000000615271c0       0x40 window/x86_64/libluajit.a(lj_bcwrite.o)
 .rdata$zzz     0x0000000061527200       0x40 window/x86_64/libluajit.a(lj_load.o)
 .rdata$zzz     0x0000000061527240       0x40 window/x86_64/libluajit.a(lj_ir.o)
 .rdata$zzz     0x0000000061527280       0x40 window/x86_64/libluajit.a(lj_opt_mem.o)
 .rdata$zzz     0x00000000615272c0       0x40 window/x86_64/libluajit.a(lj_opt_fold.o)
 .rdata$zzz     0x0000000061527300       0x40 window/x86_64/libluajit.a(lj_opt_narrow.o)
 .rdata$zzz     0x0000000061527340       0x40 window/x86_64/libluajit.a(lj_opt_dce.o)
 .rdata$zzz     0x0000000061527380       0x40 window/x86_64/libluajit.a(lj_opt_loop.o)
 .rdata$zzz     0x00000000615273c0       0x40 window/x86_64/libluajit.a(lj_opt_split.o)
 .rdata$zzz     0x0000000061527400       0x40 window/x86_64/libluajit.a(lj_opt_sink.o)
 .rdata$zzz     0x0000000061527440       0x40 window/x86_64/libluajit.a(lj_mcode.o)
 .rdata$zzz     0x0000000061527480       0x40 window/x86_64/libluajit.a(lj_snap.o)
 .rdata$zzz     0x00000000615274c0       0x40 window/x86_64/libluajit.a(lj_record.o)
 .rdata$zzz     0x0000000061527500       0x40 window/x86_64/libluajit.a(lj_crecord.o)
 .rdata$zzz     0x0000000061527540       0x40 window/x86_64/libluajit.a(lj_ffrecord.o)
 .rdata$zzz     0x0000000061527580       0x40 window/x86_64/libluajit.a(lj_asm.o)
 .rdata$zzz     0x00000000615275c0       0x40 window/x86_64/libluajit.a(lj_trace.o)
 .rdata$zzz     0x0000000061527600       0x40 window/x86_64/libluajit.a(lj_gdbjit.o)
 .rdata$zzz     0x0000000061527640       0x40 window/x86_64/libluajit.a(lj_ctype.o)
 .rdata$zzz     0x0000000061527680       0x40 window/x86_64/libluajit.a(lj_cdata.o)
 .rdata$zzz     0x00000000615276c0       0x40 window/x86_64/libluajit.a(lj_cconv.o)
 .rdata$zzz     0x0000000061527700       0x40 window/x86_64/libluajit.a(lj_ccall.o)
 .rdata$zzz     0x0000000061527740       0x40 window/x86_64/libluajit.a(lj_ccallback.o)
 .rdata$zzz     0x0000000061527780       0x40 window/x86_64/libluajit.a(lj_carith.o)
 .rdata$zzz     0x00000000615277c0       0x40 window/x86_64/libluajit.a(lj_clib.o)
 .rdata$zzz     0x0000000061527800       0x40 window/x86_64/libluajit.a(lj_cparse.o)
 .rdata$zzz     0x0000000061527840       0x40 window/x86_64/libluajit.a(lj_lib.o)
 .rdata$zzz     0x0000000061527880       0x40 window/x86_64/libluajit.a(lj_alloc.o)
 .rdata$zzz     0x00000000615278c0       0x40 window/x86_64/libluajit.a(lib_aux.o)
 .rdata$zzz     0x0000000061527900       0x40 window/x86_64/libluajit.a(lib_log.o)
 .rdata$zzz     0x0000000061527940       0x40 window/x86_64/libluajit.a(lib_base.o)
 .rdata$zzz     0x0000000061527980       0x40 window/x86_64/libluajit.a(lib_math.o)
 .rdata$zzz     0x00000000615279c0       0x40 window/x86_64/libluajit.a(lib_bit.o)
 .rdata$zzz     0x0000000061527a00       0x40 window/x86_64/libluajit.a(lib_string.o)
 .rdata$zzz     0x0000000061527a40       0x40 window/x86_64/libluajit.a(lib_table.o)
 .rdata$zzz     0x0000000061527a80       0x40 window/x86_64/libluajit.a(lib_io.o)
 .rdata$zzz     0x0000000061527ac0       0x40 window/x86_64/libluajit.a(lib_os.o)
 .rdata$zzz     0x0000000061527b00       0x40 window/x86_64/libluajit.a(lib_package.o)
 .rdata$zzz     0x0000000061527b40       0x40 window/x86_64/libluajit.a(lib_debug.o)
 .rdata$zzz     0x0000000061527b80       0x40 window/x86_64/libluajit.a(lib_jit.o)
 .rdata$zzz     0x0000000061527bc0       0x40 window/x86_64/libluajit.a(lib_ffi.o)
 .rdata$zzz     0x0000000061527c00       0x40 window/x86_64/libluajit.a(lib_init.o)
 .rdata$zzz     0x0000000061527c40       0x30 C:/msys64/mingw64/bin/../lib/gcc/x86_64-w64-mingw32/8.2.1/../../../../x86_64-w64-mingw32/lib/../lib/libmingw32.a(lib64_libmingw32_a-atonexit.o)
 .rdata$zzz     0x0000000061527c70       0x30 C:/msys64/mingw64/bin/../lib/gcc/x86_64-w64-mingw32/8.2.1/../../../../x86_64-w64-mingw32/lib/../lib/libmingw32.a(lib64_libmingw32_a-gccmain.o)
 .rdata$zzz     0x0000000061527ca0       0x30 C:/msys64/mingw64/bin/../lib/gcc/x86_64-w64-mingw32/8.2.1/../../../../x86_64-w64-mingw32/lib/../lib/libmingw32.a(lib64_libmingw32_a-natstart.o)
 .rdata$zzz     0x0000000061527cd0       0x30 C:/msys64/mingw64/bin/../lib/gcc/x86_64-w64-mingw32/8.2.1/../../../../x86_64-w64-mingw32/lib/../lib/libmingw32.a(lib64_libmingw32_a-gs_support.o)
 .rdata$zzz     0x0000000061527d00       0x30 C:/msys64/mingw64/bin/../lib/gcc/x86_64-w64-mingw32/8.2.1/../../../../x86_64-w64-mingw32/lib/../lib/libmingw32.a(lib64_libmingw32_a-tlssup.o)
 .rdata$zzz     0x0000000061527d30       0x30 C:/msys64/mingw64/bin/../lib/gcc/x86_64-w64-mingw32/8.2.1/../../../../x86_64-w64-mingw32/lib/../lib/libmingw32.a(lib64_libmingw32_a-cinitexe.o)
 .rdata$zzz     0x0000000061527d60       0x30 C:/msys64/mingw64/bin/../lib/gcc/x86_64-w64-mingw32/8.2.1/../../../../x86_64-w64-mingw32/lib/../lib/libmingw32.a(lib64_libmingw32_a-mingw_helpers.o)
 .rdata$zzz     0x0000000061527d90       0x30 C:/msys64/mingw64/bin/../lib/gcc/x86_64-w64-mingw32/8.2.1/../../../../x86_64-w64-mingw32/lib/../lib/libmingw32.a(lib64_libmingw32_a-pseudo-reloc.o)
 .rdata$zzz     0x0000000061527dc0       0x30 C:/msys64/mingw64/bin/../lib/gcc/x86_64-w64-mingw32/8.2.1/../../../../x86_64-w64-mingw32/lib/../lib/libmingw32.a(lib64_libmingw32_a-crt_handler.o)
 .rdata$zzz     0x0000000061527df0       0x30 C:/msys64/mingw64/bin/../lib/gcc/x86_64-w64-mingw32/8.2.1/../../../../x86_64-w64-mingw32/lib/../lib/libmingw32.a(lib64_libmingw32_a-tlsthrd.o)
 .rdata$zzz     0x0000000061527e20       0x30 C:/msys64/mingw64/bin/../lib/gcc/x86_64-w64-mingw32/8.2.1/../../../../x86_64-w64-mingw32/lib/../lib/libmingw32.a(lib64_libmingw32_a-tlsmcrt.o)
 .rdata$zzz     0x0000000061527e50       0x30 C:/msys64/mingw64/bin/../lib/gcc/x86_64-w64-mingw32/8.2.1/../../../../x86_64-w64-mingw32/lib/../lib/libmingw32.a(lib64_libmingw32_a-pseudo-reloc-list.o)
 .rdata$zzz     0x0000000061527e80       0x30 C:/msys64/mingw64/bin/../lib/gcc/x86_64-w64-mingw32/8.2.1/../../../../x86_64-w64-mingw32/lib/../lib/libmingw32.a(lib64_libmingw32_a-pesect.o)
 .rdata$zzz     0x0000000061527eb0       0x30 C:/msys64/mingw64/bin/../lib/gcc/x86_64-w64-mingw32/8.2.1/../../../../x86_64-w64-mingw32/lib/../lib/libmingw32.a(lib64_libmingw32_a-CRT_fp10.o)
 .rdata$zzz     0x0000000061527ee0       0x40 C:/msys64/mingw64/bin/../lib/gcc/x86_64-w64-mingw32/8.2.1/libgcc.a(_ctors.o)
 .rdata$zzz     0x0000000061527f20       0x30 C:/msys64/mingw64/bin/../lib/gcc/x86_64-w64-mingw32/8.2.1/../../../../x86_64-w64-mingw32/lib/../lib/libmingwex.a(lib64_libmingwex_a-dllentry.o)
 .rdata$zzz     0x0000000061527f50       0x30 C:/msys64/mingw64/bin/../lib/gcc/x86_64-w64-mingw32/8.2.1/../../../../x86_64-w64-mingw32/lib/../lib/libmingwex.a(lib64_libmingwex_a-dllmain.o)
 .rdata$zzz     0x0000000061527f80       0x30 C:/msys64/mingw64/bin/../lib/gcc/x86_64-w64-mingw32/8.2.1/../../../../x86_64-w64-mingw32/lib/../lib/libmingwex.a(lib64_libmingwex_a-strtodnrp.o)
 .rdata$zzz     0x0000000061527fb0       0x30 C:/msys64/mingw64/bin/../lib/gcc/x86_64-w64-mingw32/8.2.1/../../../../x86_64-w64-mingw32/lib/../lib/libmingwex.a(lib64_libmingwex_a-fpclassify.o)
 .rdata$zzz     0x0000000061527fe0       0x30 C:/msys64/mingw64/bin/../lib/gcc/x86_64-w64-mingw32/8.2.1/../../../../x86_64-w64-mingw32/lib/../lib/libmingwex.a(lib64_libmingwex_a-isnan.o)
 .rdata$zzz     0x0000000061528010       0x30 C:/msys64/mingw64/bin/../lib/gcc/x86_64-w64-mingw32/8.2.1/../../../../x86_64-w64-mingw32/lib/../lib/libmingwex.a(lib64_libmingwex_a-modf.o)
 .rdata$zzz     0x0000000061528040       0x30 C:/msys64/mingw64/bin/../lib/gcc/x86_64-w64-mingw32/8.2.1/../../../../x86_64-w64-mingw32/lib/../lib/libmingwex.a(lib64_libmingwex_a-powf.o)
 .rdata$zzz     0x0000000061528070       0x30 C:/msys64/mingw64/bin/../lib/gcc/x86_64-w64-mingw32/8.2.1/../../../../x86_64-w64-mingw32/lib/../lib/libmingwex.a(lib64_libmingwex_a-sqrt.o)
 .rdata$zzz     0x00000000615280a0       0x30 C:/msys64/mingw64/bin/../lib/gcc/x86_64-w64-mingw32/8.2.1/../../../../x86_64-w64-mingw32/lib/../lib/libmingwex.a(lib64_libmingwex_a-difftime64.o)
 .rdata$zzz     0x00000000615280d0       0x30 C:/msys64/mingw64/bin/../lib/gcc/x86_64-w64-mingw32/8.2.1/../../../../x86_64-w64-mingw32/lib/../lib/libmingwex.a(lib64_libmingwex_a-gettimeofday.o)
 .rdata$zzz     0x0000000061528100       0x30 C:/msys64/mingw64/bin/../lib/gcc/x86_64-w64-mingw32/8.2.1/../../../../x86_64-w64-mingw32/lib/../lib/libmingwex.a(lib64_libmingwex_a-strtoimax.o)
 .rdata$zzz     0x0000000061528130       0x30 C:/msys64/mingw64/bin/../lib/gcc/x86_64-w64-mingw32/8.2.1/../../../../x86_64-w64-mingw32/lib/../lib/libmingwex.a(lib64_libmingwex_a-strtoumax.o)
 .rdata$zzz     0x0000000061528160       0x30 C:/msys64/mingw64/bin/../lib/gcc/x86_64-w64-mingw32/8.2.1/../../../../x86_64-w64-mingw32/lib/../lib/libmingwex.a(lib64_libmingwex_a-wassert.o)
 .rdata$zzz     0x0000000061528190       0x30 C:/msys64/mingw64/bin/../lib/gcc/x86_64-w64-mingw32/8.2.1/../../../../x86_64-w64-mingw32/lib/../lib/libmingwex.a(lib64_libmingwex_a-atoll.o)
 .rdata$zzz     0x00000000615281c0       0x30 C:/msys64/mingw64/bin/../lib/gcc/x86_64-w64-mingw32/8.2.1/../../../../x86_64-w64-mingw32/lib/../lib/libmingwex.a(lib64_libmingwex_a-fseeko64.o)
 .rdata$zzz     0x00000000615281f0       0x30 C:/msys64/mingw64/bin/../lib/gcc/x86_64-w64-mingw32/8.2.1/../../../../x86_64-w64-mingw32/lib/../lib/libmingwex.a(lib64_libmingwex_a-ftello64.o)
 .rdata$zzz     0x0000000061528220       0x30 C:/msys64/mingw64/bin/../lib/gcc/x86_64-w64-mingw32/8.2.1/../../../../x86_64-w64-mingw32/lib/../lib/libmingwex.a(lib64_libmingwex_a-vsnprintf.o)
 .rdata$zzz     0x0000000061528250       0x30 C:/msys64/mingw64/bin/../lib/gcc/x86_64-w64-mingw32/8.2.1/../../../../x86_64-w64-mingw32/lib/../lib/libmingwex.a(lib64_libmingwex_a-atan2.o)
 .rdata$zzz     0x0000000061528280       0x30 C:/msys64/mingw64/bin/../lib/gcc/x86_64-w64-mingw32/8.2.1/../../../../x86_64-w64-mingw32/lib/../lib/libmingwex.a(lib64_libmingwex_a-cos.o)
 .rdata$zzz     0x00000000615282b0       0x30 C:/msys64/mingw64/bin/../lib/gcc/x86_64-w64-mingw32/8.2.1/../../../../x86_64-w64-mingw32/lib/../lib/libmingwex.a(lib64_libmingwex_a-exp.o)
 .rdata$zzz     0x00000000615282e0       0x30 C:/msys64/mingw64/bin/../lib/gcc/x86_64-w64-mingw32/8.2.1/../../../../x86_64-w64-mingw32/lib/../lib/libmingwex.a(lib64_libmingwex_a-fmod.o)
 .rdata$zzz     0x0000000061528310       0x30 C:/msys64/mingw64/bin/../lib/gcc/x86_64-w64-mingw32/8.2.1/../../../../x86_64-w64-mingw32/lib/../lib/libmingwex.a(lib64_libmingwex_a-ldexp.o)
 .rdata$zzz     0x0000000061528340       0x30 C:/msys64/mingw64/bin/../lib/gcc/x86_64-w64-mingw32/8.2.1/../../../../x86_64-w64-mingw32/lib/../lib/libmingwex.a(lib64_libmingwex_a-log.o)
 .rdata$zzz     0x0000000061528370       0x30 C:/msys64/mingw64/bin/../lib/gcc/x86_64-w64-mingw32/8.2.1/../../../../x86_64-w64-mingw32/lib/../lib/libmingwex.a(lib64_libmingwex_a-pow.o)
 .rdata$zzz     0x00000000615283a0       0x30 C:/msys64/mingw64/bin/../lib/gcc/x86_64-w64-mingw32/8.2.1/../../../../x86_64-w64-mingw32/lib/../lib/libmingwex.a(lib64_libmingwex_a-sin.o)
 .rdata$zzz     0x00000000615283d0       0x30 C:/msys64/mingw64/bin/../lib/gcc/x86_64-w64-mingw32/8.2.1/../../../../x86_64-w64-mingw32/lib/../lib/libmingwex.a(lib64_libmingwex_a-strtodg.o)
 .rdata$zzz     0x0000000061528400       0x30 C:/msys64/mingw64/bin/../lib/gcc/x86_64-w64-mingw32/8.2.1/../../../../x86_64-w64-mingw32/lib/../lib/libmingwex.a(lib64_libmingwex_a-sum.o)
 .rdata$zzz     0x0000000061528430       0x30 C:/msys64/mingw64/bin/../lib/gcc/x86_64-w64-mingw32/8.2.1/../../../../x86_64-w64-mingw32/lib/../lib/libmingwex.a(lib64_libmingwex_a-powi.o)
 .rdata$zzz     0x0000000061528460       0x30 C:/msys64/mingw64/bin/../lib/gcc/x86_64-w64-mingw32/8.2.1/../../../../x86_64-w64-mingw32/lib/../lib/libmingwex.a(lib64_libmingwex_a-gethex.o)
 .rdata$zzz     0x0000000061528490       0x30 C:/msys64/mingw64/bin/../lib/gcc/x86_64-w64-mingw32/8.2.1/../../../../x86_64-w64-mingw32/lib/../lib/libmingwex.a(lib64_libmingwex_a-gmisc.o)
 .rdata$zzz     0x00000000615284c0       0x30 C:/msys64/mingw64/bin/../lib/gcc/x86_64-w64-mingw32/8.2.1/../../../../x86_64-w64-mingw32/lib/../lib/libmingwex.a(lib64_libmingwex_a-hd_init.o)
 .rdata$zzz     0x00000000615284f0       0x30 C:/msys64/mingw64/bin/../lib/gcc/x86_64-w64-mingw32/8.2.1/../../../../x86_64-w64-mingw32/lib/../lib/libmingwex.a(lib64_libmingwex_a-hexnan.o)
 .rdata$zzz     0x0000000061528520       0x30 C:/msys64/mingw64/bin/../lib/gcc/x86_64-w64-mingw32/8.2.1/../../../../x86_64-w64-mingw32/lib/../lib/libmingwex.a(lib64_libmingwex_a-misc.o)
 .rdata$zzz     0x0000000061528550       0x30 C:/msys64/mingw64/bin/../lib/gcc/x86_64-w64-mingw32/8.2.1/../../../../x86_64-w64-mingw32/lib/../lib/libmingwex.a(lib64_libmingwex_a-smisc.o)
 .rdata$zzz     0x0000000061528580       0x30 C:/msys64/mingw64/bin/../lib/gcc/x86_64-w64-mingw32/8.2.1/../../../../x86_64-w64-mingw32/lib/../lib/libmingw32.a(lib64_libmingw32_a-merr.o)
 .rdata$zzz     0x00000000615285b0       0x40 C:/msys64/mingw64/bin/../lib/gcc/x86_64-w64-mingw32/8.2.1/crtend.o
                0x00000000615285f0                __rt_psrelocs_start = .
 *(.rdata_runtime_pseudo_reloc)
                0x00000000615285f0                __rt_psrelocs_end = .
                0x0000000000000000                __rt_psrelocs_size = (__rt_psrelocs_end - __rt_psrelocs_start)
                0x00000000615285f0                ___RUNTIME_PSEUDO_RELOC_LIST_END__ = .
                0x00000000615285f0                __RUNTIME_PSEUDO_RELOC_LIST_END__ = .
                0x00000000615285f0                ___RUNTIME_PSEUDO_RELOC_LIST__ = (. - __rt_psrelocs_size)
                0x00000000615285f0                __RUNTIME_PSEUDO_RELOC_LIST__ = (. - __rt_psrelocs_size)

.eh_frame
 *(.eh_frame*)

.pdata          0x0000000061529000     0xca00
 *(.pdata*)
 .pdata         0x0000000061529000       0x30 C:/msys64/mingw64/bin/../lib/gcc/x86_64-w64-mingw32/8.2.1/../../../../x86_64-w64-mingw32/lib/../lib/dllcrt2.o
 .pdata         0x0000000061529030       0x18 C:/msys64/mingw64/bin/../lib/gcc/x86_64-w64-mingw32/8.2.1/crtbegin.o
 .pdata         0x0000000061529048      0x6e4 C:\msys64\tmp\ccfy01SD.o
 .pdata         0x000000006152972c      0x108 C:\msys64\tmp\ccWMuz0v.o
 .pdata         0x0000000061529834      0x108 C:\msys64\tmp\ccFOXHzz.o
 .pdata         0x000000006152993c      0x1d4 C:\msys64\tmp\ccLjWXKz.o
 .pdata         0x0000000061529b10      0x264 C:\msys64\tmp\ccz1diiN.o
 .pdata         0x0000000061529d74       0xf0 C:\msys64\tmp\ccVizNw9.o
 .pdata         0x0000000061529e64      0x54c C:\msys64\tmp\ccjhsTYI.o
 .pdata         0x000000006152a3b0      0x4d4 C:\msys64\tmp\ccLt5nLD.o
 .pdata         0x000000006152a884       0x84 C:\msys64\tmp\ccuoZVRF.o
 .pdata         0x000000006152a908       0xc0 C:\msys64\tmp\cctFmZYO.o
 .pdata         0x000000006152a9c8      0x294 C:\msys64\tmp\ccuduyC5.o
 .pdata         0x000000006152ac5c       0x60 C:\msys64\tmp\ccJuBzPw.o
 .pdata         0x000000006152acbc      0x2dc C:\msys64\tmp\ccTqPSxT.o
 .pdata         0x000000006152af98     0x5244 C:\msys64\tmp\ccXRde14.o
 .pdata         0x00000000615301dc       0x84 C:\msys64\tmp\ccpSIAqr.o
 .pdata         0x0000000061530260       0x9c C:\msys64\tmp\ccZkAuiV.o
 .pdata         0x00000000615302fc       0x6c C:\msys64\tmp\ccJabTGs.o
 .pdata         0x0000000061530368       0xe4 C:\msys64\tmp\ccQHA7kH.o
 .pdata         0x000000006153044c       0x18 C:\msys64\tmp\ccDKFcP3.o
 .pdata         0x0000000061530464       0x30 C:\msys64\tmp\ccRApjM5.o
 .pdata         0x0000000061530494       0xf0 C:\msys64\tmp\cc5MSZGd.o
 .pdata         0x0000000061530584      0x1f8 C:\msys64\tmp\ccxqqLTc.o
 .pdata         0x000000006153077c       0x60 C:\msys64\tmp\ccenaSVZ.o
 .pdata         0x00000000615307dc      0x138 C:\msys64\tmp\ccSZ239v.o
 .pdata         0x0000000061530914       0x84 C:\msys64\tmp\ccvj8G4H.o
 .pdata         0x0000000061530998      0x114 C:\msys64\tmp\ccldb7oK.o
 .pdata         0x0000000061530aac      0x120 C:\msys64\tmp\cc1vz69F.o
 .pdata         0x0000000061530bcc       0x54 C:\msys64\tmp\ccXkOUMF.o
 .pdata         0x0000000061530c20       0x9c C:\msys64\tmp\cc7I1SCN.o
 .pdata         0x0000000061530cbc       0xb4 C:\msys64\tmp\ccaJ2lTQ.o
 .pdata         0x0000000061530d70       0x48 C:\msys64\tmp\ccTYAR93.o
 .pdata         0x0000000061530db8       0x48 C:\msys64\tmp\cc2LD5lo.o
 .pdata         0x0000000061530e00      0x120 C:\msys64\tmp\cctiLsmQ.o
 .pdata         0x0000000061530f20      0x1e0 C:\msys64\tmp\cckEQkSt.o
 .pdata         0x0000000061531100       0xc0 C:\msys64\tmp\ccxxh8wg.o
 .pdata         0x00000000615311c0       0x78 C:\msys64\tmp\ccoLUxS8.o
 .pdata         0x0000000061531238       0xc0 C:\msys64\tmp\cc5FaVq8.o
 .pdata         0x00000000615312f8       0x24 C:\msys64\tmp\ccg4nTgg.o
 .pdata         0x000000006153131c       0x54 C:\msys64\tmp\ccmZReTk.o
 .pdata         0x0000000061531370       0xf0 C:\msys64\tmp\ccA4uJAu.o
 .pdata         0x0000000061531460      0x234 C:\msys64\tmp\ccS3faXP.o
 .pdata         0x0000000061531694       0x60 C:\msys64\tmp\ccoUgfsm.o
 .pdata         0x00000000615316f4       0xcc C:\msys64\tmp\ccUcMoTZ.o
 .pdata         0x00000000615317c0       0xf0 C:\msys64\tmp\ccidGW4M.o
 .pdata         0x00000000615318b0       0x18 C:\msys64\tmp\ccYk3DtG.o
 .pdata         0x00000000615318c8       0x54 C:\msys64\tmp\ccQIpGaD.o
 .pdata         0x000000006153191c        0xc C:/msys64/mingw64/bin/../lib/gcc/x86_64-w64-mingw32/8.2.1/../../../../x86_64-w64-mingw32/lib/../lib/libws2_32.a(lib64_libws2_32_a-gai_strerrorA.o)
 .pdata         0x0000000061531928        0xc C:/msys64/mingw64/bin/../lib/gcc/x86_64-w64-mingw32/8.2.1/../../../../x86_64-w64-mingw32/lib/../lib/libws2_32.a(lib64_libws2_32_a-gai_strerrorW.o)
 .pdata         0x0000000061531934       0x18 window/x86_64/libluajit.a(lj_vm.o)
 .pdata         0x000000006153194c      0x120 window/x86_64/libluajit.a(lj_gc.o)
 .pdata         0x0000000061531a6c      0x150 window/x86_64/libluajit.a(lj_err.o)
 .pdata         0x0000000061531bbc       0x18 window/x86_64/libluajit.a(lj_obj.o)
 .pdata         0x0000000061531bd4       0xc0 window/x86_64/libluajit.a(lj_buf.o)
 .pdata         0x0000000061531c94       0x48 window/x86_64/libluajit.a(lj_str.o)
 .pdata         0x0000000061531cdc      0x108 window/x86_64/libluajit.a(lj_tab.o)
 .pdata         0x0000000061531de4       0x60 window/x86_64/libluajit.a(lj_func.o)
 .pdata         0x0000000061531e44       0x18 window/x86_64/libluajit.a(lj_udata.o)
 .pdata         0x0000000061531e5c       0xc0 window/x86_64/libluajit.a(lj_meta.o)
 .pdata         0x0000000061531f1c       0xfc window/x86_64/libluajit.a(lj_debug.o)
 .pdata         0x0000000061532018       0x9c window/x86_64/libluajit.a(lj_state.o)
 .pdata         0x00000000615320b4       0xcc window/x86_64/libluajit.a(lj_dispatch.o)
 .pdata         0x0000000061532180       0x18 window/x86_64/libluajit.a(lj_vmevent.o)
 .pdata         0x0000000061532198       0x48 window/x86_64/libluajit.a(lj_vmmath.o)
 .pdata         0x00000000615321e0       0x30 window/x86_64/libluajit.a(lj_strscan.o)
 .pdata         0x0000000061532210       0xf0 window/x86_64/libluajit.a(lj_strfmt.o)
 .pdata         0x0000000061532300       0x48 window/x86_64/libluajit.a(lj_strfmt_num.o)
 .pdata         0x0000000061532348      0x444 window/x86_64/libluajit.a(lj_api.o)
 .pdata         0x000000006153278c       0x54 window/x86_64/libluajit.a(lj_profile.o)
 .pdata         0x00000000615327e0       0x9c window/x86_64/libluajit.a(lj_lex.o)
 .pdata         0x000000006153287c      0x2b8 window/x86_64/libluajit.a(lj_parse.o)
 .pdata         0x0000000061532b34       0x3c window/x86_64/libluajit.a(lj_bcread.o)
 .pdata         0x0000000061532b70       0x30 window/x86_64/libluajit.a(lj_bcwrite.o)
 .pdata         0x0000000061532ba0       0x84 window/x86_64/libluajit.a(lj_load.o)
 .pdata         0x0000000061532c24      0x108 window/x86_64/libluajit.a(lj_ir.o)
 .pdata         0x0000000061532d2c       0xf0 window/x86_64/libluajit.a(lj_opt_mem.o)
 .pdata         0x0000000061532e1c      0x6d8 window/x86_64/libluajit.a(lj_opt_fold.o)
 .pdata         0x00000000615334f4       0xa8 window/x86_64/libluajit.a(lj_opt_narrow.o)
 .pdata         0x000000006153359c       0x18 window/x86_64/libluajit.a(lj_opt_dce.o)
 .pdata         0x00000000615335b4       0x18 window/x86_64/libluajit.a(lj_opt_loop.o)
 .pdata         0x00000000615335cc       0x30 window/x86_64/libluajit.a(lj_opt_sink.o)
 .pdata         0x00000000615335fc       0x78 window/x86_64/libluajit.a(lj_mcode.o)
 .pdata         0x0000000061533674       0xa8 window/x86_64/libluajit.a(lj_snap.o)
 .pdata         0x000000006153371c      0x168 window/x86_64/libluajit.a(lj_record.o)
 .pdata         0x0000000061533884      0x180 window/x86_64/libluajit.a(lj_crecord.o)
 .pdata         0x0000000061533a04      0x2a0 window/x86_64/libluajit.a(lj_ffrecord.o)
 .pdata         0x0000000061533ca4      0x324 window/x86_64/libluajit.a(lj_asm.o)
 .pdata         0x0000000061533fc8       0xd8 window/x86_64/libluajit.a(lj_trace.o)
 .pdata         0x00000000615340a0       0xd8 window/x86_64/libluajit.a(lj_ctype.o)
 .pdata         0x0000000061534178       0x60 window/x86_64/libluajit.a(lj_cdata.o)
 .pdata         0x00000000615341d8       0x9c window/x86_64/libluajit.a(lj_cconv.o)
 .pdata         0x0000000061534274       0x18 window/x86_64/libluajit.a(lj_ccall.o)
 .pdata         0x000000006153428c       0x3c window/x86_64/libluajit.a(lj_ccallback.o)
 .pdata         0x00000000615342c8       0x78 window/x86_64/libluajit.a(lj_carith.o)
 .pdata         0x0000000061534340       0x48 window/x86_64/libluajit.a(lj_clib.o)
 .pdata         0x0000000061534388      0x174 window/x86_64/libluajit.a(lj_cparse.o)
 .pdata         0x00000000615344fc       0xa8 window/x86_64/libluajit.a(lj_lib.o)
 .pdata         0x00000000615345a4       0x6c window/x86_64/libluajit.a(lj_alloc.o)
 .pdata.unlikely
                0x0000000061534610       0x18 window/x86_64/libluajit.a(lj_alloc.o)
 .pdata         0x0000000061534628      0x138 window/x86_64/libluajit.a(lib_aux.o)
 .pdata         0x0000000061534760       0x30 window/x86_64/libluajit.a(lib_log.o)
 .pdata         0x0000000061534790      0x1c8 window/x86_64/libluajit.a(lib_base.o)
 .pdata         0x0000000061534958       0x84 window/x86_64/libluajit.a(lib_math.o)
 .pdata         0x00000000615349dc       0x54 window/x86_64/libluajit.a(lib_bit.o)
 .pdata         0x0000000061534a30      0x114 window/x86_64/libluajit.a(lib_string.o)
 .pdata         0x0000000061534b44       0x84 window/x86_64/libluajit.a(lib_table.o)
 .pdata         0x0000000061534bc8      0x18c window/x86_64/libluajit.a(lib_io.o)
 .pdata         0x0000000061534d54       0x9c window/x86_64/libluajit.a(lib_os.o)
 .pdata         0x0000000061534df0       0xfc window/x86_64/libluajit.a(lib_package.o)
 .pdata         0x0000000061534eec       0xe4 window/x86_64/libluajit.a(lib_debug.o)
 .pdata         0x0000000061534fd0      0x15c window/x86_64/libluajit.a(lib_jit.o)
 .pdata         0x000000006153512c      0x24c window/x86_64/libluajit.a(lib_ffi.o)
 .pdata         0x0000000061535378        0xc window/x86_64/libluajit.a(lib_init.o)
 .pdata         0x0000000061535384       0x18 C:/msys64/mingw64/bin/../lib/gcc/x86_64-w64-mingw32/8.2.1/../../../../x86_64-w64-mingw32/lib/../lib/libmingw32.a(lib64_libmingw32_a-atonexit.o)
 .pdata         0x000000006153539c       0x24 C:/msys64/mingw64/bin/../lib/gcc/x86_64-w64-mingw32/8.2.1/../../../../x86_64-w64-mingw32/lib/../lib/libmingw32.a(lib64_libmingw32_a-gccmain.o)
 .pdata         0x00000000615353c0       0x18 C:/msys64/mingw64/bin/../lib/gcc/x86_64-w64-mingw32/8.2.1/../../../../x86_64-w64-mingw32/lib/../lib/libmingw32.a(lib64_libmingw32_a-gs_support.o)
 .pdata         0x00000000615353d8       0x24 C:/msys64/mingw64/bin/../lib/gcc/x86_64-w64-mingw32/8.2.1/../../../../x86_64-w64-mingw32/lib/../lib/libmingw32.a(lib64_libmingw32_a-tlssup.o)
 .pdata         0x00000000615353fc       0x18 C:/msys64/mingw64/bin/../lib/gcc/x86_64-w64-mingw32/8.2.1/../../../../x86_64-w64-mingw32/lib/../lib/libmingw32.a(lib64_libmingw32_a-mingw_helpers.o)
 .pdata.unlikely
                0x0000000061535414        0xc C:/msys64/mingw64/bin/../lib/gcc/x86_64-w64-mingw32/8.2.1/../../../../x86_64-w64-mingw32/lib/../lib/libmingw32.a(lib64_libmingw32_a-pseudo-reloc.o)
 .pdata         0x0000000061535420       0x18 C:/msys64/mingw64/bin/../lib/gcc/x86_64-w64-mingw32/8.2.1/../../../../x86_64-w64-mingw32/lib/../lib/libmingw32.a(lib64_libmingw32_a-pseudo-reloc.o)
 .pdata         0x0000000061535438       0x24 C:/msys64/mingw64/bin/../lib/gcc/x86_64-w64-mingw32/8.2.1/../../../../x86_64-w64-mingw32/lib/../lib/libmingw32.a(lib64_libmingw32_a-crt_handler.o)
 .pdata         0x000000006153545c       0x30 C:/msys64/mingw64/bin/../lib/gcc/x86_64-w64-mingw32/8.2.1/../../../../x86_64-w64-mingw32/lib/../lib/libmingw32.a(lib64_libmingw32_a-tlsthrd.o)
 .pdata         0x000000006153548c       0x78 C:/msys64/mingw64/bin/../lib/gcc/x86_64-w64-mingw32/8.2.1/../../../../x86_64-w64-mingw32/lib/../lib/libmingw32.a(lib64_libmingw32_a-pesect.o)
 .pdata         0x0000000061535504        0xc C:/msys64/mingw64/bin/../lib/gcc/x86_64-w64-mingw32/8.2.1/../../../../x86_64-w64-mingw32/lib/../lib/libmingw32.a(lib64_libmingw32_a-CRT_fp10.o)
 .pdata         0x0000000061535510        0xc C:/msys64/mingw64/bin/../lib/gcc/x86_64-w64-mingw32/8.2.1/../../../../x86_64-w64-mingw32/lib/../lib/libmingwex.a(lib64_libmingwex_a-dllentry.o)
 .pdata         0x000000006153551c        0xc C:/msys64/mingw64/bin/../lib/gcc/x86_64-w64-mingw32/8.2.1/../../../../x86_64-w64-mingw32/lib/../lib/libmingwex.a(lib64_libmingwex_a-dllmain.o)
 .pdata         0x0000000061535528        0xc C:/msys64/mingw64/bin/../lib/gcc/x86_64-w64-mingw32/8.2.1/../../../../x86_64-w64-mingw32/lib/../lib/libmingwex.a(lib64_libmingwex_a-strtodnrp.o)
 .pdata         0x0000000061535534        0xc C:/msys64/mingw64/bin/../lib/gcc/x86_64-w64-mingw32/8.2.1/../../../../x86_64-w64-mingw32/lib/../lib/libmingwex.a(lib64_libmingwex_a-fpclassify.o)
 .pdata         0x0000000061535540        0xc C:/msys64/mingw64/bin/../lib/gcc/x86_64-w64-mingw32/8.2.1/../../../../x86_64-w64-mingw32/lib/../lib/libmingwex.a(lib64_libmingwex_a-isnan.o)
 .pdata         0x000000006153554c        0xc C:/msys64/mingw64/bin/../lib/gcc/x86_64-w64-mingw32/8.2.1/../../../../x86_64-w64-mingw32/lib/../lib/libmingwex.a(lib64_libmingwex_a-modf.o)
 .pdata         0x0000000061535558        0xc C:/msys64/mingw64/bin/../lib/gcc/x86_64-w64-mingw32/8.2.1/../../../../x86_64-w64-mingw32/lib/../lib/libmingwex.a(lib64_libmingwex_a-powf.o)
 .pdata         0x0000000061535564        0xc C:/msys64/mingw64/bin/../lib/gcc/x86_64-w64-mingw32/8.2.1/../../../../x86_64-w64-mingw32/lib/../lib/libmingwex.a(lib64_libmingwex_a-sqrt.o)
 .pdata         0x0000000061535570        0xc C:/msys64/mingw64/bin/../lib/gcc/x86_64-w64-mingw32/8.2.1/../../../../x86_64-w64-mingw32/lib/../lib/libmingwex.a(lib64_libmingwex_a-difftime64.o)
 .pdata         0x000000006153557c       0x24 C:/msys64/mingw64/bin/../lib/gcc/x86_64-w64-mingw32/8.2.1/../../../../x86_64-w64-mingw32/lib/../lib/libmingwex.a(lib64_libmingwex_a-gettimeofday.o)
 .pdata         0x00000000615355a0        0xc C:/msys64/mingw64/bin/../lib/gcc/x86_64-w64-mingw32/8.2.1/../../../../x86_64-w64-mingw32/lib/../lib/libmingwex.a(lib64_libmingwex_a-strtoimax.o)
 .pdata         0x00000000615355ac        0xc C:/msys64/mingw64/bin/../lib/gcc/x86_64-w64-mingw32/8.2.1/../../../../x86_64-w64-mingw32/lib/../lib/libmingwex.a(lib64_libmingwex_a-strtoumax.o)
 .pdata         0x00000000615355b8       0x18 C:/msys64/mingw64/bin/../lib/gcc/x86_64-w64-mingw32/8.2.1/../../../../x86_64-w64-mingw32/lib/../lib/libmingwex.a(lib64_libmingwex_a-wassert.o)
 .pdata         0x00000000615355d0        0xc C:/msys64/mingw64/bin/../lib/gcc/x86_64-w64-mingw32/8.2.1/../../../../x86_64-w64-mingw32/lib/../lib/libmingwex.a(lib64_libmingwex_a-atoll.o)
 .pdata         0x00000000615355dc       0x3c C:/msys64/mingw64/bin/../lib/gcc/x86_64-w64-mingw32/8.2.1/../../../../x86_64-w64-mingw32/lib/../lib/libmingwex.a(lib64_libmingwex_a-fseeko64.o)
 .pdata         0x0000000061535618        0xc C:/msys64/mingw64/bin/../lib/gcc/x86_64-w64-mingw32/8.2.1/../../../../x86_64-w64-mingw32/lib/../lib/libmingwex.a(lib64_libmingwex_a-ftello64.o)
 .pdata         0x0000000061535624        0xc C:/msys64/mingw64/bin/../lib/gcc/x86_64-w64-mingw32/8.2.1/../../../../x86_64-w64-mingw32/lib/../lib/libmingwex.a(lib64_libmingwex_a-vsnprintf.o)
 .pdata         0x0000000061535630        0xc C:/msys64/mingw64/bin/../lib/gcc/x86_64-w64-mingw32/8.2.1/../../../../x86_64-w64-mingw32/lib/../lib/libmingwex.a(lib64_libmingwex_a-atan2.o)
 .pdata         0x000000006153563c        0xc C:/msys64/mingw64/bin/../lib/gcc/x86_64-w64-mingw32/8.2.1/../../../../x86_64-w64-mingw32/lib/../lib/libmingwex.a(lib64_libmingwex_a-cos.o)
 .pdata         0x0000000061535648        0xc C:/msys64/mingw64/bin/../lib/gcc/x86_64-w64-mingw32/8.2.1/../../../../x86_64-w64-mingw32/lib/../lib/libmingwex.a(lib64_libmingwex_a-exp.o)
 .pdata         0x0000000061535654        0xc C:/msys64/mingw64/bin/../lib/gcc/x86_64-w64-mingw32/8.2.1/../../../../x86_64-w64-mingw32/lib/../lib/libmingwex.a(lib64_libmingwex_a-floor.o)
 .pdata         0x0000000061535660        0xc C:/msys64/mingw64/bin/../lib/gcc/x86_64-w64-mingw32/8.2.1/../../../../x86_64-w64-mingw32/lib/../lib/libmingwex.a(lib64_libmingwex_a-fmod.o)
 .pdata         0x000000006153566c        0xc C:/msys64/mingw64/bin/../lib/gcc/x86_64-w64-mingw32/8.2.1/../../../../x86_64-w64-mingw32/lib/../lib/libmingwex.a(lib64_libmingwex_a-ldexp.o)
 .pdata         0x0000000061535678        0xc C:/msys64/mingw64/bin/../lib/gcc/x86_64-w64-mingw32/8.2.1/../../../../x86_64-w64-mingw32/lib/../lib/libmingwex.a(lib64_libmingwex_a-log.o)
 .pdata         0x0000000061535684       0x18 C:/msys64/mingw64/bin/../lib/gcc/x86_64-w64-mingw32/8.2.1/../../../../x86_64-w64-mingw32/lib/../lib/libmingwex.a(lib64_libmingwex_a-pow.o)
 .pdata         0x000000006153569c        0xc C:/msys64/mingw64/bin/../lib/gcc/x86_64-w64-mingw32/8.2.1/../../../../x86_64-w64-mingw32/lib/../lib/libmingwex.a(lib64_libmingwex_a-sin.o)
 .pdata         0x00000000615356a8       0x3c C:/msys64/mingw64/bin/../lib/gcc/x86_64-w64-mingw32/8.2.1/../../../../x86_64-w64-mingw32/lib/../lib/libmingwex.a(lib64_libmingwex_a-strtodg.o)
 .pdata         0x00000000615356e4        0xc C:/msys64/mingw64/bin/../lib/gcc/x86_64-w64-mingw32/8.2.1/../../../../x86_64-w64-mingw32/lib/../lib/libmingwex.a(lib64_libmingwex_a-sum.o)
 .pdata         0x00000000615356f0        0xc C:/msys64/mingw64/bin/../lib/gcc/x86_64-w64-mingw32/8.2.1/../../../../x86_64-w64-mingw32/lib/../lib/libmingwex.a(lib64_libmingwex_a-powi.o)
 .pdata         0x00000000615356fc        0xc C:/msys64/mingw64/bin/../lib/gcc/x86_64-w64-mingw32/8.2.1/../../../../x86_64-w64-mingw32/lib/../lib/libmingwex.a(lib64_libmingwex_a-gethex.o)
 .pdata         0x0000000061535708       0x18 C:/msys64/mingw64/bin/../lib/gcc/x86_64-w64-mingw32/8.2.1/../../../../x86_64-w64-mingw32/lib/../lib/libmingwex.a(lib64_libmingwex_a-gmisc.o)
 .pdata         0x0000000061535720        0xc C:/msys64/mingw64/bin/../lib/gcc/x86_64-w64-mingw32/8.2.1/../../../../x86_64-w64-mingw32/lib/../lib/libmingwex.a(lib64_libmingwex_a-hd_init.o)
 .pdata         0x000000006153572c        0xc C:/msys64/mingw64/bin/../lib/gcc/x86_64-w64-mingw32/8.2.1/../../../../x86_64-w64-mingw32/lib/../lib/libmingwex.a(lib64_libmingwex_a-hexnan.o)
 .pdata         0x0000000061535738       0xa8 C:/msys64/mingw64/bin/../lib/gcc/x86_64-w64-mingw32/8.2.1/../../../../x86_64-w64-mingw32/lib/../lib/libmingwex.a(lib64_libmingwex_a-misc.o)
 .pdata         0x00000000615357e0       0x3c C:/msys64/mingw64/bin/../lib/gcc/x86_64-w64-mingw32/8.2.1/../../../../x86_64-w64-mingw32/lib/../lib/libmingwex.a(lib64_libmingwex_a-smisc.o)
 .pdata         0x000000006153581c       0x24 C:/msys64/mingw64/bin/../lib/gcc/x86_64-w64-mingw32/8.2.1/../../../../x86_64-w64-mingw32/lib/../lib/libmingw32.a(lib64_libmingw32_a-merr.o)
 .pdata.startup
                0x0000000061535840        0xc C:/msys64/mingw64/bin/../lib/gcc/x86_64-w64-mingw32/8.2.1/crtend.o

.xdata          0x0000000061536000     0xc200
 *(.xdata*)
 .xdata         0x0000000061536000       0x34 C:/msys64/mingw64/bin/../lib/gcc/x86_64-w64-mingw32/8.2.1/../../../../x86_64-w64-mingw32/lib/../lib/dllcrt2.o
 .xdata         0x0000000061536034        0x8 C:/msys64/mingw64/bin/../lib/gcc/x86_64-w64-mingw32/8.2.1/crtbegin.o
 .xdata         0x000000006153603c      0x6cc C:\msys64\tmp\ccfy01SD.o
 .xdata         0x0000000061536708      0x108 C:\msys64\tmp\ccWMuz0v.o
 .xdata         0x0000000061536810      0x108 C:\msys64\tmp\ccFOXHzz.o
 .xdata         0x0000000061536918      0x1cc C:\msys64\tmp\ccLjWXKz.o
 .xdata         0x0000000061536ae4      0x268 C:\msys64\tmp\ccz1diiN.o
 .xdata         0x0000000061536d4c       0xf0 C:\msys64\tmp\ccVizNw9.o
 .xdata         0x0000000061536e3c      0x54c C:\msys64\tmp\ccjhsTYI.o
 .xdata         0x0000000061537388      0x4cc C:\msys64\tmp\ccLt5nLD.o
 .xdata         0x0000000061537854       0x80 C:\msys64\tmp\ccuoZVRF.o
 .xdata         0x00000000615378d4       0xbc C:\msys64\tmp\cctFmZYO.o
 .xdata         0x0000000061537990      0x268 C:\msys64\tmp\ccuduyC5.o
 .xdata         0x0000000061537bf8       0x60 C:\msys64\tmp\ccJuBzPw.o
 .xdata         0x0000000061537c58      0x2f4 C:\msys64\tmp\ccTqPSxT.o
 .xdata         0x0000000061537f4c     0x5010 C:\msys64\tmp\ccXRde14.o
 .xdata         0x000000006153cf5c       0x80 C:\msys64\tmp\ccpSIAqr.o
 .xdata         0x000000006153cfdc       0x98 C:\msys64\tmp\ccZkAuiV.o
 .xdata         0x000000006153d074       0x68 C:\msys64\tmp\ccJabTGs.o
 .xdata         0x000000006153d0dc       0xe4 C:\msys64\tmp\ccQHA7kH.o
 .xdata         0x000000006153d1c0       0x10 C:\msys64\tmp\ccDKFcP3.o
 .xdata         0x000000006153d1d0       0x30 C:\msys64\tmp\ccRApjM5.o
 .xdata         0x000000006153d200       0xf0 C:\msys64\tmp\cc5MSZGd.o
 .xdata         0x000000006153d2f0      0x1f8 C:\msys64\tmp\ccxqqLTc.o
 .xdata         0x000000006153d4e8       0x60 C:\msys64\tmp\ccenaSVZ.o
 .xdata         0x000000006153d548      0x138 C:\msys64\tmp\ccSZ239v.o
 .xdata         0x000000006153d680       0x84 C:\msys64\tmp\ccvj8G4H.o
 .xdata         0x000000006153d704      0x114 C:\msys64\tmp\ccldb7oK.o
 .xdata         0x000000006153d818      0x11c C:\msys64\tmp\cc1vz69F.o
 .xdata         0x000000006153d934       0x54 C:\msys64\tmp\ccXkOUMF.o
 .xdata         0x000000006153d988       0x9c C:\msys64\tmp\cc7I1SCN.o
 .xdata         0x000000006153da24       0x98 C:\msys64\tmp\ccaJ2lTQ.o
 .xdata         0x000000006153dabc       0x48 C:\msys64\tmp\ccTYAR93.o
 .xdata         0x000000006153db04       0x48 C:\msys64\tmp\cc2LD5lo.o
 .xdata         0x000000006153db4c      0x120 C:\msys64\tmp\cctiLsmQ.o
 .xdata         0x000000006153dc6c      0x1c4 C:\msys64\tmp\cckEQkSt.o
 .xdata         0x000000006153de30       0xc0 C:\msys64\tmp\ccxxh8wg.o
 .xdata         0x000000006153def0       0x78 C:\msys64\tmp\ccoLUxS8.o
 .xdata         0x000000006153df68       0xc0 C:\msys64\tmp\cc5FaVq8.o
 .xdata         0x000000006153e028       0x24 C:\msys64\tmp\ccg4nTgg.o
 .xdata         0x000000006153e04c       0x50 C:\msys64\tmp\ccmZReTk.o
 .xdata         0x000000006153e09c       0xe8 C:\msys64\tmp\ccA4uJAu.o
 .xdata         0x000000006153e184      0x228 C:\msys64\tmp\ccS3faXP.o
 .xdata         0x000000006153e3ac       0x5c C:\msys64\tmp\ccoUgfsm.o
 .xdata         0x000000006153e408       0xcc C:\msys64\tmp\ccUcMoTZ.o
 .xdata         0x000000006153e4d4       0xec C:\msys64\tmp\ccidGW4M.o
 .xdata         0x000000006153e5c0       0x14 C:\msys64\tmp\ccYk3DtG.o
 .xdata         0x000000006153e5d4       0x4c C:\msys64\tmp\ccQIpGaD.o
 .xdata         0x000000006153e620        0x8 C:/msys64/mingw64/bin/../lib/gcc/x86_64-w64-mingw32/8.2.1/../../../../x86_64-w64-mingw32/lib/../lib/libws2_32.a(lib64_libws2_32_a-gai_strerrorA.o)
 .xdata         0x000000006153e628        0x8 C:/msys64/mingw64/bin/../lib/gcc/x86_64-w64-mingw32/8.2.1/../../../../x86_64-w64-mingw32/lib/../lib/libws2_32.a(lib64_libws2_32_a-gai_strerrorW.o)
 .xdata         0x000000006153e630       0x20 window/x86_64/libluajit.a(lj_vm.o)
 .xdata         0x000000006153e650      0x128 window/x86_64/libluajit.a(lj_gc.o)
 .xdata         0x000000006153e778      0x118 window/x86_64/libluajit.a(lj_err.o)
 .xdata         0x000000006153e890        0xc window/x86_64/libluajit.a(lj_obj.o)
 .xdata         0x000000006153e89c       0xb8 window/x86_64/libluajit.a(lj_buf.o)
 .xdata         0x000000006153e954       0x58 window/x86_64/libluajit.a(lj_str.o)
 .xdata         0x000000006153e9ac       0xf0 window/x86_64/libluajit.a(lj_tab.o)
 .xdata         0x000000006153ea9c       0x60 window/x86_64/libluajit.a(lj_func.o)
 .xdata         0x000000006153eafc       0x10 window/x86_64/libluajit.a(lj_udata.o)
 .xdata         0x000000006153eb0c       0xf0 window/x86_64/libluajit.a(lj_meta.o)
 .xdata         0x000000006153ebfc      0x108 window/x86_64/libluajit.a(lj_debug.o)
 .xdata         0x000000006153ed04       0x84 window/x86_64/libluajit.a(lj_state.o)
 .xdata         0x000000006153ed88       0xc4 window/x86_64/libluajit.a(lj_dispatch.o)
 .xdata         0x000000006153ee4c       0x20 window/x86_64/libluajit.a(lj_vmevent.o)
 .xdata         0x000000006153ee6c       0x30 window/x86_64/libluajit.a(lj_vmmath.o)
 .xdata         0x000000006153ee9c       0x40 window/x86_64/libluajit.a(lj_strscan.o)
 .xdata         0x000000006153eedc       0xf0 window/x86_64/libluajit.a(lj_strfmt.o)
 .xdata         0x000000006153efcc       0x40 window/x86_64/libluajit.a(lj_strfmt_num.o)
 .xdata         0x000000006153f00c      0x330 window/x86_64/libluajit.a(lj_api.o)
 .xdata         0x000000006153f33c       0x5c window/x86_64/libluajit.a(lj_profile.o)
 .xdata         0x000000006153f398       0xa4 window/x86_64/libluajit.a(lj_lex.o)
 .xdata         0x000000006153f43c      0x2ec window/x86_64/libluajit.a(lj_parse.o)
 .xdata         0x000000006153f728       0x58 window/x86_64/libluajit.a(lj_bcread.o)
 .xdata         0x000000006153f780       0x3c window/x86_64/libluajit.a(lj_bcwrite.o)
 .xdata         0x000000006153f7bc       0x6c window/x86_64/libluajit.a(lj_load.o)
 .xdata         0x000000006153f828       0xd4 window/x86_64/libluajit.a(lj_ir.o)
 .xdata         0x000000006153f8fc      0x134 window/x86_64/libluajit.a(lj_opt_mem.o)
 .xdata         0x000000006153fa30      0x38c window/x86_64/libluajit.a(lj_opt_fold.o)
 .xdata         0x000000006153fdbc       0xc4 window/x86_64/libluajit.a(lj_opt_narrow.o)
 .xdata         0x000000006153fe80       0x14 window/x86_64/libluajit.a(lj_opt_dce.o)
 .xdata         0x000000006153fe94       0x28 window/x86_64/libluajit.a(lj_opt_loop.o)
 .xdata         0x000000006153febc       0x28 window/x86_64/libluajit.a(lj_opt_sink.o)
 .xdata         0x000000006153fee4       0x68 window/x86_64/libluajit.a(lj_mcode.o)
 .xdata         0x000000006153ff4c       0xd8 window/x86_64/libluajit.a(lj_snap.o)
 .xdata         0x0000000061540024      0x1c8 window/x86_64/libluajit.a(lj_record.o)
 .xdata         0x00000000615401ec      0x1fc window/x86_64/libluajit.a(lj_crecord.o)
 .xdata         0x00000000615403e8      0x2e8 window/x86_64/libluajit.a(lj_ffrecord.o)
 .xdata         0x00000000615406d0      0x340 window/x86_64/libluajit.a(lj_asm.o)
 .xdata         0x0000000061540a10       0xc0 window/x86_64/libluajit.a(lj_trace.o)
 .xdata         0x0000000061540ad0       0xbc window/x86_64/libluajit.a(lj_ctype.o)
 .xdata         0x0000000061540b8c       0x60 window/x86_64/libluajit.a(lj_cdata.o)
 .xdata         0x0000000061540bec       0xb8 window/x86_64/libluajit.a(lj_cconv.o)
 .xdata         0x0000000061540ca4       0x1c window/x86_64/libluajit.a(lj_ccall.o)
 .xdata         0x0000000061540cc0       0x44 window/x86_64/libluajit.a(lj_ccallback.o)
 .xdata         0x0000000061540d04       0x44 window/x86_64/libluajit.a(lj_carith.o)
 .xdata         0x0000000061540d48       0x5c window/x86_64/libluajit.a(lj_clib.o)
 .xdata         0x0000000061540da4      0x1b4 window/x86_64/libluajit.a(lj_cparse.o)
 .xdata         0x0000000061540f58       0xa4 window/x86_64/libluajit.a(lj_lib.o)
 .xdata         0x0000000061540ffc       0x80 window/x86_64/libluajit.a(lj_alloc.o)
 .xdata.unlikely
                0x000000006154107c       0x38 window/x86_64/libluajit.a(lj_alloc.o)
 .xdata         0x00000000615410b4      0x120 window/x86_64/libluajit.a(lib_aux.o)
 .xdata         0x00000000615411d4       0x1c window/x86_64/libluajit.a(lib_log.o)
 .xdata         0x00000000615411f0      0x170 window/x86_64/libluajit.a(lib_base.o)
 .xdata         0x0000000061541360       0x6c window/x86_64/libluajit.a(lib_math.o)
 .xdata         0x00000000615413cc       0x58 window/x86_64/libluajit.a(lib_bit.o)
 .xdata         0x0000000061541424      0x128 window/x86_64/libluajit.a(lib_string.o)
 .xdata         0x000000006154154c       0x84 window/x86_64/libluajit.a(lib_table.o)
 .xdata         0x00000000615415d0      0x164 window/x86_64/libluajit.a(lib_io.o)
 .xdata         0x0000000061541734       0x90 window/x86_64/libluajit.a(lib_os.o)
 .xdata         0x00000000615417c4      0x120 window/x86_64/libluajit.a(lib_package.o)
 .xdata         0x00000000615418e4      0x100 window/x86_64/libluajit.a(lib_debug.o)
 .xdata         0x00000000615419e4      0x174 window/x86_64/libluajit.a(lib_jit.o)
 .xdata         0x0000000061541b58      0x1f0 window/x86_64/libluajit.a(lib_ffi.o)
 .xdata         0x0000000061541d48        0xc window/x86_64/libluajit.a(lib_init.o)
 .xdata         0x0000000061541d54       0x10 C:/msys64/mingw64/bin/../lib/gcc/x86_64-w64-mingw32/8.2.1/../../../../x86_64-w64-mingw32/lib/../lib/libmingw32.a(lib64_libmingw32_a-atonexit.o)
 .xdata         0x0000000061541d64       0x18 C:/msys64/mingw64/bin/../lib/gcc/x86_64-w64-mingw32/8.2.1/../../../../x86_64-w64-mingw32/lib/../lib/libmingw32.a(lib64_libmingw32_a-gccmain.o)
 .xdata         0x0000000061541d7c       0x20 C:/msys64/mingw64/bin/../lib/gcc/x86_64-w64-mingw32/8.2.1/../../../../x86_64-w64-mingw32/lib/../lib/libmingw32.a(lib64_libmingw32_a-gs_support.o)
 .xdata         0x0000000061541d9c       0x18 C:/msys64/mingw64/bin/../lib/gcc/x86_64-w64-mingw32/8.2.1/../../../../x86_64-w64-mingw32/lib/../lib/libmingw32.a(lib64_libmingw32_a-tlssup.o)
 .xdata         0x0000000061541db4        0x8 C:/msys64/mingw64/bin/../lib/gcc/x86_64-w64-mingw32/8.2.1/../../../../x86_64-w64-mingw32/lib/../lib/libmingw32.a(lib64_libmingw32_a-mingw_helpers.o)
 .xdata.unlikely
                0x0000000061541dbc        0xc C:/msys64/mingw64/bin/../lib/gcc/x86_64-w64-mingw32/8.2.1/../../../../x86_64-w64-mingw32/lib/../lib/libmingw32.a(lib64_libmingw32_a-pseudo-reloc.o)
 .xdata         0x0000000061541dc8       0x28 C:/msys64/mingw64/bin/../lib/gcc/x86_64-w64-mingw32/8.2.1/../../../../x86_64-w64-mingw32/lib/../lib/libmingw32.a(lib64_libmingw32_a-pseudo-reloc.o)
 .xdata         0x0000000061541df0       0x20 C:/msys64/mingw64/bin/../lib/gcc/x86_64-w64-mingw32/8.2.1/../../../../x86_64-w64-mingw32/lib/../lib/libmingw32.a(lib64_libmingw32_a-crt_handler.o)
 .xdata         0x0000000061541e10       0x30 C:/msys64/mingw64/bin/../lib/gcc/x86_64-w64-mingw32/8.2.1/../../../../x86_64-w64-mingw32/lib/../lib/libmingw32.a(lib64_libmingw32_a-tlsthrd.o)
 .xdata         0x0000000061541e40       0x48 C:/msys64/mingw64/bin/../lib/gcc/x86_64-w64-mingw32/8.2.1/../../../../x86_64-w64-mingw32/lib/../lib/libmingw32.a(lib64_libmingw32_a-pesect.o)
 .xdata         0x0000000061541e88        0x4 C:/msys64/mingw64/bin/../lib/gcc/x86_64-w64-mingw32/8.2.1/../../../../x86_64-w64-mingw32/lib/../lib/libmingw32.a(lib64_libmingw32_a-CRT_fp10.o)
 .xdata         0x0000000061541e8c        0x4 C:/msys64/mingw64/bin/../lib/gcc/x86_64-w64-mingw32/8.2.1/../../../../x86_64-w64-mingw32/lib/../lib/libmingwex.a(lib64_libmingwex_a-dllentry.o)
 .xdata         0x0000000061541e90        0x4 C:/msys64/mingw64/bin/../lib/gcc/x86_64-w64-mingw32/8.2.1/../../../../x86_64-w64-mingw32/lib/../lib/libmingwex.a(lib64_libmingwex_a-dllmain.o)
 .xdata         0x0000000061541e94        0x8 C:/msys64/mingw64/bin/../lib/gcc/x86_64-w64-mingw32/8.2.1/../../../../x86_64-w64-mingw32/lib/../lib/libmingwex.a(lib64_libmingwex_a-strtodnrp.o)
 .xdata         0x0000000061541e9c        0x4 C:/msys64/mingw64/bin/../lib/gcc/x86_64-w64-mingw32/8.2.1/../../../../x86_64-w64-mingw32/lib/../lib/libmingwex.a(lib64_libmingwex_a-fpclassify.o)
 .xdata         0x0000000061541ea0        0x4 C:/msys64/mingw64/bin/../lib/gcc/x86_64-w64-mingw32/8.2.1/../../../../x86_64-w64-mingw32/lib/../lib/libmingwex.a(lib64_libmingwex_a-isnan.o)
 .xdata         0x0000000061541ea4        0x8 C:/msys64/mingw64/bin/../lib/gcc/x86_64-w64-mingw32/8.2.1/../../../../x86_64-w64-mingw32/lib/../lib/libmingwex.a(lib64_libmingwex_a-modf.o)
 .xdata         0x0000000061541eac        0x8 C:/msys64/mingw64/bin/../lib/gcc/x86_64-w64-mingw32/8.2.1/../../../../x86_64-w64-mingw32/lib/../lib/libmingwex.a(lib64_libmingwex_a-powf.o)
 .xdata         0x0000000061541eb4       0x10 C:/msys64/mingw64/bin/../lib/gcc/x86_64-w64-mingw32/8.2.1/../../../../x86_64-w64-mingw32/lib/../lib/libmingwex.a(lib64_libmingwex_a-sqrt.o)
 .xdata         0x0000000061541ec4        0x4 C:/msys64/mingw64/bin/../lib/gcc/x86_64-w64-mingw32/8.2.1/../../../../x86_64-w64-mingw32/lib/../lib/libmingwex.a(lib64_libmingwex_a-difftime64.o)
 .xdata         0x0000000061541ec8       0x1c C:/msys64/mingw64/bin/../lib/gcc/x86_64-w64-mingw32/8.2.1/../../../../x86_64-w64-mingw32/lib/../lib/libmingwex.a(lib64_libmingwex_a-gettimeofday.o)
 .xdata         0x0000000061541ee4       0x18 C:/msys64/mingw64/bin/../lib/gcc/x86_64-w64-mingw32/8.2.1/../../../../x86_64-w64-mingw32/lib/../lib/libmingwex.a(lib64_libmingwex_a-strtoimax.o)
 .xdata         0x0000000061541efc       0x18 C:/msys64/mingw64/bin/../lib/gcc/x86_64-w64-mingw32/8.2.1/../../../../x86_64-w64-mingw32/lib/../lib/libmingwex.a(lib64_libmingwex_a-strtoumax.o)
 .xdata         0x0000000061541f14       0x24 C:/msys64/mingw64/bin/../lib/gcc/x86_64-w64-mingw32/8.2.1/../../../../x86_64-w64-mingw32/lib/../lib/libmingwex.a(lib64_libmingwex_a-wassert.o)
 .xdata         0x0000000061541f38        0x4 C:/msys64/mingw64/bin/../lib/gcc/x86_64-w64-mingw32/8.2.1/../../../../x86_64-w64-mingw32/lib/../lib/libmingwex.a(lib64_libmingwex_a-atoll.o)
 .xdata         0x0000000061541f3c       0x48 C:/msys64/mingw64/bin/../lib/gcc/x86_64-w64-mingw32/8.2.1/../../../../x86_64-w64-mingw32/lib/../lib/libmingwex.a(lib64_libmingwex_a-fseeko64.o)
 .xdata         0x0000000061541f84        0x8 C:/msys64/mingw64/bin/../lib/gcc/x86_64-w64-mingw32/8.2.1/../../../../x86_64-w64-mingw32/lib/../lib/libmingwex.a(lib64_libmingwex_a-ftello64.o)
 .xdata         0x0000000061541f8c        0x4 C:/msys64/mingw64/bin/../lib/gcc/x86_64-w64-mingw32/8.2.1/../../../../x86_64-w64-mingw32/lib/../lib/libmingwex.a(lib64_libmingwex_a-vsnprintf.o)
 .xdata         0x0000000061541f90        0x8 C:/msys64/mingw64/bin/../lib/gcc/x86_64-w64-mingw32/8.2.1/../../../../x86_64-w64-mingw32/lib/../lib/libmingwex.a(lib64_libmingwex_a-atan2.o)
 .xdata         0x0000000061541f98        0xc C:/msys64/mingw64/bin/../lib/gcc/x86_64-w64-mingw32/8.2.1/../../../../x86_64-w64-mingw32/lib/../lib/libmingwex.a(lib64_libmingwex_a-cos.o)
 .xdata         0x0000000061541fa4       0x10 C:/msys64/mingw64/bin/../lib/gcc/x86_64-w64-mingw32/8.2.1/../../../../x86_64-w64-mingw32/lib/../lib/libmingwex.a(lib64_libmingwex_a-exp.o)
 .xdata         0x0000000061541fb4        0x8 C:/msys64/mingw64/bin/../lib/gcc/x86_64-w64-mingw32/8.2.1/../../../../x86_64-w64-mingw32/lib/../lib/libmingwex.a(lib64_libmingwex_a-floor.o)
 .xdata         0x0000000061541fbc        0x8 C:/msys64/mingw64/bin/../lib/gcc/x86_64-w64-mingw32/8.2.1/../../../../x86_64-w64-mingw32/lib/../lib/libmingwex.a(lib64_libmingwex_a-fmod.o)
 .xdata         0x0000000061541fc4        0x8 C:/msys64/mingw64/bin/../lib/gcc/x86_64-w64-mingw32/8.2.1/../../../../x86_64-w64-mingw32/lib/../lib/libmingwex.a(lib64_libmingwex_a-ldexp.o)
 .xdata         0x0000000061541fcc        0xc C:/msys64/mingw64/bin/../lib/gcc/x86_64-w64-mingw32/8.2.1/../../../../x86_64-w64-mingw32/lib/../lib/libmingwex.a(lib64_libmingwex_a-log.o)
 .xdata         0x0000000061541fd8       0x28 C:/msys64/mingw64/bin/../lib/gcc/x86_64-w64-mingw32/8.2.1/../../../../x86_64-w64-mingw32/lib/../lib/libmingwex.a(lib64_libmingwex_a-pow.o)
 .xdata         0x0000000061542000        0xc C:/msys64/mingw64/bin/../lib/gcc/x86_64-w64-mingw32/8.2.1/../../../../x86_64-w64-mingw32/lib/../lib/libmingwex.a(lib64_libmingwex_a-sin.o)
 .xdata         0x000000006154200c       0x54 C:/msys64/mingw64/bin/../lib/gcc/x86_64-w64-mingw32/8.2.1/../../../../x86_64-w64-mingw32/lib/../lib/libmingwex.a(lib64_libmingwex_a-strtodg.o)
 .xdata         0x0000000061542060       0x14 C:/msys64/mingw64/bin/../lib/gcc/x86_64-w64-mingw32/8.2.1/../../../../x86_64-w64-mingw32/lib/../lib/libmingwex.a(lib64_libmingwex_a-sum.o)
 .xdata         0x0000000061542074        0xc C:/msys64/mingw64/bin/../lib/gcc/x86_64-w64-mingw32/8.2.1/../../../../x86_64-w64-mingw32/lib/../lib/libmingwex.a(lib64_libmingwex_a-powi.o)
 .xdata         0x0000000061542080       0x18 C:/msys64/mingw64/bin/../lib/gcc/x86_64-w64-mingw32/8.2.1/../../../../x86_64-w64-mingw32/lib/../lib/libmingwex.a(lib64_libmingwex_a-gethex.o)
 .xdata         0x0000000061542098       0x14 C:/msys64/mingw64/bin/../lib/gcc/x86_64-w64-mingw32/8.2.1/../../../../x86_64-w64-mingw32/lib/../lib/libmingwex.a(lib64_libmingwex_a-gmisc.o)
 .xdata         0x00000000615420ac        0x4 C:/msys64/mingw64/bin/../lib/gcc/x86_64-w64-mingw32/8.2.1/../../../../x86_64-w64-mingw32/lib/../lib/libmingwex.a(lib64_libmingwex_a-hd_init.o)
 .xdata         0x00000000615420b0       0x18 C:/msys64/mingw64/bin/../lib/gcc/x86_64-w64-mingw32/8.2.1/../../../../x86_64-w64-mingw32/lib/../lib/libmingwex.a(lib64_libmingwex_a-hexnan.o)
 .xdata         0x00000000615420c8       0xa4 C:/msys64/mingw64/bin/../lib/gcc/x86_64-w64-mingw32/8.2.1/../../../../x86_64-w64-mingw32/lib/../lib/libmingwex.a(lib64_libmingwex_a-misc.o)
 .xdata         0x000000006154216c       0x34 C:/msys64/mingw64/bin/../lib/gcc/x86_64-w64-mingw32/8.2.1/../../../../x86_64-w64-mingw32/lib/../lib/libmingwex.a(lib64_libmingwex_a-smisc.o)
 .xdata         0x00000000615421a0       0x24 C:/msys64/mingw64/bin/../lib/gcc/x86_64-w64-mingw32/8.2.1/../../../../x86_64-w64-mingw32/lib/../lib/libmingw32.a(lib64_libmingw32_a-merr.o)
 .xdata.startup
                0x00000000615421c4        0x4 C:/msys64/mingw64/bin/../lib/gcc/x86_64-w64-mingw32/8.2.1/crtend.o

.bss            0x0000000061543000     0x3280
                0x0000000061543000                __bss_start__ = .
 *(.bss)
 .bss           0x0000000061543000       0x10 C:/msys64/mingw64/bin/../lib/gcc/x86_64-w64-mingw32/8.2.1/../../../../x86_64-w64-mingw32/lib/../lib/dllcrt2.o
 .bss           0x0000000061543010        0x0 C:/msys64/mingw64/bin/../lib/gcc/x86_64-w64-mingw32/8.2.1/crtbegin.o
 *fill*         0x0000000061543010       0x10 
 .bss           0x0000000061543020      0x680 C:\msys64\tmp\ccfy01SD.o
 .bss           0x00000000615436a0        0x0 C:\msys64\tmp\ccWMuz0v.o
 .bss           0x00000000615436a0        0x0 C:\msys64\tmp\ccFOXHzz.o
 .bss           0x00000000615436a0        0x0 C:\msys64\tmp\ccLjWXKz.o
 .bss           0x00000000615436a0        0x0 C:\msys64\tmp\ccz1diiN.o
 .bss           0x00000000615436a0        0x0 C:\msys64\tmp\ccVizNw9.o
 .bss           0x00000000615436a0       0x10 C:\msys64\tmp\ccjhsTYI.o
 .bss           0x00000000615436b0        0x0 C:\msys64\tmp\ccLt5nLD.o
 .bss           0x00000000615436b0        0x0 C:\msys64\tmp\ccuoZVRF.o
 .bss           0x00000000615436b0        0x0 C:\msys64\tmp\cctFmZYO.o
 .bss           0x00000000615436b0        0x0 C:\msys64\tmp\ccuduyC5.o
 .bss           0x00000000615436b0        0x0 C:\msys64\tmp\ccJuBzPw.o
 .bss           0x00000000615436b0       0xb0 C:\msys64\tmp\ccTqPSxT.o
 .bss           0x0000000061543760      0x680 C:\msys64\tmp\ccXRde14.o
                0x0000000061543760                sqlite3_temp_directory
                0x0000000061543768                sqlite3_data_directory
 .bss           0x0000000061543de0        0x0 C:\msys64\tmp\ccpSIAqr.o
 .bss           0x0000000061543de0        0x0 C:\msys64\tmp\ccZkAuiV.o
 .bss           0x0000000061543de0        0x0 C:\msys64\tmp\ccJabTGs.o
 .bss           0x0000000061543de0        0x0 C:\msys64\tmp\ccQHA7kH.o
 .bss           0x0000000061543de0        0x0 C:\msys64\tmp\ccDKFcP3.o
 .bss           0x0000000061543de0        0x0 C:\msys64\tmp\ccRApjM5.o
 .bss           0x0000000061543de0      0x300 C:\msys64\tmp\cc5MSZGd.o
 .bss           0x00000000615440e0        0x0 C:\msys64\tmp\ccxqqLTc.o
 .bss           0x00000000615440e0        0x0 C:\msys64\tmp\ccenaSVZ.o
 .bss           0x00000000615440e0        0x0 C:\msys64\tmp\ccSZ239v.o
 .bss           0x00000000615440e0        0x0 C:\msys64\tmp\ccvj8G4H.o
 .bss           0x00000000615440e0        0x0 C:\msys64\tmp\ccldb7oK.o
 .bss           0x00000000615440e0        0x0 C:\msys64\tmp\cc1vz69F.o
 .bss           0x00000000615440e0       0x10 C:\msys64\tmp\ccXkOUMF.o
 .bss           0x00000000615440f0        0x0 C:\msys64\tmp\cc7I1SCN.o
 .bss           0x00000000615440f0        0x0 C:\msys64\tmp\ccaJ2lTQ.o
 .bss           0x00000000615440f0        0x0 C:\msys64\tmp\ccTYAR93.o
 .bss           0x00000000615440f0        0x0 C:\msys64\tmp\cc2LD5lo.o
 .bss           0x00000000615440f0        0x0 C:\msys64\tmp\cctiLsmQ.o
 .bss           0x00000000615440f0        0x0 C:\msys64\tmp\cckEQkSt.o
 .bss           0x00000000615440f0        0x0 C:\msys64\tmp\ccxxh8wg.o
 .bss           0x00000000615440f0        0x0 C:\msys64\tmp\ccoLUxS8.o
 .bss           0x00000000615440f0        0x0 C:\msys64\tmp\cc5FaVq8.o
 .bss           0x00000000615440f0        0x0 C:\msys64\tmp\ccg4nTgg.o
 .bss           0x00000000615440f0        0x0 C:\msys64\tmp\ccmZReTk.o
 .bss           0x00000000615440f0        0x0 C:\msys64\tmp\ccA4uJAu.o
 .bss           0x00000000615440f0       0x10 C:\msys64\tmp\ccS3faXP.o
 .bss           0x0000000061544100       0x10 C:\msys64\tmp\ccoUgfsm.o
 .bss           0x0000000061544110        0x0 C:\msys64\tmp\ccUcMoTZ.o
 .bss           0x0000000061544110        0x0 C:\msys64\tmp\ccidGW4M.o
 .bss           0x0000000061544110        0x0 C:\msys64\tmp\ccYk3DtG.o
 .bss           0x0000000061544110        0x0 C:\msys64\tmp\ccQIpGaD.o
 .bss           0x0000000061544110        0x0 C:/msys64/mingw64/bin/../lib/gcc/x86_64-w64-mingw32/8.2.1/../../../../x86_64-w64-mingw32/lib/../lib/libws2_32.a(dmgss00195.o)
 .bss           0x0000000061544110        0x0 C:/msys64/mingw64/bin/../lib/gcc/x86_64-w64-mingw32/8.2.1/../../../../x86_64-w64-mingw32/lib/../lib/libws2_32.a(dmgss00194.o)
 .bss           0x0000000061544110        0x0 C:/msys64/mingw64/bin/../lib/gcc/x86_64-w64-mingw32/8.2.1/../../../../x86_64-w64-mingw32/lib/../lib/libws2_32.a(dmgss00193.o)
 .bss           0x0000000061544110        0x0 C:/msys64/mingw64/bin/../lib/gcc/x86_64-w64-mingw32/8.2.1/../../../../x86_64-w64-mingw32/lib/../lib/libws2_32.a(dmgss00192.o)
 .bss           0x0000000061544110        0x0 C:/msys64/mingw64/bin/../lib/gcc/x86_64-w64-mingw32/8.2.1/../../../../x86_64-w64-mingw32/lib/../lib/libws2_32.a(dmgss00191.o)
 .bss           0x0000000061544110        0x0 C:/msys64/mingw64/bin/../lib/gcc/x86_64-w64-mingw32/8.2.1/../../../../x86_64-w64-mingw32/lib/../lib/libws2_32.a(dmgss00190.o)
 .bss           0x0000000061544110        0x0 C:/msys64/mingw64/bin/../lib/gcc/x86_64-w64-mingw32/8.2.1/../../../../x86_64-w64-mingw32/lib/../lib/libws2_32.a(dmgss00189.o)
 .bss           0x0000000061544110        0x0 C:/msys64/mingw64/bin/../lib/gcc/x86_64-w64-mingw32/8.2.1/../../../../x86_64-w64-mingw32/lib/../lib/libws2_32.a(dmgss00188.o)
 .bss           0x0000000061544110        0x0 C:/msys64/mingw64/bin/../lib/gcc/x86_64-w64-mingw32/8.2.1/../../../../x86_64-w64-mingw32/lib/../lib/libws2_32.a(dmgss00185.o)
 .bss           0x0000000061544110        0x0 C:/msys64/mingw64/bin/../lib/gcc/x86_64-w64-mingw32/8.2.1/../../../../x86_64-w64-mingw32/lib/../lib/libws2_32.a(dmgss00184.o)
 .bss           0x0000000061544110        0x0 C:/msys64/mingw64/bin/../lib/gcc/x86_64-w64-mingw32/8.2.1/../../../../x86_64-w64-mingw32/lib/../lib/libws2_32.a(dmgss00181.o)
 .bss           0x0000000061544110        0x0 C:/msys64/mingw64/bin/../lib/gcc/x86_64-w64-mingw32/8.2.1/../../../../x86_64-w64-mingw32/lib/../lib/libws2_32.a(dmgss00178.o)
 .bss           0x0000000061544110        0x0 C:/msys64/mingw64/bin/../lib/gcc/x86_64-w64-mingw32/8.2.1/../../../../x86_64-w64-mingw32/lib/../lib/libws2_32.a(dmgss00177.o)
 .bss           0x0000000061544110        0x0 C:/msys64/mingw64/bin/../lib/gcc/x86_64-w64-mingw32/8.2.1/../../../../x86_64-w64-mingw32/lib/../lib/libws2_32.a(dmgss00176.o)
 .bss           0x0000000061544110        0x0 C:/msys64/mingw64/bin/../lib/gcc/x86_64-w64-mingw32/8.2.1/../../../../x86_64-w64-mingw32/lib/../lib/libws2_32.a(dmgss00171.o)
 .bss           0x0000000061544110        0x0 C:/msys64/mingw64/bin/../lib/gcc/x86_64-w64-mingw32/8.2.1/../../../../x86_64-w64-mingw32/lib/../lib/libws2_32.a(dmgss00170.o)
 .bss           0x0000000061544110        0x0 C:/msys64/mingw64/bin/../lib/gcc/x86_64-w64-mingw32/8.2.1/../../../../x86_64-w64-mingw32/lib/../lib/libws2_32.a(dmgss00169.o)
 .bss           0x0000000061544110        0x0 C:/msys64/mingw64/bin/../lib/gcc/x86_64-w64-mingw32/8.2.1/../../../../x86_64-w64-mingw32/lib/../lib/libws2_32.a(dmgss00168.o)
 .bss           0x0000000061544110        0x0 C:/msys64/mingw64/bin/../lib/gcc/x86_64-w64-mingw32/8.2.1/../../../../x86_64-w64-mingw32/lib/../lib/libws2_32.a(dmgss00167.o)
 .bss           0x0000000061544110        0x0 C:/msys64/mingw64/bin/../lib/gcc/x86_64-w64-mingw32/8.2.1/../../../../x86_64-w64-mingw32/lib/../lib/libws2_32.a(dmgss00166.o)
 .bss           0x0000000061544110        0x0 C:/msys64/mingw64/bin/../lib/gcc/x86_64-w64-mingw32/8.2.1/../../../../x86_64-w64-mingw32/lib/../lib/libws2_32.a(dmgss00165.o)
 .bss           0x0000000061544110        0x0 C:/msys64/mingw64/bin/../lib/gcc/x86_64-w64-mingw32/8.2.1/../../../../x86_64-w64-mingw32/lib/../lib/libws2_32.a(dmgss00164.o)
 .bss           0x0000000061544110        0x0 C:/msys64/mingw64/bin/../lib/gcc/x86_64-w64-mingw32/8.2.1/../../../../x86_64-w64-mingw32/lib/../lib/libws2_32.a(dmgss00163.o)
 .bss           0x0000000061544110        0x0 C:/msys64/mingw64/bin/../lib/gcc/x86_64-w64-mingw32/8.2.1/../../../../x86_64-w64-mingw32/lib/../lib/libws2_32.a(dmgss00162.o)
 .bss           0x0000000061544110        0x0 C:/msys64/mingw64/bin/../lib/gcc/x86_64-w64-mingw32/8.2.1/../../../../x86_64-w64-mingw32/lib/../lib/libws2_32.a(dmgss00161.o)
 .bss           0x0000000061544110        0x0 C:/msys64/mingw64/bin/../lib/gcc/x86_64-w64-mingw32/8.2.1/../../../../x86_64-w64-mingw32/lib/../lib/libws2_32.a(dmgss00160.o)
 .bss           0x0000000061544110        0x0 C:/msys64/mingw64/bin/../lib/gcc/x86_64-w64-mingw32/8.2.1/../../../../x86_64-w64-mingw32/lib/../lib/libws2_32.a(dmgss00088.o)
 .bss           0x0000000061544110        0x0 C:/msys64/mingw64/bin/../lib/gcc/x86_64-w64-mingw32/8.2.1/../../../../x86_64-w64-mingw32/lib/../lib/libws2_32.a(dmgss00047.o)
 .bss           0x0000000061544110        0x0 C:/msys64/mingw64/bin/../lib/gcc/x86_64-w64-mingw32/8.2.1/../../../../x86_64-w64-mingw32/lib/../lib/libws2_32.a(dmgss00030.o)
 *fill*         0x0000000061544110       0x10 
 .bss           0x0000000061544120      0x420 C:/msys64/mingw64/bin/../lib/gcc/x86_64-w64-mingw32/8.2.1/../../../../x86_64-w64-mingw32/lib/../lib/libws2_32.a(lib64_libws2_32_a-gai_strerrorA.o)
 .bss           0x0000000061544540      0x820 C:/msys64/mingw64/bin/../lib/gcc/x86_64-w64-mingw32/8.2.1/../../../../x86_64-w64-mingw32/lib/../lib/libws2_32.a(lib64_libws2_32_a-gai_strerrorW.o)
 .bss           0x0000000061544d60        0x0 C:/msys64/mingw64/bin/../lib/gcc/x86_64-w64-mingw32/8.2.1/../../../../x86_64-w64-mingw32/lib/../lib/libws2_32.a(dmgsh.o)
 .bss           0x0000000061544d60        0x0 C:/msys64/mingw64/bin/../lib/gcc/x86_64-w64-mingw32/8.2.1/../../../../x86_64-w64-mingw32/lib/../lib/libws2_32.a(dmgst.o)
 .bss           0x0000000061544d60        0x0 window/x86_64/libluajit.a(lj_gc.o)
 .bss           0x0000000061544d60        0x0 window/x86_64/libluajit.a(lj_err.o)
 .bss           0x0000000061544d60        0x0 window/x86_64/libluajit.a(lj_char.o)
 .bss           0x0000000061544d60        0x0 window/x86_64/libluajit.a(lj_bc.o)
 .bss           0x0000000061544d60        0x0 window/x86_64/libluajit.a(lj_obj.o)
 .bss           0x0000000061544d60        0x0 window/x86_64/libluajit.a(lj_buf.o)
 .bss           0x0000000061544d60        0x0 window/x86_64/libluajit.a(lj_str.o)
 .bss           0x0000000061544d60        0x0 window/x86_64/libluajit.a(lj_tab.o)
 .bss           0x0000000061544d60        0x0 window/x86_64/libluajit.a(lj_func.o)
 .bss           0x0000000061544d60        0x0 window/x86_64/libluajit.a(lj_udata.o)
 .bss           0x0000000061544d60        0x0 window/x86_64/libluajit.a(lj_meta.o)
 .bss           0x0000000061544d60        0x0 window/x86_64/libluajit.a(lj_debug.o)
 .bss           0x0000000061544d60        0x0 window/x86_64/libluajit.a(lj_state.o)
 .bss           0x0000000061544d60        0x0 window/x86_64/libluajit.a(lj_dispatch.o)
 .bss           0x0000000061544d60        0x0 window/x86_64/libluajit.a(lj_vmevent.o)
 .bss           0x0000000061544d60        0x0 window/x86_64/libluajit.a(lj_vmmath.o)
 .bss           0x0000000061544d60        0x0 window/x86_64/libluajit.a(lj_strscan.o)
 .bss           0x0000000061544d60        0x0 window/x86_64/libluajit.a(lj_strfmt.o)
 .bss           0x0000000061544d60        0x0 window/x86_64/libluajit.a(lj_strfmt_num.o)
 .bss           0x0000000061544d60        0x0 window/x86_64/libluajit.a(lj_api.o)
 .bss           0x0000000061544d60       0xa0 window/x86_64/libluajit.a(lj_profile.o)
 .bss           0x0000000061544e00        0x0 window/x86_64/libluajit.a(lj_lex.o)
 .bss           0x0000000061544e00        0x0 window/x86_64/libluajit.a(lj_parse.o)
 .bss           0x0000000061544e00        0x0 window/x86_64/libluajit.a(lj_bcread.o)
 .bss           0x0000000061544e00        0x0 window/x86_64/libluajit.a(lj_bcwrite.o)
 .bss           0x0000000061544e00        0x0 window/x86_64/libluajit.a(lj_load.o)
 .bss           0x0000000061544e00        0x0 window/x86_64/libluajit.a(lj_ir.o)
 .bss           0x0000000061544e00        0x0 window/x86_64/libluajit.a(lj_opt_mem.o)
 .bss           0x0000000061544e00        0x0 window/x86_64/libluajit.a(lj_opt_fold.o)
 .bss           0x0000000061544e00        0x0 window/x86_64/libluajit.a(lj_opt_narrow.o)
 .bss           0x0000000061544e00        0x0 window/x86_64/libluajit.a(lj_opt_dce.o)
 .bss           0x0000000061544e00        0x0 window/x86_64/libluajit.a(lj_opt_loop.o)
 .bss           0x0000000061544e00        0x0 window/x86_64/libluajit.a(lj_opt_split.o)
 .bss           0x0000000061544e00        0x0 window/x86_64/libluajit.a(lj_opt_sink.o)
 .bss           0x0000000061544e00        0x0 window/x86_64/libluajit.a(lj_mcode.o)
 .bss           0x0000000061544e00        0x0 window/x86_64/libluajit.a(lj_snap.o)
 .bss           0x0000000061544e00        0x0 window/x86_64/libluajit.a(lj_record.o)
 .bss           0x0000000061544e00        0x0 window/x86_64/libluajit.a(lj_crecord.o)
 .bss           0x0000000061544e00        0x0 window/x86_64/libluajit.a(lj_ffrecord.o)
 .bss           0x0000000061544e00        0x0 window/x86_64/libluajit.a(lj_asm.o)
 .bss           0x0000000061544e00        0x0 window/x86_64/libluajit.a(lj_trace.o)
 .bss           0x0000000061544e00        0x0 window/x86_64/libluajit.a(lj_gdbjit.o)
 .bss           0x0000000061544e00        0x0 window/x86_64/libluajit.a(lj_ctype.o)
 .bss           0x0000000061544e00        0x0 window/x86_64/libluajit.a(lj_cdata.o)
 .bss           0x0000000061544e00        0x0 window/x86_64/libluajit.a(lj_cconv.o)
 .bss           0x0000000061544e00        0x0 window/x86_64/libluajit.a(lj_ccall.o)
 .bss           0x0000000061544e00        0x0 window/x86_64/libluajit.a(lj_ccallback.o)
 .bss           0x0000000061544e00        0x0 window/x86_64/libluajit.a(lj_carith.o)
 .bss           0x0000000061544e00       0x40 window/x86_64/libluajit.a(lj_clib.o)
 .bss           0x0000000061544e40        0x0 window/x86_64/libluajit.a(lj_cparse.o)
 .bss           0x0000000061544e40        0x0 window/x86_64/libluajit.a(lj_lib.o)
 .bss           0x0000000061544e40        0x0 window/x86_64/libluajit.a(lj_alloc.o)
 .bss           0x0000000061544e40       0x10 window/x86_64/libluajit.a(lib_aux.o)
 .bss           0x0000000061544e50       0x10 window/x86_64/libluajit.a(lib_log.o)
 .bss           0x0000000061544e60        0x0 window/x86_64/libluajit.a(lib_base.o)
 .bss           0x0000000061544e60        0x0 window/x86_64/libluajit.a(lib_math.o)
 .bss           0x0000000061544e60        0x0 window/x86_64/libluajit.a(lib_bit.o)
 .bss           0x0000000061544e60        0x0 window/x86_64/libluajit.a(lib_string.o)
 .bss           0x0000000061544e60        0x0 window/x86_64/libluajit.a(lib_table.o)
 .bss           0x0000000061544e60        0x0 window/x86_64/libluajit.a(lib_io.o)
 .bss           0x0000000061544e60        0x0 window/x86_64/libluajit.a(lib_os.o)
 .bss           0x0000000061544e60        0x0 window/x86_64/libluajit.a(lib_package.o)
 .bss           0x0000000061544e60        0x0 window/x86_64/libluajit.a(lib_debug.o)
 .bss           0x0000000061544e60        0x0 window/x86_64/libluajit.a(lib_jit.o)
 .bss           0x0000000061544e60        0x0 window/x86_64/libluajit.a(lib_ffi.o)
 .bss           0x0000000061544e60        0x0 window/x86_64/libluajit.a(lib_init.o)
 .bss           0x0000000061544e60        0x0 C:/msys64/mingw64/bin/../lib/gcc/x86_64-w64-mingw32/8.2.1/../../../../x86_64-w64-mingw32/lib/../lib/libmingw32.a(lib64_libmingw32_a-atonexit.o)
 .bss           0x0000000061544e60       0x10 C:/msys64/mingw64/bin/../lib/gcc/x86_64-w64-mingw32/8.2.1/../../../../x86_64-w64-mingw32/lib/../lib/libmingw32.a(lib64_libmingw32_a-gccmain.o)
 .bss           0x0000000061544e70        0x0 C:/msys64/mingw64/bin/../lib/gcc/x86_64-w64-mingw32/8.2.1/../../../../x86_64-w64-mingw32/lib/../lib/libmingw32.a(lib64_libmingw32_a-natstart.o)
 *fill*         0x0000000061544e70       0x10 
 .bss           0x0000000061544e80      0x580 C:/msys64/mingw64/bin/../lib/gcc/x86_64-w64-mingw32/8.2.1/../../../../x86_64-w64-mingw32/lib/../lib/libmingw32.a(lib64_libmingw32_a-gs_support.o)
 .bss           0x0000000061545400       0x10 C:/msys64/mingw64/bin/../lib/gcc/x86_64-w64-mingw32/8.2.1/../../../../x86_64-w64-mingw32/lib/../lib/libmingw32.a(lib64_libmingw32_a-tlssup.o)
                0x0000000061545400                mingw_initltssuo_force
                0x0000000061545404                mingw_initltsdyn_force
                0x0000000061545408                mingw_initltsdrot_force
                0x000000006154540c                _tls_index
 .bss           0x0000000061545410        0x0 C:/msys64/mingw64/bin/../lib/gcc/x86_64-w64-mingw32/8.2.1/../../../../x86_64-w64-mingw32/lib/../lib/libmingw32.a(lib64_libmingw32_a-cinitexe.o)
 .bss           0x0000000061545410       0x10 C:/msys64/mingw64/bin/../lib/gcc/x86_64-w64-mingw32/8.2.1/../../../../x86_64-w64-mingw32/lib/../lib/libmingw32.a(lib64_libmingw32_a-mingw_helpers.o)
                0x0000000061545410                mingw_app_type
 .bss           0x0000000061545420       0x10 C:/msys64/mingw64/bin/../lib/gcc/x86_64-w64-mingw32/8.2.1/../../../../x86_64-w64-mingw32/lib/../lib/libmingw32.a(lib64_libmingw32_a-pseudo-reloc.o)
 *fill*         0x0000000061545430       0x10 
 .bss           0x0000000061545440      0x2a0 C:/msys64/mingw64/bin/../lib/gcc/x86_64-w64-mingw32/8.2.1/../../../../x86_64-w64-mingw32/lib/../lib/libmingw32.a(lib64_libmingw32_a-crt_handler.o)
                0x0000000061545440                __mingw_oldexcpt_handler
 .bss           0x00000000615456e0       0x60 C:/msys64/mingw64/bin/../lib/gcc/x86_64-w64-mingw32/8.2.1/../../../../x86_64-w64-mingw32/lib/../lib/libmingw32.a(lib64_libmingw32_a-tlsthrd.o)
 .bss           0x0000000061545740        0x0 C:/msys64/mingw64/bin/../lib/gcc/x86_64-w64-mingw32/8.2.1/../../../../x86_64-w64-mingw32/lib/../lib/libmingw32.a(lib64_libmingw32_a-tlsmcrt.o)
 .bss           0x0000000061545740       0x10 C:/msys64/mingw64/bin/../lib/gcc/x86_64-w64-mingw32/8.2.1/../../../../x86_64-w64-mingw32/lib/../lib/libmingw32.a(lib64_libmingw32_a-pseudo-reloc-list.o)
 .bss           0x0000000061545750        0x0 C:/msys64/mingw64/bin/../lib/gcc/x86_64-w64-mingw32/8.2.1/../../../../x86_64-w64-mingw32/lib/../lib/libmingw32.a(lib64_libmingw32_a-pesect.o)
 .bss           0x0000000061545750        0x0 C:/msys64/mingw64/bin/../lib/gcc/x86_64-w64-mingw32/8.2.1/../../../../x86_64-w64-mingw32/lib/../lib/libmingw32.a(lib64_libmingw32_a-CRT_fp10.o)
 .bss           0x0000000061545750        0x0 C:/msys64/mingw64/bin/../lib/gcc/x86_64-w64-mingw32/8.2.1/libgcc.a(_chkstk_ms.o)
 .bss           0x0000000061545750        0x0 C:/msys64/mingw64/bin/../lib/gcc/x86_64-w64-mingw32/8.2.1/libgcc.a(_ctors.o)
 .bss           0x0000000061545750        0x0 C:/msys64/mingw64/bin/../lib/gcc/x86_64-w64-mingw32/8.2.1/../../../../x86_64-w64-mingw32/lib/../lib/libmingwex.a(lib64_libmingwex_a-dllentry.o)
 .bss           0x0000000061545750        0x0 C:/msys64/mingw64/bin/../lib/gcc/x86_64-w64-mingw32/8.2.1/../../../../x86_64-w64-mingw32/lib/../lib/libmingwex.a(lib64_libmingwex_a-dllmain.o)
 .bss           0x0000000061545750        0x0 C:/msys64/mingw64/bin/../lib/gcc/x86_64-w64-mingw32/8.2.1/../../../../x86_64-w64-mingw32/lib/../lib/libmingwex.a(lib64_libmingwex_a-strtodnrp.o)
 .bss           0x0000000061545750        0x0 C:/msys64/mingw64/bin/../lib/gcc/x86_64-w64-mingw32/8.2.1/../../../../x86_64-w64-mingw32/lib/../lib/libmingwex.a(lib64_libmingwex_a-fpclassify.o)
 .bss           0x0000000061545750        0x0 C:/msys64/mingw64/bin/../lib/gcc/x86_64-w64-mingw32/8.2.1/../../../../x86_64-w64-mingw32/lib/../lib/libmingwex.a(lib64_libmingwex_a-isnan.o)
 .bss           0x0000000061545750        0x0 C:/msys64/mingw64/bin/../lib/gcc/x86_64-w64-mingw32/8.2.1/../../../../x86_64-w64-mingw32/lib/../lib/libmingwex.a(lib64_libmingwex_a-modf.o)
 .bss           0x0000000061545750        0x0 C:/msys64/mingw64/bin/../lib/gcc/x86_64-w64-mingw32/8.2.1/../../../../x86_64-w64-mingw32/lib/../lib/libmingwex.a(lib64_libmingwex_a-powf.o)
 .bss           0x0000000061545750        0x0 C:/msys64/mingw64/bin/../lib/gcc/x86_64-w64-mingw32/8.2.1/../../../../x86_64-w64-mingw32/lib/../lib/libmingwex.a(lib64_libmingwex_a-sqrt.o)
 .bss           0x0000000061545750        0x0 C:/msys64/mingw64/bin/../lib/gcc/x86_64-w64-mingw32/8.2.1/../../../../x86_64-w64-mingw32/lib/../lib/libmingwex.a(lib64_libmingwex_a-difftime64.o)
 .bss           0x0000000061545750        0x0 C:/msys64/mingw64/bin/../lib/gcc/x86_64-w64-mingw32/8.2.1/../../../../x86_64-w64-mingw32/lib/../lib/libmingwex.a(lib64_libmingwex_a-gettimeofday.o)
 .bss           0x0000000061545750        0x0 C:/msys64/mingw64/bin/../lib/gcc/x86_64-w64-mingw32/8.2.1/../../../../x86_64-w64-mingw32/lib/../lib/libmingwex.a(lib64_libmingwex_a-strtoimax.o)
 .bss           0x0000000061545750        0x0 C:/msys64/mingw64/bin/../lib/gcc/x86_64-w64-mingw32/8.2.1/../../../../x86_64-w64-mingw32/lib/../lib/libmingwex.a(lib64_libmingwex_a-strtoumax.o)
 .bss           0x0000000061545750        0x0 C:/msys64/mingw64/bin/../lib/gcc/x86_64-w64-mingw32/8.2.1/../../../../x86_64-w64-mingw32/lib/../lib/libmingwex.a(lib64_libmingwex_a-wassert.o)
 .bss           0x0000000061545750        0x0 C:/msys64/mingw64/bin/../lib/gcc/x86_64-w64-mingw32/8.2.1/../../../../x86_64-w64-mingw32/lib/../lib/libmingwex.a(lib64_libmingwex_a-atoll.o)
 .bss           0x0000000061545750        0x0 C:/msys64/mingw64/bin/../lib/gcc/x86_64-w64-mingw32/8.2.1/../../../../x86_64-w64-mingw32/lib/../lib/libmingwex.a(lib64_libmingwex_a-fseeko64.o)
 .bss           0x0000000061545750        0x0 C:/msys64/mingw64/bin/../lib/gcc/x86_64-w64-mingw32/8.2.1/../../../../x86_64-w64-mingw32/lib/../lib/libmingwex.a(lib64_libmingwex_a-ftello64.o)
 .bss           0x0000000061545750        0x0 C:/msys64/mingw64/bin/../lib/gcc/x86_64-w64-mingw32/8.2.1/../../../../x86_64-w64-mingw32/lib/../lib/libmingwex.a(lib64_libmingwex_a-vsnprintf.o)
 .bss           0x0000000061545750        0x0 C:/msys64/mingw64/bin/../lib/gcc/x86_64-w64-mingw32/8.2.1/../../../../x86_64-w64-mingw32/lib/../lib/libmingwex.a(lib64_libmingwex_a-atan2.o)
 .bss           0x0000000061545750        0x0 C:/msys64/mingw64/bin/../lib/gcc/x86_64-w64-mingw32/8.2.1/../../../../x86_64-w64-mingw32/lib/../lib/libmingwex.a(lib64_libmingwex_a-cos.o)
 .bss           0x0000000061545750        0x0 C:/msys64/mingw64/bin/../lib/gcc/x86_64-w64-mingw32/8.2.1/../../../../x86_64-w64-mingw32/lib/../lib/libmingwex.a(lib64_libmingwex_a-cosl_internal.o)
 .bss           0x0000000061545750        0x0 C:/msys64/mingw64/bin/../lib/gcc/x86_64-w64-mingw32/8.2.1/../../../../x86_64-w64-mingw32/lib/../lib/libmingwex.a(lib64_libmingwex_a-exp.o)
 .bss           0x0000000061545750        0x0 C:/msys64/mingw64/bin/../lib/gcc/x86_64-w64-mingw32/8.2.1/../../../../x86_64-w64-mingw32/lib/../lib/libmingwex.a(lib64_libmingwex_a-floor.o)
 .bss           0x0000000061545750        0x0 C:/msys64/mingw64/bin/../lib/gcc/x86_64-w64-mingw32/8.2.1/../../../../x86_64-w64-mingw32/lib/../lib/libmingwex.a(lib64_libmingwex_a-fmod.o)
 .bss           0x0000000061545750        0x0 C:/msys64/mingw64/bin/../lib/gcc/x86_64-w64-mingw32/8.2.1/../../../../x86_64-w64-mingw32/lib/../lib/libmingwex.a(lib64_libmingwex_a-ldexp.o)
 .bss           0x0000000061545750        0x0 C:/msys64/mingw64/bin/../lib/gcc/x86_64-w64-mingw32/8.2.1/../../../../x86_64-w64-mingw32/lib/../lib/libmingwex.a(lib64_libmingwex_a-log.o)
 .bss           0x0000000061545750        0x0 C:/msys64/mingw64/bin/../lib/gcc/x86_64-w64-mingw32/8.2.1/../../../../x86_64-w64-mingw32/lib/../lib/libmingwex.a(lib64_libmingwex_a-pow.o)
 .bss           0x0000000061545750        0x0 C:/msys64/mingw64/bin/../lib/gcc/x86_64-w64-mingw32/8.2.1/../../../../x86_64-w64-mingw32/lib/../lib/libmingwex.a(lib64_libmingwex_a-sin.o)
 .bss           0x0000000061545750        0x0 C:/msys64/mingw64/bin/../lib/gcc/x86_64-w64-mingw32/8.2.1/../../../../x86_64-w64-mingw32/lib/../lib/libmingwex.a(lib64_libmingwex_a-sinl_internal.o)
 .bss           0x0000000061545750        0x0 C:/msys64/mingw64/bin/../lib/gcc/x86_64-w64-mingw32/8.2.1/../../../../x86_64-w64-mingw32/lib/../lib/libmingwex.a(lib64_libmingwex_a-strtodg.o)
 .bss           0x0000000061545750        0x0 C:/msys64/mingw64/bin/../lib/gcc/x86_64-w64-mingw32/8.2.1/../../../../x86_64-w64-mingw32/lib/../lib/libmingwex.a(lib64_libmingwex_a-sum.o)
 .bss           0x0000000061545750        0x0 C:/msys64/mingw64/bin/../lib/gcc/x86_64-w64-mingw32/8.2.1/../../../../x86_64-w64-mingw32/lib/../lib/libmingwex.a(lib64_libmingwex_a-powi.o)
 .bss           0x0000000061545750        0x0 C:/msys64/mingw64/bin/../lib/gcc/x86_64-w64-mingw32/8.2.1/../../../../x86_64-w64-mingw32/lib/../lib/libmingwex.a(lib64_libmingwex_a-exp2l.o)
 .bss           0x0000000061545750        0x0 C:/msys64/mingw64/bin/../lib/gcc/x86_64-w64-mingw32/8.2.1/../../../../x86_64-w64-mingw32/lib/../lib/libmingwex.a(lib64_libmingwex_a-internal_logl.o)
 .bss           0x0000000061545750        0x0 C:/msys64/mingw64/bin/../lib/gcc/x86_64-w64-mingw32/8.2.1/../../../../x86_64-w64-mingw32/lib/../lib/libmingwex.a(lib64_libmingwex_a-log2l.o)
 .bss           0x0000000061545750        0x0 C:/msys64/mingw64/bin/../lib/gcc/x86_64-w64-mingw32/8.2.1/../../../../x86_64-w64-mingw32/lib/../lib/libmingwex.a(lib64_libmingwex_a-gethex.o)
 .bss           0x0000000061545750        0x0 C:/msys64/mingw64/bin/../lib/gcc/x86_64-w64-mingw32/8.2.1/../../../../x86_64-w64-mingw32/lib/../lib/libmingwex.a(lib64_libmingwex_a-gmisc.o)
 .bss           0x0000000061545750        0x0 C:/msys64/mingw64/bin/../lib/gcc/x86_64-w64-mingw32/8.2.1/../../../../x86_64-w64-mingw32/lib/../lib/libmingwex.a(lib64_libmingwex_a-hd_init.o)
 .bss           0x0000000061545750        0x0 C:/msys64/mingw64/bin/../lib/gcc/x86_64-w64-mingw32/8.2.1/../../../../x86_64-w64-mingw32/lib/../lib/libmingwex.a(lib64_libmingwex_a-hexnan.o)
 *fill*         0x0000000061545750       0x10 
 .bss           0x0000000061545760      0x9e0 C:/msys64/mingw64/bin/../lib/gcc/x86_64-w64-mingw32/8.2.1/../../../../x86_64-w64-mingw32/lib/../lib/libmingwex.a(lib64_libmingwex_a-misc.o)
 .bss           0x0000000061546140        0x0 C:/msys64/mingw64/bin/../lib/gcc/x86_64-w64-mingw32/8.2.1/../../../../x86_64-w64-mingw32/lib/../lib/libmingwex.a(lib64_libmingwex_a-smisc.o)
 .bss           0x0000000061546140        0x0 C:/msys64/mingw64/bin/../lib/gcc/x86_64-w64-mingw32/8.2.1/../../../../x86_64-w64-mingw32/lib/../lib/libmsvcrt.a(dieybs01325.o)
 .bss           0x0000000061546140        0x0 C:/msys64/mingw64/bin/../lib/gcc/x86_64-w64-mingw32/8.2.1/../../../../x86_64-w64-mingw32/lib/../lib/libmsvcrt.a(dieybs01305.o)
 .bss           0x0000000061546140        0x0 C:/msys64/mingw64/bin/../lib/gcc/x86_64-w64-mingw32/8.2.1/../../../../x86_64-w64-mingw32/lib/../lib/libmsvcrt.a(dieybs01288.o)
 .bss           0x0000000061546140        0x0 C:/msys64/mingw64/bin/../lib/gcc/x86_64-w64-mingw32/8.2.1/../../../../x86_64-w64-mingw32/lib/../lib/libmsvcrt.a(dieybs01286.o)
 .bss           0x0000000061546140        0x0 C:/msys64/mingw64/bin/../lib/gcc/x86_64-w64-mingw32/8.2.1/../../../../x86_64-w64-mingw32/lib/../lib/libmsvcrt.a(dieybs01282.o)
 .bss           0x0000000061546140        0x0 C:/msys64/mingw64/bin/../lib/gcc/x86_64-w64-mingw32/8.2.1/../../../../x86_64-w64-mingw32/lib/../lib/libmsvcrt.a(dieybs01280.o)
 .bss           0x0000000061546140        0x0 C:/msys64/mingw64/bin/../lib/gcc/x86_64-w64-mingw32/8.2.1/../../../../x86_64-w64-mingw32/lib/../lib/libmsvcrt.a(dieybs01278.o)
 .bss           0x0000000061546140        0x0 C:/msys64/mingw64/bin/../lib/gcc/x86_64-w64-mingw32/8.2.1/../../../../x86_64-w64-mingw32/lib/../lib/libmsvcrt.a(dieybs01277.o)
 .bss           0x0000000061546140        0x0 C:/msys64/mingw64/bin/../lib/gcc/x86_64-w64-mingw32/8.2.1/../../../../x86_64-w64-mingw32/lib/../lib/libmsvcrt.a(dieybs01275.o)
 .bss           0x0000000061546140        0x0 C:/msys64/mingw64/bin/../lib/gcc/x86_64-w64-mingw32/8.2.1/../../../../x86_64-w64-mingw32/lib/../lib/libmsvcrt.a(dieybs01274.o)
 .bss           0x0000000061546140        0x0 C:/msys64/mingw64/bin/../lib/gcc/x86_64-w64-mingw32/8.2.1/../../../../x86_64-w64-mingw32/lib/../lib/libmsvcrt.a(dieybs01268.o)
 .bss           0x0000000061546140        0x0 C:/msys64/mingw64/bin/../lib/gcc/x86_64-w64-mingw32/8.2.1/../../../../x86_64-w64-mingw32/lib/../lib/libmsvcrt.a(dieybs01267.o)
 .bss           0x0000000061546140        0x0 C:/msys64/mingw64/bin/../lib/gcc/x86_64-w64-mingw32/8.2.1/../../../../x86_64-w64-mingw32/lib/../lib/libmsvcrt.a(dieybs01263.o)
 .bss           0x0000000061546140        0x0 C:/msys64/mingw64/bin/../lib/gcc/x86_64-w64-mingw32/8.2.1/../../../../x86_64-w64-mingw32/lib/../lib/libmsvcrt.a(dieybs01261.o)
 .bss           0x0000000061546140        0x0 C:/msys64/mingw64/bin/../lib/gcc/x86_64-w64-mingw32/8.2.1/../../../../x86_64-w64-mingw32/lib/../lib/libmsvcrt.a(dieybs01258.o)
 .bss           0x0000000061546140        0x0 C:/msys64/mingw64/bin/../lib/gcc/x86_64-w64-mingw32/8.2.1/../../../../x86_64-w64-mingw32/lib/../lib/libmsvcrt.a(dieybs01257.o)
 .bss           0x0000000061546140        0x0 C:/msys64/mingw64/bin/../lib/gcc/x86_64-w64-mingw32/8.2.1/../../../../x86_64-w64-mingw32/lib/../lib/libmsvcrt.a(dieybs01254.o)
 .bss           0x0000000061546140        0x0 C:/msys64/mingw64/bin/../lib/gcc/x86_64-w64-mingw32/8.2.1/../../../../x86_64-w64-mingw32/lib/../lib/libmsvcrt.a(dieybs01253.o)
 .bss           0x0000000061546140        0x0 C:/msys64/mingw64/bin/../lib/gcc/x86_64-w64-mingw32/8.2.1/../../../../x86_64-w64-mingw32/lib/../lib/libmsvcrt.a(dieybs01251.o)
 .bss           0x0000000061546140        0x0 C:/msys64/mingw64/bin/../lib/gcc/x86_64-w64-mingw32/8.2.1/../../../../x86_64-w64-mingw32/lib/../lib/libmsvcrt.a(dieybs01248.o)
 .bss           0x0000000061546140        0x0 C:/msys64/mingw64/bin/../lib/gcc/x86_64-w64-mingw32/8.2.1/../../../../x86_64-w64-mingw32/lib/../lib/libmsvcrt.a(dieybs01246.o)
 .bss           0x0000000061546140        0x0 C:/msys64/mingw64/bin/../lib/gcc/x86_64-w64-mingw32/8.2.1/../../../../x86_64-w64-mingw32/lib/../lib/libmsvcrt.a(dieybs01245.o)
 .bss           0x0000000061546140        0x0 C:/msys64/mingw64/bin/../lib/gcc/x86_64-w64-mingw32/8.2.1/../../../../x86_64-w64-mingw32/lib/../lib/libmsvcrt.a(dieybs01241.o)
 .bss           0x0000000061546140        0x0 C:/msys64/mingw64/bin/../lib/gcc/x86_64-w64-mingw32/8.2.1/../../../../x86_64-w64-mingw32/lib/../lib/libmsvcrt.a(dieybs01237.o)
 .bss           0x0000000061546140        0x0 C:/msys64/mingw64/bin/../lib/gcc/x86_64-w64-mingw32/8.2.1/../../../../x86_64-w64-mingw32/lib/../lib/libmsvcrt.a(dieybs01235.o)
 .bss           0x0000000061546140        0x0 C:/msys64/mingw64/bin/../lib/gcc/x86_64-w64-mingw32/8.2.1/../../../../x86_64-w64-mingw32/lib/../lib/libmsvcrt.a(dieybs01232.o)
 .bss           0x0000000061546140        0x0 C:/msys64/mingw64/bin/../lib/gcc/x86_64-w64-mingw32/8.2.1/../../../../x86_64-w64-mingw32/lib/../lib/libmsvcrt.a(dieybs01231.o)
 .bss           0x0000000061546140        0x0 C:/msys64/mingw64/bin/../lib/gcc/x86_64-w64-mingw32/8.2.1/../../../../x86_64-w64-mingw32/lib/../lib/libmsvcrt.a(dieybs01230.o)
 .bss           0x0000000061546140        0x0 C:/msys64/mingw64/bin/../lib/gcc/x86_64-w64-mingw32/8.2.1/../../../../x86_64-w64-mingw32/lib/../lib/libmsvcrt.a(dieybs01225.o)
 .bss           0x0000000061546140        0x0 C:/msys64/mingw64/bin/../lib/gcc/x86_64-w64-mingw32/8.2.1/../../../../x86_64-w64-mingw32/lib/../lib/libmsvcrt.a(dieybs01224.o)
 .bss           0x0000000061546140        0x0 C:/msys64/mingw64/bin/../lib/gcc/x86_64-w64-mingw32/8.2.1/../../../../x86_64-w64-mingw32/lib/../lib/libmsvcrt.a(dieybs01223.o)
 .bss           0x0000000061546140        0x0 C:/msys64/mingw64/bin/../lib/gcc/x86_64-w64-mingw32/8.2.1/../../../../x86_64-w64-mingw32/lib/../lib/libmsvcrt.a(dieybs01222.o)
 .bss           0x0000000061546140        0x0 C:/msys64/mingw64/bin/../lib/gcc/x86_64-w64-mingw32/8.2.1/../../../../x86_64-w64-mingw32/lib/../lib/libmsvcrt.a(dieybs01220.o)
 .bss           0x0000000061546140        0x0 C:/msys64/mingw64/bin/../lib/gcc/x86_64-w64-mingw32/8.2.1/../../../../x86_64-w64-mingw32/lib/../lib/libmsvcrt.a(dieybs01218.o)
 .bss           0x0000000061546140        0x0 C:/msys64/mingw64/bin/../lib/gcc/x86_64-w64-mingw32/8.2.1/../../../../x86_64-w64-mingw32/lib/../lib/libmsvcrt.a(dieybs01215.o)
 .bss           0x0000000061546140        0x0 C:/msys64/mingw64/bin/../lib/gcc/x86_64-w64-mingw32/8.2.1/../../../../x86_64-w64-mingw32/lib/../lib/libmsvcrt.a(dieybs01214.o)
 .bss           0x0000000061546140        0x0 C:/msys64/mingw64/bin/../lib/gcc/x86_64-w64-mingw32/8.2.1/../../../../x86_64-w64-mingw32/lib/../lib/libmsvcrt.a(dieybs01213.o)
 .bss           0x0000000061546140        0x0 C:/msys64/mingw64/bin/../lib/gcc/x86_64-w64-mingw32/8.2.1/../../../../x86_64-w64-mingw32/lib/../lib/libmsvcrt.a(dieybs01211.o)
 .bss           0x0000000061546140        0x0 C:/msys64/mingw64/bin/../lib/gcc/x86_64-w64-mingw32/8.2.1/../../../../x86_64-w64-mingw32/lib/../lib/libmsvcrt.a(dieybs01204.o)
 .bss           0x0000000061546140        0x0 C:/msys64/mingw64/bin/../lib/gcc/x86_64-w64-mingw32/8.2.1/../../../../x86_64-w64-mingw32/lib/../lib/libmsvcrt.a(dieybs01203.o)
 .bss           0x0000000061546140        0x0 C:/msys64/mingw64/bin/../lib/gcc/x86_64-w64-mingw32/8.2.1/../../../../x86_64-w64-mingw32/lib/../lib/libmsvcrt.a(dieybs01202.o)
 .bss           0x0000000061546140        0x0 C:/msys64/mingw64/bin/../lib/gcc/x86_64-w64-mingw32/8.2.1/../../../../x86_64-w64-mingw32/lib/../lib/libmsvcrt.a(dieybs01201.o)
 .bss           0x0000000061546140        0x0 C:/msys64/mingw64/bin/../lib/gcc/x86_64-w64-mingw32/8.2.1/../../../../x86_64-w64-mingw32/lib/../lib/libmsvcrt.a(dieybs01200.o)
 .bss           0x0000000061546140        0x0 C:/msys64/mingw64/bin/../lib/gcc/x86_64-w64-mingw32/8.2.1/../../../../x86_64-w64-mingw32/lib/../lib/libmsvcrt.a(dieybs01193.o)
 .bss           0x0000000061546140        0x0 C:/msys64/mingw64/bin/../lib/gcc/x86_64-w64-mingw32/8.2.1/../../../../x86_64-w64-mingw32/lib/../lib/libmsvcrt.a(dieybs01189.o)
 .bss           0x0000000061546140        0x0 C:/msys64/mingw64/bin/../lib/gcc/x86_64-w64-mingw32/8.2.1/../../../../x86_64-w64-mingw32/lib/../lib/libmsvcrt.a(dieybs01187.o)
 .bss           0x0000000061546140        0x0 C:/msys64/mingw64/bin/../lib/gcc/x86_64-w64-mingw32/8.2.1/../../../../x86_64-w64-mingw32/lib/../lib/libmsvcrt.a(dieybs01186.o)
 .bss           0x0000000061546140        0x0 C:/msys64/mingw64/bin/../lib/gcc/x86_64-w64-mingw32/8.2.1/../../../../x86_64-w64-mingw32/lib/../lib/libmsvcrt.a(dieybs01182.o)
 .bss           0x0000000061546140        0x0 C:/msys64/mingw64/bin/../lib/gcc/x86_64-w64-mingw32/8.2.1/../../../../x86_64-w64-mingw32/lib/../lib/libmsvcrt.a(dieybs01168.o)
 .bss           0x0000000061546140        0x0 C:/msys64/mingw64/bin/../lib/gcc/x86_64-w64-mingw32/8.2.1/../../../../x86_64-w64-mingw32/lib/../lib/libmsvcrt.a(dieybs01167.o)
 .bss           0x0000000061546140        0x0 C:/msys64/mingw64/bin/../lib/gcc/x86_64-w64-mingw32/8.2.1/../../../../x86_64-w64-mingw32/lib/../lib/libmsvcrt.a(dieybs01166.o)
 .bss           0x0000000061546140        0x0 C:/msys64/mingw64/bin/../lib/gcc/x86_64-w64-mingw32/8.2.1/../../../../x86_64-w64-mingw32/lib/../lib/libmsvcrt.a(dieybs01165.o)
 .bss           0x0000000061546140        0x0 C:/msys64/mingw64/bin/../lib/gcc/x86_64-w64-mingw32/8.2.1/../../../../x86_64-w64-mingw32/lib/../lib/libmsvcrt.a(dieybs01164.o)
 .bss           0x0000000061546140        0x0 C:/msys64/mingw64/bin/../lib/gcc/x86_64-w64-mingw32/8.2.1/../../../../x86_64-w64-mingw32/lib/../lib/libmsvcrt.a(dieybs01162.o)
 .bss           0x0000000061546140        0x0 C:/msys64/mingw64/bin/../lib/gcc/x86_64-w64-mingw32/8.2.1/../../../../x86_64-w64-mingw32/lib/../lib/libmsvcrt.a(dieybs01161.o)
 .bss           0x0000000061546140        0x0 C:/msys64/mingw64/bin/../lib/gcc/x86_64-w64-mingw32/8.2.1/../../../../x86_64-w64-mingw32/lib/../lib/libmsvcrt.a(dieybs01160.o)
 .bss           0x0000000061546140        0x0 C:/msys64/mingw64/bin/../lib/gcc/x86_64-w64-mingw32/8.2.1/../../../../x86_64-w64-mingw32/lib/../lib/libmsvcrt.a(dieybs01159.o)
 .bss           0x0000000061546140        0x0 C:/msys64/mingw64/bin/../lib/gcc/x86_64-w64-mingw32/8.2.1/../../../../x86_64-w64-mingw32/lib/../lib/libmsvcrt.a(dieybs01158.o)
 .bss           0x0000000061546140        0x0 C:/msys64/mingw64/bin/../lib/gcc/x86_64-w64-mingw32/8.2.1/../../../../x86_64-w64-mingw32/lib/../lib/libmsvcrt.a(dieybs01150.o)
 .bss           0x0000000061546140        0x0 C:/msys64/mingw64/bin/../lib/gcc/x86_64-w64-mingw32/8.2.1/../../../../x86_64-w64-mingw32/lib/../lib/libmsvcrt.a(dieybs01148.o)
 .bss           0x0000000061546140        0x0 C:/msys64/mingw64/bin/../lib/gcc/x86_64-w64-mingw32/8.2.1/../../../../x86_64-w64-mingw32/lib/../lib/libmsvcrt.a(dieybs01145.o)
 .bss           0x0000000061546140        0x0 C:/msys64/mingw64/bin/../lib/gcc/x86_64-w64-mingw32/8.2.1/../../../../x86_64-w64-mingw32/lib/../lib/libmsvcrt.a(dieybs01143.o)
 .bss           0x0000000061546140        0x0 C:/msys64/mingw64/bin/../lib/gcc/x86_64-w64-mingw32/8.2.1/../../../../x86_64-w64-mingw32/lib/../lib/libmsvcrt.a(dieybs01142.o)
 .bss           0x0000000061546140        0x0 C:/msys64/mingw64/bin/../lib/gcc/x86_64-w64-mingw32/8.2.1/../../../../x86_64-w64-mingw32/lib/../lib/libmsvcrt.a(dieybs01141.o)
 .bss           0x0000000061546140        0x0 C:/msys64/mingw64/bin/../lib/gcc/x86_64-w64-mingw32/8.2.1/../../../../x86_64-w64-mingw32/lib/../lib/libmsvcrt.a(dieybs01140.o)
 .bss           0x0000000061546140        0x0 C:/msys64/mingw64/bin/../lib/gcc/x86_64-w64-mingw32/8.2.1/../../../../x86_64-w64-mingw32/lib/../lib/libmsvcrt.a(dieybs01137.o)
 .bss           0x0000000061546140        0x0 C:/msys64/mingw64/bin/../lib/gcc/x86_64-w64-mingw32/8.2.1/../../../../x86_64-w64-mingw32/lib/../lib/libmsvcrt.a(dieybs01136.o)
 .bss           0x0000000061546140        0x0 C:/msys64/mingw64/bin/../lib/gcc/x86_64-w64-mingw32/8.2.1/../../../../x86_64-w64-mingw32/lib/../lib/libmsvcrt.a(dieybs01133.o)
 .bss           0x0000000061546140        0x0 C:/msys64/mingw64/bin/../lib/gcc/x86_64-w64-mingw32/8.2.1/../../../../x86_64-w64-mingw32/lib/../lib/libmsvcrt.a(dieybs01132.o)
 .bss           0x0000000061546140        0x0 C:/msys64/mingw64/bin/../lib/gcc/x86_64-w64-mingw32/8.2.1/../../../../x86_64-w64-mingw32/lib/../lib/libmsvcrt.a(dieybs01129.o)
 .bss           0x0000000061546140        0x0 C:/msys64/mingw64/bin/../lib/gcc/x86_64-w64-mingw32/8.2.1/../../../../x86_64-w64-mingw32/lib/../lib/libmsvcrt.a(dieybs01128.o)
 .bss           0x0000000061546140        0x0 C:/msys64/mingw64/bin/../lib/gcc/x86_64-w64-mingw32/8.2.1/../../../../x86_64-w64-mingw32/lib/../lib/libmsvcrt.a(dieybs01126.o)
 .bss           0x0000000061546140        0x0 C:/msys64/mingw64/bin/../lib/gcc/x86_64-w64-mingw32/8.2.1/../../../../x86_64-w64-mingw32/lib/../lib/libmsvcrt.a(dieybs01124.o)
 .bss           0x0000000061546140        0x0 C:/msys64/mingw64/bin/../lib/gcc/x86_64-w64-mingw32/8.2.1/../../../../x86_64-w64-mingw32/lib/../lib/libmsvcrt.a(dieybs01117.o)
 .bss           0x0000000061546140        0x0 C:/msys64/mingw64/bin/../lib/gcc/x86_64-w64-mingw32/8.2.1/../../../../x86_64-w64-mingw32/lib/../lib/libmsvcrt.a(dieybs01116.o)
 .bss           0x0000000061546140        0x0 C:/msys64/mingw64/bin/../lib/gcc/x86_64-w64-mingw32/8.2.1/../../../../x86_64-w64-mingw32/lib/../lib/libmsvcrt.a(dieybs01115.o)
 .bss           0x0000000061546140        0x0 C:/msys64/mingw64/bin/../lib/gcc/x86_64-w64-mingw32/8.2.1/../../../../x86_64-w64-mingw32/lib/../lib/libmsvcrt.a(dieybs01114.o)
 .bss           0x0000000061546140        0x0 C:/msys64/mingw64/bin/../lib/gcc/x86_64-w64-mingw32/8.2.1/../../../../x86_64-w64-mingw32/lib/../lib/libmsvcrt.a(dieybs01113.o)
 .bss           0x0000000061546140        0x0 C:/msys64/mingw64/bin/../lib/gcc/x86_64-w64-mingw32/8.2.1/../../../../x86_64-w64-mingw32/lib/../lib/libmsvcrt.a(dieybs01112.o)
 .bss           0x0000000061546140        0x0 C:/msys64/mingw64/bin/../lib/gcc/x86_64-w64-mingw32/8.2.1/../../../../x86_64-w64-mingw32/lib/../lib/libmsvcrt.a(dieybs01111.o)
 .bss           0x0000000061546140        0x0 C:/msys64/mingw64/bin/../lib/gcc/x86_64-w64-mingw32/8.2.1/../../../../x86_64-w64-mingw32/lib/../lib/libmsvcrt.a(dieybs01107.o)
 .bss           0x0000000061546140        0x0 C:/msys64/mingw64/bin/../lib/gcc/x86_64-w64-mingw32/8.2.1/../../../../x86_64-w64-mingw32/lib/../lib/libmsvcrt.a(dieybs01102.o)
 .bss           0x0000000061546140        0x0 C:/msys64/mingw64/bin/../lib/gcc/x86_64-w64-mingw32/8.2.1/../../../../x86_64-w64-mingw32/lib/../lib/libmsvcrt.a(dieybs01099.o)
 .bss           0x0000000061546140        0x0 C:/msys64/mingw64/bin/../lib/gcc/x86_64-w64-mingw32/8.2.1/../../../../x86_64-w64-mingw32/lib/../lib/libmsvcrt.a(dieybs01097.o)
 .bss           0x0000000061546140        0x0 C:/msys64/mingw64/bin/../lib/gcc/x86_64-w64-mingw32/8.2.1/../../../../x86_64-w64-mingw32/lib/../lib/libmsvcrt.a(dieybs01094.o)
 .bss           0x0000000061546140        0x0 C:/msys64/mingw64/bin/../lib/gcc/x86_64-w64-mingw32/8.2.1/../../../../x86_64-w64-mingw32/lib/../lib/libmsvcrt.a(dieybs01090.o)
 .bss           0x0000000061546140        0x0 C:/msys64/mingw64/bin/../lib/gcc/x86_64-w64-mingw32/8.2.1/../../../../x86_64-w64-mingw32/lib/../lib/libmsvcrt.a(dieybs01084.o)
 .bss           0x0000000061546140        0x0 C:/msys64/mingw64/bin/../lib/gcc/x86_64-w64-mingw32/8.2.1/../../../../x86_64-w64-mingw32/lib/../lib/libmsvcrt.a(dieybs01082.o)
 .bss           0x0000000061546140        0x0 C:/msys64/mingw64/bin/../lib/gcc/x86_64-w64-mingw32/8.2.1/../../../../x86_64-w64-mingw32/lib/../lib/libmsvcrt.a(dieybs01079.o)
 .bss           0x0000000061546140        0x0 C:/msys64/mingw64/bin/../lib/gcc/x86_64-w64-mingw32/8.2.1/../../../../x86_64-w64-mingw32/lib/../lib/libmsvcrt.a(dieybs01077.o)
 .bss           0x0000000061546140        0x0 C:/msys64/mingw64/bin/../lib/gcc/x86_64-w64-mingw32/8.2.1/../../../../x86_64-w64-mingw32/lib/../lib/libmsvcrt.a(dieybs01031.o)
 .bss           0x0000000061546140        0x0 C:/msys64/mingw64/bin/../lib/gcc/x86_64-w64-mingw32/8.2.1/../../../../x86_64-w64-mingw32/lib/../lib/libmsvcrt.a(dieybs00895.o)
 .bss           0x0000000061546140        0x0 C:/msys64/mingw64/bin/../lib/gcc/x86_64-w64-mingw32/8.2.1/../../../../x86_64-w64-mingw32/lib/../lib/libmsvcrt.a(dieybs00863.o)
 .bss           0x0000000061546140        0x0 C:/msys64/mingw64/bin/../lib/gcc/x86_64-w64-mingw32/8.2.1/../../../../x86_64-w64-mingw32/lib/../lib/libmsvcrt.a(dieybs00834.o)
 .bss           0x0000000061546140        0x0 C:/msys64/mingw64/bin/../lib/gcc/x86_64-w64-mingw32/8.2.1/../../../../x86_64-w64-mingw32/lib/../lib/libmsvcrt.a(dieybs00789.o)
 .bss           0x0000000061546140        0x0 C:/msys64/mingw64/bin/../lib/gcc/x86_64-w64-mingw32/8.2.1/../../../../x86_64-w64-mingw32/lib/../lib/libmsvcrt.a(dieybs00728.o)
 .bss           0x0000000061546140        0x0 C:/msys64/mingw64/bin/../lib/gcc/x86_64-w64-mingw32/8.2.1/../../../../x86_64-w64-mingw32/lib/../lib/libmsvcrt.a(dieybs00714.o)
 .bss           0x0000000061546140        0x0 C:/msys64/mingw64/bin/../lib/gcc/x86_64-w64-mingw32/8.2.1/../../../../x86_64-w64-mingw32/lib/../lib/libmsvcrt.a(dieybs00663.o)
 .bss           0x0000000061546140        0x0 C:/msys64/mingw64/bin/../lib/gcc/x86_64-w64-mingw32/8.2.1/../../../../x86_64-w64-mingw32/lib/../lib/libmsvcrt.a(dieybs00659.o)
 .bss           0x0000000061546140        0x0 C:/msys64/mingw64/bin/../lib/gcc/x86_64-w64-mingw32/8.2.1/../../../../x86_64-w64-mingw32/lib/../lib/libmsvcrt.a(dieybs00651.o)
 .bss           0x0000000061546140        0x0 C:/msys64/mingw64/bin/../lib/gcc/x86_64-w64-mingw32/8.2.1/../../../../x86_64-w64-mingw32/lib/../lib/libmsvcrt.a(dieybs00646.o)
 .bss           0x0000000061546140        0x0 C:/msys64/mingw64/bin/../lib/gcc/x86_64-w64-mingw32/8.2.1/../../../../x86_64-w64-mingw32/lib/../lib/libmsvcrt.a(dieybs00489.o)
 .bss           0x0000000061546140        0x0 C:/msys64/mingw64/bin/../lib/gcc/x86_64-w64-mingw32/8.2.1/../../../../x86_64-w64-mingw32/lib/../lib/libmsvcrt.a(dieybs00479.o)
 .bss           0x0000000061546140        0x0 C:/msys64/mingw64/bin/../lib/gcc/x86_64-w64-mingw32/8.2.1/../../../../x86_64-w64-mingw32/lib/../lib/libmsvcrt.a(dieybs00478.o)
 .bss           0x0000000061546140        0x0 C:/msys64/mingw64/bin/../lib/gcc/x86_64-w64-mingw32/8.2.1/../../../../x86_64-w64-mingw32/lib/../lib/libmsvcrt.a(dieybs00373.o)
 .bss           0x0000000061546140        0x0 C:/msys64/mingw64/bin/../lib/gcc/x86_64-w64-mingw32/8.2.1/../../../../x86_64-w64-mingw32/lib/../lib/libmsvcrt.a(dieybs00369.o)
 .bss           0x0000000061546140        0x0 C:/msys64/mingw64/bin/../lib/gcc/x86_64-w64-mingw32/8.2.1/../../../../x86_64-w64-mingw32/lib/../lib/libmsvcrt.a(dieybs00353.o)
 .bss           0x0000000061546140        0x0 C:/msys64/mingw64/bin/../lib/gcc/x86_64-w64-mingw32/8.2.1/../../../../x86_64-w64-mingw32/lib/../lib/libmsvcrt.a(dieybs00288.o)
 .bss           0x0000000061546140        0x0 C:/msys64/mingw64/bin/../lib/gcc/x86_64-w64-mingw32/8.2.1/../../../../x86_64-w64-mingw32/lib/../lib/libmsvcrt.a(dieybs00273.o)
 .bss           0x0000000061546140        0x0 C:/msys64/mingw64/bin/../lib/gcc/x86_64-w64-mingw32/8.2.1/../../../../x86_64-w64-mingw32/lib/../lib/libmsvcrt.a(dieybs00271.o)
 .bss           0x0000000061546140        0x0 C:/msys64/mingw64/bin/../lib/gcc/x86_64-w64-mingw32/8.2.1/../../../../x86_64-w64-mingw32/lib/../lib/libmsvcrt.a(dieybs00254.o)
 .bss           0x0000000061546140        0x0 C:/msys64/mingw64/bin/../lib/gcc/x86_64-w64-mingw32/8.2.1/../../../../x86_64-w64-mingw32/lib/../lib/libmsvcrt.a(dieybs00237.o)
 .bss           0x0000000061546140        0x0 C:/msys64/mingw64/bin/../lib/gcc/x86_64-w64-mingw32/8.2.1/../../../../x86_64-w64-mingw32/lib/../lib/libmsvcrt.a(dieybs00233.o)
 .bss           0x0000000061546140        0x0 C:/msys64/mingw64/bin/../lib/gcc/x86_64-w64-mingw32/8.2.1/../../../../x86_64-w64-mingw32/lib/../lib/libmsvcrt.a(dieybs00171.o)
 .bss           0x0000000061546140        0x0 C:/msys64/mingw64/bin/../lib/gcc/x86_64-w64-mingw32/8.2.1/../../../../x86_64-w64-mingw32/lib/../lib/libmsvcrt.a(dieybs00162.o)
 .bss           0x0000000061546140        0x0 C:/msys64/mingw64/bin/../lib/gcc/x86_64-w64-mingw32/8.2.1/../../../../x86_64-w64-mingw32/lib/../lib/libmsvcrt.a(dieybs00156.o)
 .bss           0x0000000061546140        0x0 C:/msys64/mingw64/bin/../lib/gcc/x86_64-w64-mingw32/8.2.1/../../../../x86_64-w64-mingw32/lib/../lib/libmsvcrt.a(dieybs00142.o)
 .bss           0x0000000061546140        0x0 C:/msys64/mingw64/bin/../lib/gcc/x86_64-w64-mingw32/8.2.1/../../../../x86_64-w64-mingw32/lib/../lib/libmsvcrt.a(dieybs00122.o)
 .bss           0x0000000061546140        0x0 C:/msys64/mingw64/bin/../lib/gcc/x86_64-w64-mingw32/8.2.1/../../../../x86_64-w64-mingw32/lib/../lib/libmsvcrt.a(dieybs00083.o)
 .bss           0x0000000061546140        0x0 C:/msys64/mingw64/bin/../lib/gcc/x86_64-w64-mingw32/8.2.1/../../../../x86_64-w64-mingw32/lib/../lib/libmsvcrt.a(dieybs00079.o)
 .bss           0x0000000061546140        0x0 C:/msys64/mingw64/bin/../lib/gcc/x86_64-w64-mingw32/8.2.1/../../../../x86_64-w64-mingw32/lib/../lib/libmsvcrt.a(dieybs00078.o)
 .bss           0x0000000061546140        0x0 C:/msys64/mingw64/bin/../lib/gcc/x86_64-w64-mingw32/8.2.1/../../../../x86_64-w64-mingw32/lib/../lib/libmsvcrt.a(dieybs00058.o)
 .bss           0x0000000061546140        0x0 C:/msys64/mingw64/bin/../lib/gcc/x86_64-w64-mingw32/8.2.1/../../../../x86_64-w64-mingw32/lib/../lib/libmsvcrt.a(dieybh.o)
 .bss           0x0000000061546140        0x0 C:/msys64/mingw64/bin/../lib/gcc/x86_64-w64-mingw32/8.2.1/../../../../x86_64-w64-mingw32/lib/../lib/libmsvcrt.a(dieybt.o)
 .bss           0x0000000061546140        0x0 C:/msys64/mingw64/bin/../lib/gcc/x86_64-w64-mingw32/8.2.1/../../../../x86_64-w64-mingw32/lib/../lib/libuser32.a(dyotbs00619.o)
 .bss           0x0000000061546140        0x0 C:/msys64/mingw64/bin/../lib/gcc/x86_64-w64-mingw32/8.2.1/../../../../x86_64-w64-mingw32/lib/../lib/libuser32.a(dyotbh.o)
 .bss           0x0000000061546140        0x0 C:/msys64/mingw64/bin/../lib/gcc/x86_64-w64-mingw32/8.2.1/../../../../x86_64-w64-mingw32/lib/../lib/libuser32.a(dyotbt.o)
 .bss           0x0000000061546140        0x0 C:/msys64/mingw64/bin/../lib/gcc/x86_64-w64-mingw32/8.2.1/../../../../x86_64-w64-mingw32/lib/../lib/libkernel32.a(dkzxbs01510.o)
 .bss           0x0000000061546140        0x0 C:/msys64/mingw64/bin/../lib/gcc/x86_64-w64-mingw32/8.2.1/../../../../x86_64-w64-mingw32/lib/../lib/libkernel32.a(dkzxbs01490.o)
 .bss           0x0000000061546140        0x0 C:/msys64/mingw64/bin/../lib/gcc/x86_64-w64-mingw32/8.2.1/../../../../x86_64-w64-mingw32/lib/../lib/libkernel32.a(dkzxbs01454.o)
 .bss           0x0000000061546140        0x0 C:/msys64/mingw64/bin/../lib/gcc/x86_64-w64-mingw32/8.2.1/../../../../x86_64-w64-mingw32/lib/../lib/libkernel32.a(dkzxbs01453.o)
 .bss           0x0000000061546140        0x0 C:/msys64/mingw64/bin/../lib/gcc/x86_64-w64-mingw32/8.2.1/../../../../x86_64-w64-mingw32/lib/../lib/libkernel32.a(dkzxbs01445.o)
 .bss           0x0000000061546140        0x0 C:/msys64/mingw64/bin/../lib/gcc/x86_64-w64-mingw32/8.2.1/../../../../x86_64-w64-mingw32/lib/../lib/libkernel32.a(dkzxbs01443.o)
 .bss           0x0000000061546140        0x0 C:/msys64/mingw64/bin/../lib/gcc/x86_64-w64-mingw32/8.2.1/../../../../x86_64-w64-mingw32/lib/../lib/libkernel32.a(dkzxbs01440.o)
 .bss           0x0000000061546140        0x0 C:/msys64/mingw64/bin/../lib/gcc/x86_64-w64-mingw32/8.2.1/../../../../x86_64-w64-mingw32/lib/../lib/libkernel32.a(dkzxbs01436.o)
 .bss           0x0000000061546140        0x0 C:/msys64/mingw64/bin/../lib/gcc/x86_64-w64-mingw32/8.2.1/../../../../x86_64-w64-mingw32/lib/../lib/libkernel32.a(dkzxbs01412.o)
 .bss           0x0000000061546140        0x0 C:/msys64/mingw64/bin/../lib/gcc/x86_64-w64-mingw32/8.2.1/../../../../x86_64-w64-mingw32/lib/../lib/libkernel32.a(dkzxbs01411.o)
 .bss           0x0000000061546140        0x0 C:/msys64/mingw64/bin/../lib/gcc/x86_64-w64-mingw32/8.2.1/../../../../x86_64-w64-mingw32/lib/../lib/libkernel32.a(dkzxbs01410.o)
 .bss           0x0000000061546140        0x0 C:/msys64/mingw64/bin/../lib/gcc/x86_64-w64-mingw32/8.2.1/../../../../x86_64-w64-mingw32/lib/../lib/libkernel32.a(dkzxbs01409.o)
 .bss           0x0000000061546140        0x0 C:/msys64/mingw64/bin/../lib/gcc/x86_64-w64-mingw32/8.2.1/../../../../x86_64-w64-mingw32/lib/../lib/libkernel32.a(dkzxbs01402.o)
 .bss           0x0000000061546140        0x0 C:/msys64/mingw64/bin/../lib/gcc/x86_64-w64-mingw32/8.2.1/../../../../x86_64-w64-mingw32/lib/../lib/libkernel32.a(dkzxbs01395.o)
 .bss           0x0000000061546140        0x0 C:/msys64/mingw64/bin/../lib/gcc/x86_64-w64-mingw32/8.2.1/../../../../x86_64-w64-mingw32/lib/../lib/libkernel32.a(dkzxbs01375.o)
 .bss           0x0000000061546140        0x0 C:/msys64/mingw64/bin/../lib/gcc/x86_64-w64-mingw32/8.2.1/../../../../x86_64-w64-mingw32/lib/../lib/libkernel32.a(dkzxbs01371.o)
 .bss           0x0000000061546140        0x0 C:/msys64/mingw64/bin/../lib/gcc/x86_64-w64-mingw32/8.2.1/../../../../x86_64-w64-mingw32/lib/../lib/libkernel32.a(dkzxbs01360.o)
 .bss           0x0000000061546140        0x0 C:/msys64/mingw64/bin/../lib/gcc/x86_64-w64-mingw32/8.2.1/../../../../x86_64-w64-mingw32/lib/../lib/libkernel32.a(dkzxbs01346.o)
 .bss           0x0000000061546140        0x0 C:/msys64/mingw64/bin/../lib/gcc/x86_64-w64-mingw32/8.2.1/../../../../x86_64-w64-mingw32/lib/../lib/libkernel32.a(dkzxbs01290.o)
 .bss           0x0000000061546140        0x0 C:/msys64/mingw64/bin/../lib/gcc/x86_64-w64-mingw32/8.2.1/../../../../x86_64-w64-mingw32/lib/../lib/libkernel32.a(dkzxbs01276.o)
 .bss           0x0000000061546140        0x0 C:/msys64/mingw64/bin/../lib/gcc/x86_64-w64-mingw32/8.2.1/../../../../x86_64-w64-mingw32/lib/../lib/libkernel32.a(dkzxbs01257.o)
 .bss           0x0000000061546140        0x0 C:/msys64/mingw64/bin/../lib/gcc/x86_64-w64-mingw32/8.2.1/../../../../x86_64-w64-mingw32/lib/../lib/libkernel32.a(dkzxbs01243.o)
 .bss           0x0000000061546140        0x0 C:/msys64/mingw64/bin/../lib/gcc/x86_64-w64-mingw32/8.2.1/../../../../x86_64-w64-mingw32/lib/../lib/libkernel32.a(dkzxbs01194.o)
 .bss           0x0000000061546140        0x0 C:/msys64/mingw64/bin/../lib/gcc/x86_64-w64-mingw32/8.2.1/../../../../x86_64-w64-mingw32/lib/../lib/libkernel32.a(dkzxbs01193.o)
 .bss           0x0000000061546140        0x0 C:/msys64/mingw64/bin/../lib/gcc/x86_64-w64-mingw32/8.2.1/../../../../x86_64-w64-mingw32/lib/../lib/libkernel32.a(dkzxbs01187.o)
 .bss           0x0000000061546140        0x0 C:/msys64/mingw64/bin/../lib/gcc/x86_64-w64-mingw32/8.2.1/../../../../x86_64-w64-mingw32/lib/../lib/libkernel32.a(dkzxbs01180.o)
 .bss           0x0000000061546140        0x0 C:/msys64/mingw64/bin/../lib/gcc/x86_64-w64-mingw32/8.2.1/../../../../x86_64-w64-mingw32/lib/../lib/libkernel32.a(dkzxbs01179.o)
 .bss           0x0000000061546140        0x0 C:/msys64/mingw64/bin/../lib/gcc/x86_64-w64-mingw32/8.2.1/../../../../x86_64-w64-mingw32/lib/../lib/libkernel32.a(dkzxbs01128.o)
 .bss           0x0000000061546140        0x0 C:/msys64/mingw64/bin/../lib/gcc/x86_64-w64-mingw32/8.2.1/../../../../x86_64-w64-mingw32/lib/../lib/libkernel32.a(dkzxbs01112.o)
 .bss           0x0000000061546140        0x0 C:/msys64/mingw64/bin/../lib/gcc/x86_64-w64-mingw32/8.2.1/../../../../x86_64-w64-mingw32/lib/../lib/libkernel32.a(dkzxbs01093.o)
 .bss           0x0000000061546140        0x0 C:/msys64/mingw64/bin/../lib/gcc/x86_64-w64-mingw32/8.2.1/../../../../x86_64-w64-mingw32/lib/../lib/libkernel32.a(dkzxbs01042.o)
 .bss           0x0000000061546140        0x0 C:/msys64/mingw64/bin/../lib/gcc/x86_64-w64-mingw32/8.2.1/../../../../x86_64-w64-mingw32/lib/../lib/libkernel32.a(dkzxbs01041.o)
 .bss           0x0000000061546140        0x0 C:/msys64/mingw64/bin/../lib/gcc/x86_64-w64-mingw32/8.2.1/../../../../x86_64-w64-mingw32/lib/../lib/libkernel32.a(dkzxbs00999.o)
 .bss           0x0000000061546140        0x0 C:/msys64/mingw64/bin/../lib/gcc/x86_64-w64-mingw32/8.2.1/../../../../x86_64-w64-mingw32/lib/../lib/libkernel32.a(dkzxbs00982.o)
 .bss           0x0000000061546140        0x0 C:/msys64/mingw64/bin/../lib/gcc/x86_64-w64-mingw32/8.2.1/../../../../x86_64-w64-mingw32/lib/../lib/libkernel32.a(dkzxbs00978.o)
 .bss           0x0000000061546140        0x0 C:/msys64/mingw64/bin/../lib/gcc/x86_64-w64-mingw32/8.2.1/../../../../x86_64-w64-mingw32/lib/../lib/libkernel32.a(dkzxbs00977.o)
 .bss           0x0000000061546140        0x0 C:/msys64/mingw64/bin/../lib/gcc/x86_64-w64-mingw32/8.2.1/../../../../x86_64-w64-mingw32/lib/../lib/libkernel32.a(dkzxbs00967.o)
 .bss           0x0000000061546140        0x0 C:/msys64/mingw64/bin/../lib/gcc/x86_64-w64-mingw32/8.2.1/../../../../x86_64-w64-mingw32/lib/../lib/libkernel32.a(dkzxbs00957.o)
 .bss           0x0000000061546140        0x0 C:/msys64/mingw64/bin/../lib/gcc/x86_64-w64-mingw32/8.2.1/../../../../x86_64-w64-mingw32/lib/../lib/libkernel32.a(dkzxbs00955.o)
 .bss           0x0000000061546140        0x0 C:/msys64/mingw64/bin/../lib/gcc/x86_64-w64-mingw32/8.2.1/../../../../x86_64-w64-mingw32/lib/../lib/libkernel32.a(dkzxbs00954.o)
 .bss           0x0000000061546140        0x0 C:/msys64/mingw64/bin/../lib/gcc/x86_64-w64-mingw32/8.2.1/../../../../x86_64-w64-mingw32/lib/../lib/libkernel32.a(dkzxbs00951.o)
 .bss           0x0000000061546140        0x0 C:/msys64/mingw64/bin/../lib/gcc/x86_64-w64-mingw32/8.2.1/../../../../x86_64-w64-mingw32/lib/../lib/libkernel32.a(dkzxbs00863.o)
 .bss           0x0000000061546140        0x0 C:/msys64/mingw64/bin/../lib/gcc/x86_64-w64-mingw32/8.2.1/../../../../x86_64-w64-mingw32/lib/../lib/libkernel32.a(dkzxbs00851.o)
 .bss           0x0000000061546140        0x0 C:/msys64/mingw64/bin/../lib/gcc/x86_64-w64-mingw32/8.2.1/../../../../x86_64-w64-mingw32/lib/../lib/libkernel32.a(dkzxbs00847.o)
 .bss           0x0000000061546140        0x0 C:/msys64/mingw64/bin/../lib/gcc/x86_64-w64-mingw32/8.2.1/../../../../x86_64-w64-mingw32/lib/../lib/libkernel32.a(dkzxbs00845.o)
 .bss           0x0000000061546140        0x0 C:/msys64/mingw64/bin/../lib/gcc/x86_64-w64-mingw32/8.2.1/../../../../x86_64-w64-mingw32/lib/../lib/libkernel32.a(dkzxbs00841.o)
 .bss           0x0000000061546140        0x0 C:/msys64/mingw64/bin/../lib/gcc/x86_64-w64-mingw32/8.2.1/../../../../x86_64-w64-mingw32/lib/../lib/libkernel32.a(dkzxbs00839.o)
 .bss           0x0000000061546140        0x0 C:/msys64/mingw64/bin/../lib/gcc/x86_64-w64-mingw32/8.2.1/../../../../x86_64-w64-mingw32/lib/../lib/libkernel32.a(dkzxbs00837.o)
 .bss           0x0000000061546140        0x0 C:/msys64/mingw64/bin/../lib/gcc/x86_64-w64-mingw32/8.2.1/../../../../x86_64-w64-mingw32/lib/../lib/libkernel32.a(dkzxbs00836.o)
 .bss           0x0000000061546140        0x0 C:/msys64/mingw64/bin/../lib/gcc/x86_64-w64-mingw32/8.2.1/../../../../x86_64-w64-mingw32/lib/../lib/libkernel32.a(dkzxbs00835.o)
 .bss           0x0000000061546140        0x0 C:/msys64/mingw64/bin/../lib/gcc/x86_64-w64-mingw32/8.2.1/../../../../x86_64-w64-mingw32/lib/../lib/libkernel32.a(dkzxbs00794.o)
 .bss           0x0000000061546140        0x0 C:/msys64/mingw64/bin/../lib/gcc/x86_64-w64-mingw32/8.2.1/../../../../x86_64-w64-mingw32/lib/../lib/libkernel32.a(dkzxbs00793.o)
 .bss           0x0000000061546140        0x0 C:/msys64/mingw64/bin/../lib/gcc/x86_64-w64-mingw32/8.2.1/../../../../x86_64-w64-mingw32/lib/../lib/libkernel32.a(dkzxbs00781.o)
 .bss           0x0000000061546140        0x0 C:/msys64/mingw64/bin/../lib/gcc/x86_64-w64-mingw32/8.2.1/../../../../x86_64-w64-mingw32/lib/../lib/libkernel32.a(dkzxbs00774.o)
 .bss           0x0000000061546140        0x0 C:/msys64/mingw64/bin/../lib/gcc/x86_64-w64-mingw32/8.2.1/../../../../x86_64-w64-mingw32/lib/../lib/libkernel32.a(dkzxbs00759.o)
 .bss           0x0000000061546140        0x0 C:/msys64/mingw64/bin/../lib/gcc/x86_64-w64-mingw32/8.2.1/../../../../x86_64-w64-mingw32/lib/../lib/libkernel32.a(dkzxbs00758.o)
 .bss           0x0000000061546140        0x0 C:/msys64/mingw64/bin/../lib/gcc/x86_64-w64-mingw32/8.2.1/../../../../x86_64-w64-mingw32/lib/../lib/libkernel32.a(dkzxbs00746.o)
 .bss           0x0000000061546140        0x0 C:/msys64/mingw64/bin/../lib/gcc/x86_64-w64-mingw32/8.2.1/../../../../x86_64-w64-mingw32/lib/../lib/libkernel32.a(dkzxbs00744.o)
 .bss           0x0000000061546140        0x0 C:/msys64/mingw64/bin/../lib/gcc/x86_64-w64-mingw32/8.2.1/../../../../x86_64-w64-mingw32/lib/../lib/libkernel32.a(dkzxbs00740.o)
 .bss           0x0000000061546140        0x0 C:/msys64/mingw64/bin/../lib/gcc/x86_64-w64-mingw32/8.2.1/../../../../x86_64-w64-mingw32/lib/../lib/libkernel32.a(dkzxbs00724.o)
 .bss           0x0000000061546140        0x0 C:/msys64/mingw64/bin/../lib/gcc/x86_64-w64-mingw32/8.2.1/../../../../x86_64-w64-mingw32/lib/../lib/libkernel32.a(dkzxbs00694.o)
 .bss           0x0000000061546140        0x0 C:/msys64/mingw64/bin/../lib/gcc/x86_64-w64-mingw32/8.2.1/../../../../x86_64-w64-mingw32/lib/../lib/libkernel32.a(dkzxbs00689.o)
 .bss           0x0000000061546140        0x0 C:/msys64/mingw64/bin/../lib/gcc/x86_64-w64-mingw32/8.2.1/../../../../x86_64-w64-mingw32/lib/../lib/libkernel32.a(dkzxbs00631.o)
 .bss           0x0000000061546140        0x0 C:/msys64/mingw64/bin/../lib/gcc/x86_64-w64-mingw32/8.2.1/../../../../x86_64-w64-mingw32/lib/../lib/libkernel32.a(dkzxbs00630.o)
 .bss           0x0000000061546140        0x0 C:/msys64/mingw64/bin/../lib/gcc/x86_64-w64-mingw32/8.2.1/../../../../x86_64-w64-mingw32/lib/../lib/libkernel32.a(dkzxbs00629.o)
 .bss           0x0000000061546140        0x0 C:/msys64/mingw64/bin/../lib/gcc/x86_64-w64-mingw32/8.2.1/../../../../x86_64-w64-mingw32/lib/../lib/libkernel32.a(dkzxbs00628.o)
 .bss           0x0000000061546140        0x0 C:/msys64/mingw64/bin/../lib/gcc/x86_64-w64-mingw32/8.2.1/../../../../x86_64-w64-mingw32/lib/../lib/libkernel32.a(dkzxbs00609.o)
 .bss           0x0000000061546140        0x0 C:/msys64/mingw64/bin/../lib/gcc/x86_64-w64-mingw32/8.2.1/../../../../x86_64-w64-mingw32/lib/../lib/libkernel32.a(dkzxbs00603.o)
 .bss           0x0000000061546140        0x0 C:/msys64/mingw64/bin/../lib/gcc/x86_64-w64-mingw32/8.2.1/../../../../x86_64-w64-mingw32/lib/../lib/libkernel32.a(dkzxbs00600.o)
 .bss           0x0000000061546140        0x0 C:/msys64/mingw64/bin/../lib/gcc/x86_64-w64-mingw32/8.2.1/../../../../x86_64-w64-mingw32/lib/../lib/libkernel32.a(dkzxbs00589.o)
 .bss           0x0000000061546140        0x0 C:/msys64/mingw64/bin/../lib/gcc/x86_64-w64-mingw32/8.2.1/../../../../x86_64-w64-mingw32/lib/../lib/libkernel32.a(dkzxbs00583.o)
 .bss           0x0000000061546140        0x0 C:/msys64/mingw64/bin/../lib/gcc/x86_64-w64-mingw32/8.2.1/../../../../x86_64-w64-mingw32/lib/../lib/libkernel32.a(dkzxbs00580.o)
 .bss           0x0000000061546140        0x0 C:/msys64/mingw64/bin/../lib/gcc/x86_64-w64-mingw32/8.2.1/../../../../x86_64-w64-mingw32/lib/../lib/libkernel32.a(dkzxbs00578.o)
 .bss           0x0000000061546140        0x0 C:/msys64/mingw64/bin/../lib/gcc/x86_64-w64-mingw32/8.2.1/../../../../x86_64-w64-mingw32/lib/../lib/libkernel32.a(dkzxbs00555.o)
 .bss           0x0000000061546140        0x0 C:/msys64/mingw64/bin/../lib/gcc/x86_64-w64-mingw32/8.2.1/../../../../x86_64-w64-mingw32/lib/../lib/libkernel32.a(dkzxbs00552.o)
 .bss           0x0000000061546140        0x0 C:/msys64/mingw64/bin/../lib/gcc/x86_64-w64-mingw32/8.2.1/../../../../x86_64-w64-mingw32/lib/../lib/libkernel32.a(dkzxbs00540.o)
 .bss           0x0000000061546140        0x0 C:/msys64/mingw64/bin/../lib/gcc/x86_64-w64-mingw32/8.2.1/../../../../x86_64-w64-mingw32/lib/../lib/libkernel32.a(dkzxbs00536.o)
 .bss           0x0000000061546140        0x0 C:/msys64/mingw64/bin/../lib/gcc/x86_64-w64-mingw32/8.2.1/../../../../x86_64-w64-mingw32/lib/../lib/libkernel32.a(dkzxbs00535.o)
 .bss           0x0000000061546140        0x0 C:/msys64/mingw64/bin/../lib/gcc/x86_64-w64-mingw32/8.2.1/../../../../x86_64-w64-mingw32/lib/../lib/libkernel32.a(dkzxbs00514.o)
 .bss           0x0000000061546140        0x0 C:/msys64/mingw64/bin/../lib/gcc/x86_64-w64-mingw32/8.2.1/../../../../x86_64-w64-mingw32/lib/../lib/libkernel32.a(dkzxbs00427.o)
 .bss           0x0000000061546140        0x0 C:/msys64/mingw64/bin/../lib/gcc/x86_64-w64-mingw32/8.2.1/../../../../x86_64-w64-mingw32/lib/../lib/libkernel32.a(dkzxbs00423.o)
 .bss           0x0000000061546140        0x0 C:/msys64/mingw64/bin/../lib/gcc/x86_64-w64-mingw32/8.2.1/../../../../x86_64-w64-mingw32/lib/../lib/libkernel32.a(dkzxbs00422.o)
 .bss           0x0000000061546140        0x0 C:/msys64/mingw64/bin/../lib/gcc/x86_64-w64-mingw32/8.2.1/../../../../x86_64-w64-mingw32/lib/../lib/libkernel32.a(dkzxbs00415.o)
 .bss           0x0000000061546140        0x0 C:/msys64/mingw64/bin/../lib/gcc/x86_64-w64-mingw32/8.2.1/../../../../x86_64-w64-mingw32/lib/../lib/libkernel32.a(dkzxbs00304.o)
 .bss           0x0000000061546140        0x0 C:/msys64/mingw64/bin/../lib/gcc/x86_64-w64-mingw32/8.2.1/../../../../x86_64-w64-mingw32/lib/../lib/libkernel32.a(dkzxbs00273.o)
 .bss           0x0000000061546140        0x0 C:/msys64/mingw64/bin/../lib/gcc/x86_64-w64-mingw32/8.2.1/../../../../x86_64-w64-mingw32/lib/../lib/libkernel32.a(dkzxbs00270.o)
 .bss           0x0000000061546140        0x0 C:/msys64/mingw64/bin/../lib/gcc/x86_64-w64-mingw32/8.2.1/../../../../x86_64-w64-mingw32/lib/../lib/libkernel32.a(dkzxbs00268.o)
 .bss           0x0000000061546140        0x0 C:/msys64/mingw64/bin/../lib/gcc/x86_64-w64-mingw32/8.2.1/../../../../x86_64-w64-mingw32/lib/../lib/libkernel32.a(dkzxbs00237.o)
 .bss           0x0000000061546140        0x0 C:/msys64/mingw64/bin/../lib/gcc/x86_64-w64-mingw32/8.2.1/../../../../x86_64-w64-mingw32/lib/../lib/libkernel32.a(dkzxbs00214.o)
 .bss           0x0000000061546140        0x0 C:/msys64/mingw64/bin/../lib/gcc/x86_64-w64-mingw32/8.2.1/../../../../x86_64-w64-mingw32/lib/../lib/libkernel32.a(dkzxbs00199.o)
 .bss           0x0000000061546140        0x0 C:/msys64/mingw64/bin/../lib/gcc/x86_64-w64-mingw32/8.2.1/../../../../x86_64-w64-mingw32/lib/../lib/libkernel32.a(dkzxbs00196.o)
 .bss           0x0000000061546140        0x0 C:/msys64/mingw64/bin/../lib/gcc/x86_64-w64-mingw32/8.2.1/../../../../x86_64-w64-mingw32/lib/../lib/libkernel32.a(dkzxbs00192.o)
 .bss           0x0000000061546140        0x0 C:/msys64/mingw64/bin/../lib/gcc/x86_64-w64-mingw32/8.2.1/../../../../x86_64-w64-mingw32/lib/../lib/libkernel32.a(dkzxbs00191.o)
 .bss           0x0000000061546140        0x0 C:/msys64/mingw64/bin/../lib/gcc/x86_64-w64-mingw32/8.2.1/../../../../x86_64-w64-mingw32/lib/../lib/libkernel32.a(dkzxbs00130.o)
 .bss           0x0000000061546140        0x0 C:/msys64/mingw64/bin/../lib/gcc/x86_64-w64-mingw32/8.2.1/../../../../x86_64-w64-mingw32/lib/../lib/libkernel32.a(dkzxbs00027.o)
 .bss           0x0000000061546140        0x0 C:/msys64/mingw64/bin/../lib/gcc/x86_64-w64-mingw32/8.2.1/../../../../x86_64-w64-mingw32/lib/../lib/libkernel32.a(dkzxbh.o)
 .bss           0x0000000061546140        0x0 C:/msys64/mingw64/bin/../lib/gcc/x86_64-w64-mingw32/8.2.1/../../../../x86_64-w64-mingw32/lib/../lib/libkernel32.a(dkzxbt.o)
 .bss           0x0000000061546140       0x10 C:/msys64/mingw64/bin/../lib/gcc/x86_64-w64-mingw32/8.2.1/../../../../x86_64-w64-mingw32/lib/../lib/libmingw32.a(lib64_libmingw32_a-merr.o)
 .bss           0x0000000061546150        0x0 C:/msys64/mingw64/bin/../lib/gcc/x86_64-w64-mingw32/8.2.1/../../../../x86_64-w64-mingw32/lib/../lib/libmsvcrt.a(dieybs00127.o)
 .bss           0x0000000061546150        0x0 C:/msys64/mingw64/bin/../lib/gcc/x86_64-w64-mingw32/8.2.1/crtend.o
 *(COMMON)
 COMMON         0x0000000061546150       0x10 C:/msys64/mingw64/bin/../lib/gcc/x86_64-w64-mingw32/8.2.1/../../../../x86_64-w64-mingw32/lib/../lib/libmingw32.a(lib64_libmingw32_a-atonexit.o)
                0x0000000061546150                __onexitbegin
                0x0000000061546158                __onexitend
 COMMON         0x0000000061546160       0x10 C:/msys64/mingw64/bin/../lib/gcc/x86_64-w64-mingw32/8.2.1/../../../../x86_64-w64-mingw32/lib/../lib/libmingw32.a(lib64_libmingw32_a-natstart.o)
                0x0000000061546160                __native_startup_state
                0x0000000061546168                __native_startup_lock
 COMMON         0x0000000061546170        0x0 C:/msys64/mingw64/bin/../lib/gcc/x86_64-w64-mingw32/8.2.1/libgcc.a(_ctors.o)
 *fill*         0x0000000061546170       0x10 
 COMMON         0x0000000061546180      0x100 C:/msys64/mingw64/bin/../lib/gcc/x86_64-w64-mingw32/8.2.1/../../../../x86_64-w64-mingw32/lib/../lib/libmingwex.a(lib64_libmingwex_a-hd_init.o)
                0x0000000061546180                __hexdig_D2A
                0x0000000061546280                __bss_end__ = .

.edata          0x0000000061547000     0x8e00
 *(.edata)
 .edata         0x0000000061547000     0x8d38 dll stuff

/DISCARD/
 *(.debug$S)
 *(.debug$T)
 *(.debug$F)
 *(.drectve)
 *(.note.GNU-stack)
 *(.gnu.lto_*)

.idata          0x0000000061550000     0x2200
 SORT(*)(.idata$2)
 .idata$2       0x0000000061550000       0x14 C:/msys64/mingw64/bin/../lib/gcc/x86_64-w64-mingw32/8.2.1/../../../../x86_64-w64-mingw32/lib/../lib/libkernel32.a(dkzxbh.o)
                0x0000000061550000                _head_lib64_libkernel32_a
 .idata$2       0x0000000061550014       0x14 C:/msys64/mingw64/bin/../lib/gcc/x86_64-w64-mingw32/8.2.1/../../../../x86_64-w64-mingw32/lib/../lib/libmsvcrt.a(dieybh.o)
                0x0000000061550014                _head_lib64_libmsvcrt_a
 .idata$2       0x0000000061550028       0x14 C:/msys64/mingw64/bin/../lib/gcc/x86_64-w64-mingw32/8.2.1/../../../../x86_64-w64-mingw32/lib/../lib/libuser32.a(dyotbh.o)
                0x0000000061550028                _head_lib64_libuser32_a
 .idata$2       0x000000006155003c       0x14 C:/msys64/mingw64/bin/../lib/gcc/x86_64-w64-mingw32/8.2.1/../../../../x86_64-w64-mingw32/lib/../lib/libws2_32.a(dmgsh.o)
                0x000000006155003c                _head_lib64_libws2_32_a
 SORT(*)(.idata$3)
                0x0000000061550050        0x4 LONG 0x0
                0x0000000061550054        0x4 LONG 0x0
                0x0000000061550058        0x4 LONG 0x0
                0x000000006155005c        0x4 LONG 0x0
                0x0000000061550060        0x4 LONG 0x0
 SORT(*)(.idata$4)
 .idata$4       0x0000000061550064        0x0 C:/msys64/mingw64/bin/../lib/gcc/x86_64-w64-mingw32/8.2.1/../../../../x86_64-w64-mingw32/lib/../lib/libkernel32.a(dkzxbh.o)
 .idata$4       0x0000000061550064        0x8 C:/msys64/mingw64/bin/../lib/gcc/x86_64-w64-mingw32/8.2.1/../../../../x86_64-w64-mingw32/lib/../lib/libkernel32.a(dkzxbs00027.o)
 .idata$4       0x000000006155006c        0x8 C:/msys64/mingw64/bin/../lib/gcc/x86_64-w64-mingw32/8.2.1/../../../../x86_64-w64-mingw32/lib/../lib/libkernel32.a(dkzxbs00130.o)
 .idata$4       0x0000000061550074        0x8 C:/msys64/mingw64/bin/../lib/gcc/x86_64-w64-mingw32/8.2.1/../../../../x86_64-w64-mingw32/lib/../lib/libkernel32.a(dkzxbs00191.o)
 .idata$4       0x000000006155007c        0x8 C:/msys64/mingw64/bin/../lib/gcc/x86_64-w64-mingw32/8.2.1/../../../../x86_64-w64-mingw32/lib/../lib/libkernel32.a(dkzxbs00192.o)
 .idata$4       0x0000000061550084        0x8 C:/msys64/mingw64/bin/../lib/gcc/x86_64-w64-mingw32/8.2.1/../../../../x86_64-w64-mingw32/lib/../lib/libkernel32.a(dkzxbs00196.o)
 .idata$4       0x000000006155008c        0x8 C:/msys64/mingw64/bin/../lib/gcc/x86_64-w64-mingw32/8.2.1/../../../../x86_64-w64-mingw32/lib/../lib/libkernel32.a(dkzxbs00199.o)
 .idata$4       0x0000000061550094        0x8 C:/msys64/mingw64/bin/../lib/gcc/x86_64-w64-mingw32/8.2.1/../../../../x86_64-w64-mingw32/lib/../lib/libkernel32.a(dkzxbs00214.o)
 .idata$4       0x000000006155009c        0x8 C:/msys64/mingw64/bin/../lib/gcc/x86_64-w64-mingw32/8.2.1/../../../../x86_64-w64-mingw32/lib/../lib/libkernel32.a(dkzxbs00237.o)
 .idata$4       0x00000000615500a4        0x8 C:/msys64/mingw64/bin/../lib/gcc/x86_64-w64-mingw32/8.2.1/../../../../x86_64-w64-mingw32/lib/../lib/libkernel32.a(dkzxbs00268.o)
 .idata$4       0x00000000615500ac        0x8 C:/msys64/mingw64/bin/../lib/gcc/x86_64-w64-mingw32/8.2.1/../../../../x86_64-w64-mingw32/lib/../lib/libkernel32.a(dkzxbs00270.o)
 .idata$4       0x00000000615500b4        0x8 C:/msys64/mingw64/bin/../lib/gcc/x86_64-w64-mingw32/8.2.1/../../../../x86_64-w64-mingw32/lib/../lib/libkernel32.a(dkzxbs00273.o)
 .idata$4       0x00000000615500bc        0x8 C:/msys64/mingw64/bin/../lib/gcc/x86_64-w64-mingw32/8.2.1/../../../../x86_64-w64-mingw32/lib/../lib/libkernel32.a(dkzxbs00304.o)
 .idata$4       0x00000000615500c4        0x8 C:/msys64/mingw64/bin/../lib/gcc/x86_64-w64-mingw32/8.2.1/../../../../x86_64-w64-mingw32/lib/../lib/libkernel32.a(dkzxbs00415.o)
 .idata$4       0x00000000615500cc        0x8 C:/msys64/mingw64/bin/../lib/gcc/x86_64-w64-mingw32/8.2.1/../../../../x86_64-w64-mingw32/lib/../lib/libkernel32.a(dkzxbs00422.o)
 .idata$4       0x00000000615500d4        0x8 C:/msys64/mingw64/bin/../lib/gcc/x86_64-w64-mingw32/8.2.1/../../../../x86_64-w64-mingw32/lib/../lib/libkernel32.a(dkzxbs00423.o)
 .idata$4       0x00000000615500dc        0x8 C:/msys64/mingw64/bin/../lib/gcc/x86_64-w64-mingw32/8.2.1/../../../../x86_64-w64-mingw32/lib/../lib/libkernel32.a(dkzxbs00427.o)
 .idata$4       0x00000000615500e4        0x8 C:/msys64/mingw64/bin/../lib/gcc/x86_64-w64-mingw32/8.2.1/../../../../x86_64-w64-mingw32/lib/../lib/libkernel32.a(dkzxbs00514.o)
 .idata$4       0x00000000615500ec        0x8 C:/msys64/mingw64/bin/../lib/gcc/x86_64-w64-mingw32/8.2.1/../../../../x86_64-w64-mingw32/lib/../lib/libkernel32.a(dkzxbs00535.o)
 .idata$4       0x00000000615500f4        0x8 C:/msys64/mingw64/bin/../lib/gcc/x86_64-w64-mingw32/8.2.1/../../../../x86_64-w64-mingw32/lib/../lib/libkernel32.a(dkzxbs00536.o)
 .idata$4       0x00000000615500fc        0x8 C:/msys64/mingw64/bin/../lib/gcc/x86_64-w64-mingw32/8.2.1/../../../../x86_64-w64-mingw32/lib/../lib/libkernel32.a(dkzxbs00540.o)
 .idata$4       0x0000000061550104        0x8 C:/msys64/mingw64/bin/../lib/gcc/x86_64-w64-mingw32/8.2.1/../../../../x86_64-w64-mingw32/lib/../lib/libkernel32.a(dkzxbs00552.o)
 .idata$4       0x000000006155010c        0x8 C:/msys64/mingw64/bin/../lib/gcc/x86_64-w64-mingw32/8.2.1/../../../../x86_64-w64-mingw32/lib/../lib/libkernel32.a(dkzxbs00555.o)
 .idata$4       0x0000000061550114        0x8 C:/msys64/mingw64/bin/../lib/gcc/x86_64-w64-mingw32/8.2.1/../../../../x86_64-w64-mingw32/lib/../lib/libkernel32.a(dkzxbs00578.o)
 .idata$4       0x000000006155011c        0x8 C:/msys64/mingw64/bin/../lib/gcc/x86_64-w64-mingw32/8.2.1/../../../../x86_64-w64-mingw32/lib/../lib/libkernel32.a(dkzxbs00580.o)
 .idata$4       0x0000000061550124        0x8 C:/msys64/mingw64/bin/../lib/gcc/x86_64-w64-mingw32/8.2.1/../../../../x86_64-w64-mingw32/lib/../lib/libkernel32.a(dkzxbs00583.o)
 .idata$4       0x000000006155012c        0x8 C:/msys64/mingw64/bin/../lib/gcc/x86_64-w64-mingw32/8.2.1/../../../../x86_64-w64-mingw32/lib/../lib/libkernel32.a(dkzxbs00589.o)
 .idata$4       0x0000000061550134        0x8 C:/msys64/mingw64/bin/../lib/gcc/x86_64-w64-mingw32/8.2.1/../../../../x86_64-w64-mingw32/lib/../lib/libkernel32.a(dkzxbs00600.o)
 .idata$4       0x000000006155013c        0x8 C:/msys64/mingw64/bin/../lib/gcc/x86_64-w64-mingw32/8.2.1/../../../../x86_64-w64-mingw32/lib/../lib/libkernel32.a(dkzxbs00603.o)
 .idata$4       0x0000000061550144        0x8 C:/msys64/mingw64/bin/../lib/gcc/x86_64-w64-mingw32/8.2.1/../../../../x86_64-w64-mingw32/lib/../lib/libkernel32.a(dkzxbs00609.o)
 .idata$4       0x000000006155014c        0x8 C:/msys64/mingw64/bin/../lib/gcc/x86_64-w64-mingw32/8.2.1/../../../../x86_64-w64-mingw32/lib/../lib/libkernel32.a(dkzxbs00628.o)
 .idata$4       0x0000000061550154        0x8 C:/msys64/mingw64/bin/../lib/gcc/x86_64-w64-mingw32/8.2.1/../../../../x86_64-w64-mingw32/lib/../lib/libkernel32.a(dkzxbs00629.o)
 .idata$4       0x000000006155015c        0x8 C:/msys64/mingw64/bin/../lib/gcc/x86_64-w64-mingw32/8.2.1/../../../../x86_64-w64-mingw32/lib/../lib/libkernel32.a(dkzxbs00630.o)
 .idata$4       0x0000000061550164        0x8 C:/msys64/mingw64/bin/../lib/gcc/x86_64-w64-mingw32/8.2.1/../../../../x86_64-w64-mingw32/lib/../lib/libkernel32.a(dkzxbs00631.o)
 .idata$4       0x000000006155016c        0x8 C:/msys64/mingw64/bin/../lib/gcc/x86_64-w64-mingw32/8.2.1/../../../../x86_64-w64-mingw32/lib/../lib/libkernel32.a(dkzxbs00689.o)
 .idata$4       0x0000000061550174        0x8 C:/msys64/mingw64/bin/../lib/gcc/x86_64-w64-mingw32/8.2.1/../../../../x86_64-w64-mingw32/lib/../lib/libkernel32.a(dkzxbs00694.o)
 .idata$4       0x000000006155017c        0x8 C:/msys64/mingw64/bin/../lib/gcc/x86_64-w64-mingw32/8.2.1/../../../../x86_64-w64-mingw32/lib/../lib/libkernel32.a(dkzxbs00724.o)
 .idata$4       0x0000000061550184        0x8 C:/msys64/mingw64/bin/../lib/gcc/x86_64-w64-mingw32/8.2.1/../../../../x86_64-w64-mingw32/lib/../lib/libkernel32.a(dkzxbs00740.o)
 .idata$4       0x000000006155018c        0x8 C:/msys64/mingw64/bin/../lib/gcc/x86_64-w64-mingw32/8.2.1/../../../../x86_64-w64-mingw32/lib/../lib/libkernel32.a(dkzxbs00744.o)
 .idata$4       0x0000000061550194        0x8 C:/msys64/mingw64/bin/../lib/gcc/x86_64-w64-mingw32/8.2.1/../../../../x86_64-w64-mingw32/lib/../lib/libkernel32.a(dkzxbs00746.o)
 .idata$4       0x000000006155019c        0x8 C:/msys64/mingw64/bin/../lib/gcc/x86_64-w64-mingw32/8.2.1/../../../../x86_64-w64-mingw32/lib/../lib/libkernel32.a(dkzxbs00758.o)
 .idata$4       0x00000000615501a4        0x8 C:/msys64/mingw64/bin/../lib/gcc/x86_64-w64-mingw32/8.2.1/../../../../x86_64-w64-mingw32/lib/../lib/libkernel32.a(dkzxbs00759.o)
 .idata$4       0x00000000615501ac        0x8 C:/msys64/mingw64/bin/../lib/gcc/x86_64-w64-mingw32/8.2.1/../../../../x86_64-w64-mingw32/lib/../lib/libkernel32.a(dkzxbs00774.o)
 .idata$4       0x00000000615501b4        0x8 C:/msys64/mingw64/bin/../lib/gcc/x86_64-w64-mingw32/8.2.1/../../../../x86_64-w64-mingw32/lib/../lib/libkernel32.a(dkzxbs00781.o)
 .idata$4       0x00000000615501bc        0x8 C:/msys64/mingw64/bin/../lib/gcc/x86_64-w64-mingw32/8.2.1/../../../../x86_64-w64-mingw32/lib/../lib/libkernel32.a(dkzxbs00793.o)
 .idata$4       0x00000000615501c4        0x8 C:/msys64/mingw64/bin/../lib/gcc/x86_64-w64-mingw32/8.2.1/../../../../x86_64-w64-mingw32/lib/../lib/libkernel32.a(dkzxbs00794.o)
 .idata$4       0x00000000615501cc        0x8 C:/msys64/mingw64/bin/../lib/gcc/x86_64-w64-mingw32/8.2.1/../../../../x86_64-w64-mingw32/lib/../lib/libkernel32.a(dkzxbs00835.o)
 .idata$4       0x00000000615501d4        0x8 C:/msys64/mingw64/bin/../lib/gcc/x86_64-w64-mingw32/8.2.1/../../../../x86_64-w64-mingw32/lib/../lib/libkernel32.a(dkzxbs00836.o)
 .idata$4       0x00000000615501dc        0x8 C:/msys64/mingw64/bin/../lib/gcc/x86_64-w64-mingw32/8.2.1/../../../../x86_64-w64-mingw32/lib/../lib/libkernel32.a(dkzxbs00837.o)
 .idata$4       0x00000000615501e4        0x8 C:/msys64/mingw64/bin/../lib/gcc/x86_64-w64-mingw32/8.2.1/../../../../x86_64-w64-mingw32/lib/../lib/libkernel32.a(dkzxbs00839.o)
 .idata$4       0x00000000615501ec        0x8 C:/msys64/mingw64/bin/../lib/gcc/x86_64-w64-mingw32/8.2.1/../../../../x86_64-w64-mingw32/lib/../lib/libkernel32.a(dkzxbs00841.o)
 .idata$4       0x00000000615501f4        0x8 C:/msys64/mingw64/bin/../lib/gcc/x86_64-w64-mingw32/8.2.1/../../../../x86_64-w64-mingw32/lib/../lib/libkernel32.a(dkzxbs00845.o)
 .idata$4       0x00000000615501fc        0x8 C:/msys64/mingw64/bin/../lib/gcc/x86_64-w64-mingw32/8.2.1/../../../../x86_64-w64-mingw32/lib/../lib/libkernel32.a(dkzxbs00847.o)
 .idata$4       0x0000000061550204        0x8 C:/msys64/mingw64/bin/../lib/gcc/x86_64-w64-mingw32/8.2.1/../../../../x86_64-w64-mingw32/lib/../lib/libkernel32.a(dkzxbs00851.o)
 .idata$4       0x000000006155020c        0x8 C:/msys64/mingw64/bin/../lib/gcc/x86_64-w64-mingw32/8.2.1/../../../../x86_64-w64-mingw32/lib/../lib/libkernel32.a(dkzxbs00863.o)
 .idata$4       0x0000000061550214        0x8 C:/msys64/mingw64/bin/../lib/gcc/x86_64-w64-mingw32/8.2.1/../../../../x86_64-w64-mingw32/lib/../lib/libkernel32.a(dkzxbs00951.o)
 .idata$4       0x000000006155021c        0x8 C:/msys64/mingw64/bin/../lib/gcc/x86_64-w64-mingw32/8.2.1/../../../../x86_64-w64-mingw32/lib/../lib/libkernel32.a(dkzxbs00954.o)
 .idata$4       0x0000000061550224        0x8 C:/msys64/mingw64/bin/../lib/gcc/x86_64-w64-mingw32/8.2.1/../../../../x86_64-w64-mingw32/lib/../lib/libkernel32.a(dkzxbs00955.o)
 .idata$4       0x000000006155022c        0x8 C:/msys64/mingw64/bin/../lib/gcc/x86_64-w64-mingw32/8.2.1/../../../../x86_64-w64-mingw32/lib/../lib/libkernel32.a(dkzxbs00957.o)
 .idata$4       0x0000000061550234        0x8 C:/msys64/mingw64/bin/../lib/gcc/x86_64-w64-mingw32/8.2.1/../../../../x86_64-w64-mingw32/lib/../lib/libkernel32.a(dkzxbs00967.o)
 .idata$4       0x000000006155023c        0x8 C:/msys64/mingw64/bin/../lib/gcc/x86_64-w64-mingw32/8.2.1/../../../../x86_64-w64-mingw32/lib/../lib/libkernel32.a(dkzxbs00977.o)
 .idata$4       0x0000000061550244        0x8 C:/msys64/mingw64/bin/../lib/gcc/x86_64-w64-mingw32/8.2.1/../../../../x86_64-w64-mingw32/lib/../lib/libkernel32.a(dkzxbs00978.o)
 .idata$4       0x000000006155024c        0x8 C:/msys64/mingw64/bin/../lib/gcc/x86_64-w64-mingw32/8.2.1/../../../../x86_64-w64-mingw32/lib/../lib/libkernel32.a(dkzxbs00982.o)
 .idata$4       0x0000000061550254        0x8 C:/msys64/mingw64/bin/../lib/gcc/x86_64-w64-mingw32/8.2.1/../../../../x86_64-w64-mingw32/lib/../lib/libkernel32.a(dkzxbs00999.o)
 .idata$4       0x000000006155025c        0x8 C:/msys64/mingw64/bin/../lib/gcc/x86_64-w64-mingw32/8.2.1/../../../../x86_64-w64-mingw32/lib/../lib/libkernel32.a(dkzxbs01041.o)
 .idata$4       0x0000000061550264        0x8 C:/msys64/mingw64/bin/../lib/gcc/x86_64-w64-mingw32/8.2.1/../../../../x86_64-w64-mingw32/lib/../lib/libkernel32.a(dkzxbs01042.o)
 .idata$4       0x000000006155026c        0x8 C:/msys64/mingw64/bin/../lib/gcc/x86_64-w64-mingw32/8.2.1/../../../../x86_64-w64-mingw32/lib/../lib/libkernel32.a(dkzxbs01093.o)
 .idata$4       0x0000000061550274        0x8 C:/msys64/mingw64/bin/../lib/gcc/x86_64-w64-mingw32/8.2.1/../../../../x86_64-w64-mingw32/lib/../lib/libkernel32.a(dkzxbs01112.o)
 .idata$4       0x000000006155027c        0x8 C:/msys64/mingw64/bin/../lib/gcc/x86_64-w64-mingw32/8.2.1/../../../../x86_64-w64-mingw32/lib/../lib/libkernel32.a(dkzxbs01128.o)
 .idata$4       0x0000000061550284        0x8 C:/msys64/mingw64/bin/../lib/gcc/x86_64-w64-mingw32/8.2.1/../../../../x86_64-w64-mingw32/lib/../lib/libkernel32.a(dkzxbs01179.o)
 .idata$4       0x000000006155028c        0x8 C:/msys64/mingw64/bin/../lib/gcc/x86_64-w64-mingw32/8.2.1/../../../../x86_64-w64-mingw32/lib/../lib/libkernel32.a(dkzxbs01180.o)
 .idata$4       0x0000000061550294        0x8 C:/msys64/mingw64/bin/../lib/gcc/x86_64-w64-mingw32/8.2.1/../../../../x86_64-w64-mingw32/lib/../lib/libkernel32.a(dkzxbs01187.o)
 .idata$4       0x000000006155029c        0x8 C:/msys64/mingw64/bin/../lib/gcc/x86_64-w64-mingw32/8.2.1/../../../../x86_64-w64-mingw32/lib/../lib/libkernel32.a(dkzxbs01193.o)
 .idata$4       0x00000000615502a4        0x8 C:/msys64/mingw64/bin/../lib/gcc/x86_64-w64-mingw32/8.2.1/../../../../x86_64-w64-mingw32/lib/../lib/libkernel32.a(dkzxbs01194.o)
 .idata$4       0x00000000615502ac        0x8 C:/msys64/mingw64/bin/../lib/gcc/x86_64-w64-mingw32/8.2.1/../../../../x86_64-w64-mingw32/lib/../lib/libkernel32.a(dkzxbs01243.o)
 .idata$4       0x00000000615502b4        0x8 C:/msys64/mingw64/bin/../lib/gcc/x86_64-w64-mingw32/8.2.1/../../../../x86_64-w64-mingw32/lib/../lib/libkernel32.a(dkzxbs01257.o)
 .idata$4       0x00000000615502bc        0x8 C:/msys64/mingw64/bin/../lib/gcc/x86_64-w64-mingw32/8.2.1/../../../../x86_64-w64-mingw32/lib/../lib/libkernel32.a(dkzxbs01276.o)
 .idata$4       0x00000000615502c4        0x8 C:/msys64/mingw64/bin/../lib/gcc/x86_64-w64-mingw32/8.2.1/../../../../x86_64-w64-mingw32/lib/../lib/libkernel32.a(dkzxbs01290.o)
 .idata$4       0x00000000615502cc        0x8 C:/msys64/mingw64/bin/../lib/gcc/x86_64-w64-mingw32/8.2.1/../../../../x86_64-w64-mingw32/lib/../lib/libkernel32.a(dkzxbs01346.o)
 .idata$4       0x00000000615502d4        0x8 C:/msys64/mingw64/bin/../lib/gcc/x86_64-w64-mingw32/8.2.1/../../../../x86_64-w64-mingw32/lib/../lib/libkernel32.a(dkzxbs01360.o)
 .idata$4       0x00000000615502dc        0x8 C:/msys64/mingw64/bin/../lib/gcc/x86_64-w64-mingw32/8.2.1/../../../../x86_64-w64-mingw32/lib/../lib/libkernel32.a(dkzxbs01371.o)
 .idata$4       0x00000000615502e4        0x8 C:/msys64/mingw64/bin/../lib/gcc/x86_64-w64-mingw32/8.2.1/../../../../x86_64-w64-mingw32/lib/../lib/libkernel32.a(dkzxbs01375.o)
 .idata$4       0x00000000615502ec        0x8 C:/msys64/mingw64/bin/../lib/gcc/x86_64-w64-mingw32/8.2.1/../../../../x86_64-w64-mingw32/lib/../lib/libkernel32.a(dkzxbs01395.o)
 .idata$4       0x00000000615502f4        0x8 C:/msys64/mingw64/bin/../lib/gcc/x86_64-w64-mingw32/8.2.1/../../../../x86_64-w64-mingw32/lib/../lib/libkernel32.a(dkzxbs01402.o)
 .idata$4       0x00000000615502fc        0x8 C:/msys64/mingw64/bin/../lib/gcc/x86_64-w64-mingw32/8.2.1/../../../../x86_64-w64-mingw32/lib/../lib/libkernel32.a(dkzxbs01409.o)
 .idata$4       0x0000000061550304        0x8 C:/msys64/mingw64/bin/../lib/gcc/x86_64-w64-mingw32/8.2.1/../../../../x86_64-w64-mingw32/lib/../lib/libkernel32.a(dkzxbs01410.o)
 .idata$4       0x000000006155030c        0x8 C:/msys64/mingw64/bin/../lib/gcc/x86_64-w64-mingw32/8.2.1/../../../../x86_64-w64-mingw32/lib/../lib/libkernel32.a(dkzxbs01411.o)
 .idata$4       0x0000000061550314        0x8 C:/msys64/mingw64/bin/../lib/gcc/x86_64-w64-mingw32/8.2.1/../../../../x86_64-w64-mingw32/lib/../lib/libkernel32.a(dkzxbs01412.o)
 .idata$4       0x000000006155031c        0x8 C:/msys64/mingw64/bin/../lib/gcc/x86_64-w64-mingw32/8.2.1/../../../../x86_64-w64-mingw32/lib/../lib/libkernel32.a(dkzxbs01436.o)
 .idata$4       0x0000000061550324        0x8 C:/msys64/mingw64/bin/../lib/gcc/x86_64-w64-mingw32/8.2.1/../../../../x86_64-w64-mingw32/lib/../lib/libkernel32.a(dkzxbs01440.o)
 .idata$4       0x000000006155032c        0x8 C:/msys64/mingw64/bin/../lib/gcc/x86_64-w64-mingw32/8.2.1/../../../../x86_64-w64-mingw32/lib/../lib/libkernel32.a(dkzxbs01443.o)
 .idata$4       0x0000000061550334        0x8 C:/msys64/mingw64/bin/../lib/gcc/x86_64-w64-mingw32/8.2.1/../../../../x86_64-w64-mingw32/lib/../lib/libkernel32.a(dkzxbs01445.o)
 .idata$4       0x000000006155033c        0x8 C:/msys64/mingw64/bin/../lib/gcc/x86_64-w64-mingw32/8.2.1/../../../../x86_64-w64-mingw32/lib/../lib/libkernel32.a(dkzxbs01453.o)
 .idata$4       0x0000000061550344        0x8 C:/msys64/mingw64/bin/../lib/gcc/x86_64-w64-mingw32/8.2.1/../../../../x86_64-w64-mingw32/lib/../lib/libkernel32.a(dkzxbs01454.o)
 .idata$4       0x000000006155034c        0x8 C:/msys64/mingw64/bin/../lib/gcc/x86_64-w64-mingw32/8.2.1/../../../../x86_64-w64-mingw32/lib/../lib/libkernel32.a(dkzxbs01490.o)
 .idata$4       0x0000000061550354        0x8 C:/msys64/mingw64/bin/../lib/gcc/x86_64-w64-mingw32/8.2.1/../../../../x86_64-w64-mingw32/lib/../lib/libkernel32.a(dkzxbs01510.o)
 .idata$4       0x000000006155035c        0x8 C:/msys64/mingw64/bin/../lib/gcc/x86_64-w64-mingw32/8.2.1/../../../../x86_64-w64-mingw32/lib/../lib/libkernel32.a(dkzxbt.o)
 .idata$4       0x0000000061550364        0x0 C:/msys64/mingw64/bin/../lib/gcc/x86_64-w64-mingw32/8.2.1/../../../../x86_64-w64-mingw32/lib/../lib/libmsvcrt.a(dieybh.o)
 .idata$4       0x0000000061550364        0x8 C:/msys64/mingw64/bin/../lib/gcc/x86_64-w64-mingw32/8.2.1/../../../../x86_64-w64-mingw32/lib/../lib/libmsvcrt.a(dieybs00058.o)
 .idata$4       0x000000006155036c        0x8 C:/msys64/mingw64/bin/../lib/gcc/x86_64-w64-mingw32/8.2.1/../../../../x86_64-w64-mingw32/lib/../lib/libmsvcrt.a(dieybs00078.o)
 .idata$4       0x0000000061550374        0x8 C:/msys64/mingw64/bin/../lib/gcc/x86_64-w64-mingw32/8.2.1/../../../../x86_64-w64-mingw32/lib/../lib/libmsvcrt.a(dieybs00079.o)
 .idata$4       0x000000006155037c        0x8 C:/msys64/mingw64/bin/../lib/gcc/x86_64-w64-mingw32/8.2.1/../../../../x86_64-w64-mingw32/lib/../lib/libmsvcrt.a(dieybs00083.o)
 .idata$4       0x0000000061550384        0x8 C:/msys64/mingw64/bin/../lib/gcc/x86_64-w64-mingw32/8.2.1/../../../../x86_64-w64-mingw32/lib/../lib/libmsvcrt.a(dieybs00122.o)
 .idata$4       0x000000006155038c        0x8 C:/msys64/mingw64/bin/../lib/gcc/x86_64-w64-mingw32/8.2.1/../../../../x86_64-w64-mingw32/lib/../lib/libmsvcrt.a(dieybs00127.o)
 .idata$4       0x0000000061550394        0x8 C:/msys64/mingw64/bin/../lib/gcc/x86_64-w64-mingw32/8.2.1/../../../../x86_64-w64-mingw32/lib/../lib/libmsvcrt.a(dieybs00142.o)
 .idata$4       0x000000006155039c        0x8 C:/msys64/mingw64/bin/../lib/gcc/x86_64-w64-mingw32/8.2.1/../../../../x86_64-w64-mingw32/lib/../lib/libmsvcrt.a(dieybs00156.o)
 .idata$4       0x00000000615503a4        0x8 C:/msys64/mingw64/bin/../lib/gcc/x86_64-w64-mingw32/8.2.1/../../../../x86_64-w64-mingw32/lib/../lib/libmsvcrt.a(dieybs00162.o)
 .idata$4       0x00000000615503ac        0x8 C:/msys64/mingw64/bin/../lib/gcc/x86_64-w64-mingw32/8.2.1/../../../../x86_64-w64-mingw32/lib/../lib/libmsvcrt.a(dieybs00171.o)
 .idata$4       0x00000000615503b4        0x8 C:/msys64/mingw64/bin/../lib/gcc/x86_64-w64-mingw32/8.2.1/../../../../x86_64-w64-mingw32/lib/../lib/libmsvcrt.a(dieybs00233.o)
 .idata$4       0x00000000615503bc        0x8 C:/msys64/mingw64/bin/../lib/gcc/x86_64-w64-mingw32/8.2.1/../../../../x86_64-w64-mingw32/lib/../lib/libmsvcrt.a(dieybs00237.o)
 .idata$4       0x00000000615503c4        0x8 C:/msys64/mingw64/bin/../lib/gcc/x86_64-w64-mingw32/8.2.1/../../../../x86_64-w64-mingw32/lib/../lib/libmsvcrt.a(dieybs00254.o)
 .idata$4       0x00000000615503cc        0x8 C:/msys64/mingw64/bin/../lib/gcc/x86_64-w64-mingw32/8.2.1/../../../../x86_64-w64-mingw32/lib/../lib/libmsvcrt.a(dieybs00271.o)
 .idata$4       0x00000000615503d4        0x8 C:/msys64/mingw64/bin/../lib/gcc/x86_64-w64-mingw32/8.2.1/../../../../x86_64-w64-mingw32/lib/../lib/libmsvcrt.a(dieybs00273.o)
 .idata$4       0x00000000615503dc        0x8 C:/msys64/mingw64/bin/../lib/gcc/x86_64-w64-mingw32/8.2.1/../../../../x86_64-w64-mingw32/lib/../lib/libmsvcrt.a(dieybs00288.o)
 .idata$4       0x00000000615503e4        0x8 C:/msys64/mingw64/bin/../lib/gcc/x86_64-w64-mingw32/8.2.1/../../../../x86_64-w64-mingw32/lib/../lib/libmsvcrt.a(dieybs00353.o)
 .idata$4       0x00000000615503ec        0x8 C:/msys64/mingw64/bin/../lib/gcc/x86_64-w64-mingw32/8.2.1/../../../../x86_64-w64-mingw32/lib/../lib/libmsvcrt.a(dieybs00369.o)
 .idata$4       0x00000000615503f4        0x8 C:/msys64/mingw64/bin/../lib/gcc/x86_64-w64-mingw32/8.2.1/../../../../x86_64-w64-mingw32/lib/../lib/libmsvcrt.a(dieybs00373.o)
 .idata$4       0x00000000615503fc        0x8 C:/msys64/mingw64/bin/../lib/gcc/x86_64-w64-mingw32/8.2.1/../../../../x86_64-w64-mingw32/lib/../lib/libmsvcrt.a(dieybs00478.o)
 .idata$4       0x0000000061550404        0x8 C:/msys64/mingw64/bin/../lib/gcc/x86_64-w64-mingw32/8.2.1/../../../../x86_64-w64-mingw32/lib/../lib/libmsvcrt.a(dieybs00479.o)
 .idata$4       0x000000006155040c        0x8 C:/msys64/mingw64/bin/../lib/gcc/x86_64-w64-mingw32/8.2.1/../../../../x86_64-w64-mingw32/lib/../lib/libmsvcrt.a(dieybs00489.o)
 .idata$4       0x0000000061550414        0x8 C:/msys64/mingw64/bin/../lib/gcc/x86_64-w64-mingw32/8.2.1/../../../../x86_64-w64-mingw32/lib/../lib/libmsvcrt.a(dieybs00646.o)
 .idata$4       0x000000006155041c        0x8 C:/msys64/mingw64/bin/../lib/gcc/x86_64-w64-mingw32/8.2.1/../../../../x86_64-w64-mingw32/lib/../lib/libmsvcrt.a(dieybs00651.o)
 .idata$4       0x0000000061550424        0x8 C:/msys64/mingw64/bin/../lib/gcc/x86_64-w64-mingw32/8.2.1/../../../../x86_64-w64-mingw32/lib/../lib/libmsvcrt.a(dieybs00659.o)
 .idata$4       0x000000006155042c        0x8 C:/msys64/mingw64/bin/../lib/gcc/x86_64-w64-mingw32/8.2.1/../../../../x86_64-w64-mingw32/lib/../lib/libmsvcrt.a(dieybs00663.o)
 .idata$4       0x0000000061550434        0x8 C:/msys64/mingw64/bin/../lib/gcc/x86_64-w64-mingw32/8.2.1/../../../../x86_64-w64-mingw32/lib/../lib/libmsvcrt.a(dieybs00714.o)
 .idata$4       0x000000006155043c        0x8 C:/msys64/mingw64/bin/../lib/gcc/x86_64-w64-mingw32/8.2.1/../../../../x86_64-w64-mingw32/lib/../lib/libmsvcrt.a(dieybs00728.o)
 .idata$4       0x0000000061550444        0x8 C:/msys64/mingw64/bin/../lib/gcc/x86_64-w64-mingw32/8.2.1/../../../../x86_64-w64-mingw32/lib/../lib/libmsvcrt.a(dieybs00789.o)
 .idata$4       0x000000006155044c        0x8 C:/msys64/mingw64/bin/../lib/gcc/x86_64-w64-mingw32/8.2.1/../../../../x86_64-w64-mingw32/lib/../lib/libmsvcrt.a(dieybs00834.o)
 .idata$4       0x0000000061550454        0x8 C:/msys64/mingw64/bin/../lib/gcc/x86_64-w64-mingw32/8.2.1/../../../../x86_64-w64-mingw32/lib/../lib/libmsvcrt.a(dieybs00863.o)
 .idata$4       0x000000006155045c        0x8 C:/msys64/mingw64/bin/../lib/gcc/x86_64-w64-mingw32/8.2.1/../../../../x86_64-w64-mingw32/lib/../lib/libmsvcrt.a(dieybs00895.o)
 .idata$4       0x0000000061550464        0x8 C:/msys64/mingw64/bin/../lib/gcc/x86_64-w64-mingw32/8.2.1/../../../../x86_64-w64-mingw32/lib/../lib/libmsvcrt.a(dieybs01031.o)
 .idata$4       0x000000006155046c        0x8 C:/msys64/mingw64/bin/../lib/gcc/x86_64-w64-mingw32/8.2.1/../../../../x86_64-w64-mingw32/lib/../lib/libmsvcrt.a(dieybs01077.o)
 .idata$4       0x0000000061550474        0x8 C:/msys64/mingw64/bin/../lib/gcc/x86_64-w64-mingw32/8.2.1/../../../../x86_64-w64-mingw32/lib/../lib/libmsvcrt.a(dieybs01079.o)
 .idata$4       0x000000006155047c        0x8 C:/msys64/mingw64/bin/../lib/gcc/x86_64-w64-mingw32/8.2.1/../../../../x86_64-w64-mingw32/lib/../lib/libmsvcrt.a(dieybs01082.o)
 .idata$4       0x0000000061550484        0x8 C:/msys64/mingw64/bin/../lib/gcc/x86_64-w64-mingw32/8.2.1/../../../../x86_64-w64-mingw32/lib/../lib/libmsvcrt.a(dieybs01084.o)
 .idata$4       0x000000006155048c        0x8 C:/msys64/mingw64/bin/../lib/gcc/x86_64-w64-mingw32/8.2.1/../../../../x86_64-w64-mingw32/lib/../lib/libmsvcrt.a(dieybs01090.o)
 .idata$4       0x0000000061550494        0x8 C:/msys64/mingw64/bin/../lib/gcc/x86_64-w64-mingw32/8.2.1/../../../../x86_64-w64-mingw32/lib/../lib/libmsvcrt.a(dieybs01094.o)
 .idata$4       0x000000006155049c        0x8 C:/msys64/mingw64/bin/../lib/gcc/x86_64-w64-mingw32/8.2.1/../../../../x86_64-w64-mingw32/lib/../lib/libmsvcrt.a(dieybs01097.o)
 .idata$4       0x00000000615504a4        0x8 C:/msys64/mingw64/bin/../lib/gcc/x86_64-w64-mingw32/8.2.1/../../../../x86_64-w64-mingw32/lib/../lib/libmsvcrt.a(dieybs01099.o)
 .idata$4       0x00000000615504ac        0x8 C:/msys64/mingw64/bin/../lib/gcc/x86_64-w64-mingw32/8.2.1/../../../../x86_64-w64-mingw32/lib/../lib/libmsvcrt.a(dieybs01102.o)
 .idata$4       0x00000000615504b4        0x8 C:/msys64/mingw64/bin/../lib/gcc/x86_64-w64-mingw32/8.2.1/../../../../x86_64-w64-mingw32/lib/../lib/libmsvcrt.a(dieybs01107.o)
 .idata$4       0x00000000615504bc        0x8 C:/msys64/mingw64/bin/../lib/gcc/x86_64-w64-mingw32/8.2.1/../../../../x86_64-w64-mingw32/lib/../lib/libmsvcrt.a(dieybs01111.o)
 .idata$4       0x00000000615504c4        0x8 C:/msys64/mingw64/bin/../lib/gcc/x86_64-w64-mingw32/8.2.1/../../../../x86_64-w64-mingw32/lib/../lib/libmsvcrt.a(dieybs01112.o)
 .idata$4       0x00000000615504cc        0x8 C:/msys64/mingw64/bin/../lib/gcc/x86_64-w64-mingw32/8.2.1/../../../../x86_64-w64-mingw32/lib/../lib/libmsvcrt.a(dieybs01113.o)
 .idata$4       0x00000000615504d4        0x8 C:/msys64/mingw64/bin/../lib/gcc/x86_64-w64-mingw32/8.2.1/../../../../x86_64-w64-mingw32/lib/../lib/libmsvcrt.a(dieybs01114.o)
 .idata$4       0x00000000615504dc        0x8 C:/msys64/mingw64/bin/../lib/gcc/x86_64-w64-mingw32/8.2.1/../../../../x86_64-w64-mingw32/lib/../lib/libmsvcrt.a(dieybs01115.o)
 .idata$4       0x00000000615504e4        0x8 C:/msys64/mingw64/bin/../lib/gcc/x86_64-w64-mingw32/8.2.1/../../../../x86_64-w64-mingw32/lib/../lib/libmsvcrt.a(dieybs01116.o)
 .idata$4       0x00000000615504ec        0x8 C:/msys64/mingw64/bin/../lib/gcc/x86_64-w64-mingw32/8.2.1/../../../../x86_64-w64-mingw32/lib/../lib/libmsvcrt.a(dieybs01117.o)
 .idata$4       0x00000000615504f4        0x8 C:/msys64/mingw64/bin/../lib/gcc/x86_64-w64-mingw32/8.2.1/../../../../x86_64-w64-mingw32/lib/../lib/libmsvcrt.a(dieybs01124.o)
 .idata$4       0x00000000615504fc        0x8 C:/msys64/mingw64/bin/../lib/gcc/x86_64-w64-mingw32/8.2.1/../../../../x86_64-w64-mingw32/lib/../lib/libmsvcrt.a(dieybs01126.o)
 .idata$4       0x0000000061550504        0x8 C:/msys64/mingw64/bin/../lib/gcc/x86_64-w64-mingw32/8.2.1/../../../../x86_64-w64-mingw32/lib/../lib/libmsvcrt.a(dieybs01128.o)
 .idata$4       0x000000006155050c        0x8 C:/msys64/mingw64/bin/../lib/gcc/x86_64-w64-mingw32/8.2.1/../../../../x86_64-w64-mingw32/lib/../lib/libmsvcrt.a(dieybs01129.o)
 .idata$4       0x0000000061550514        0x8 C:/msys64/mingw64/bin/../lib/gcc/x86_64-w64-mingw32/8.2.1/../../../../x86_64-w64-mingw32/lib/../lib/libmsvcrt.a(dieybs01132.o)
 .idata$4       0x000000006155051c        0x8 C:/msys64/mingw64/bin/../lib/gcc/x86_64-w64-mingw32/8.2.1/../../../../x86_64-w64-mingw32/lib/../lib/libmsvcrt.a(dieybs01133.o)
 .idata$4       0x0000000061550524        0x8 C:/msys64/mingw64/bin/../lib/gcc/x86_64-w64-mingw32/8.2.1/../../../../x86_64-w64-mingw32/lib/../lib/libmsvcrt.a(dieybs01136.o)
 .idata$4       0x000000006155052c        0x8 C:/msys64/mingw64/bin/../lib/gcc/x86_64-w64-mingw32/8.2.1/../../../../x86_64-w64-mingw32/lib/../lib/libmsvcrt.a(dieybs01137.o)
 .idata$4       0x0000000061550534        0x8 C:/msys64/mingw64/bin/../lib/gcc/x86_64-w64-mingw32/8.2.1/../../../../x86_64-w64-mingw32/lib/../lib/libmsvcrt.a(dieybs01140.o)
 .idata$4       0x000000006155053c        0x8 C:/msys64/mingw64/bin/../lib/gcc/x86_64-w64-mingw32/8.2.1/../../../../x86_64-w64-mingw32/lib/../lib/libmsvcrt.a(dieybs01141.o)
 .idata$4       0x0000000061550544        0x8 C:/msys64/mingw64/bin/../lib/gcc/x86_64-w64-mingw32/8.2.1/../../../../x86_64-w64-mingw32/lib/../lib/libmsvcrt.a(dieybs01142.o)
 .idata$4       0x000000006155054c        0x8 C:/msys64/mingw64/bin/../lib/gcc/x86_64-w64-mingw32/8.2.1/../../../../x86_64-w64-mingw32/lib/../lib/libmsvcrt.a(dieybs01143.o)
 .idata$4       0x0000000061550554        0x8 C:/msys64/mingw64/bin/../lib/gcc/x86_64-w64-mingw32/8.2.1/../../../../x86_64-w64-mingw32/lib/../lib/libmsvcrt.a(dieybs01145.o)
 .idata$4       0x000000006155055c        0x8 C:/msys64/mingw64/bin/../lib/gcc/x86_64-w64-mingw32/8.2.1/../../../../x86_64-w64-mingw32/lib/../lib/libmsvcrt.a(dieybs01148.o)
 .idata$4       0x0000000061550564        0x8 C:/msys64/mingw64/bin/../lib/gcc/x86_64-w64-mingw32/8.2.1/../../../../x86_64-w64-mingw32/lib/../lib/libmsvcrt.a(dieybs01150.o)
 .idata$4       0x000000006155056c        0x8 C:/msys64/mingw64/bin/../lib/gcc/x86_64-w64-mingw32/8.2.1/../../../../x86_64-w64-mingw32/lib/../lib/libmsvcrt.a(dieybs01158.o)
 .idata$4       0x0000000061550574        0x8 C:/msys64/mingw64/bin/../lib/gcc/x86_64-w64-mingw32/8.2.1/../../../../x86_64-w64-mingw32/lib/../lib/libmsvcrt.a(dieybs01159.o)
 .idata$4       0x000000006155057c        0x8 C:/msys64/mingw64/bin/../lib/gcc/x86_64-w64-mingw32/8.2.1/../../../../x86_64-w64-mingw32/lib/../lib/libmsvcrt.a(dieybs01160.o)
 .idata$4       0x0000000061550584        0x8 C:/msys64/mingw64/bin/../lib/gcc/x86_64-w64-mingw32/8.2.1/../../../../x86_64-w64-mingw32/lib/../lib/libmsvcrt.a(dieybs01161.o)
 .idata$4       0x000000006155058c        0x8 C:/msys64/mingw64/bin/../lib/gcc/x86_64-w64-mingw32/8.2.1/../../../../x86_64-w64-mingw32/lib/../lib/libmsvcrt.a(dieybs01162.o)
 .idata$4       0x0000000061550594        0x8 C:/msys64/mingw64/bin/../lib/gcc/x86_64-w64-mingw32/8.2.1/../../../../x86_64-w64-mingw32/lib/../lib/libmsvcrt.a(dieybs01164.o)
 .idata$4       0x000000006155059c        0x8 C:/msys64/mingw64/bin/../lib/gcc/x86_64-w64-mingw32/8.2.1/../../../../x86_64-w64-mingw32/lib/../lib/libmsvcrt.a(dieybs01165.o)
 .idata$4       0x00000000615505a4        0x8 C:/msys64/mingw64/bin/../lib/gcc/x86_64-w64-mingw32/8.2.1/../../../../x86_64-w64-mingw32/lib/../lib/libmsvcrt.a(dieybs01166.o)
 .idata$4       0x00000000615505ac        0x8 C:/msys64/mingw64/bin/../lib/gcc/x86_64-w64-mingw32/8.2.1/../../../../x86_64-w64-mingw32/lib/../lib/libmsvcrt.a(dieybs01167.o)
 .idata$4       0x00000000615505b4        0x8 C:/msys64/mingw64/bin/../lib/gcc/x86_64-w64-mingw32/8.2.1/../../../../x86_64-w64-mingw32/lib/../lib/libmsvcrt.a(dieybs01168.o)
 .idata$4       0x00000000615505bc        0x8 C:/msys64/mingw64/bin/../lib/gcc/x86_64-w64-mingw32/8.2.1/../../../../x86_64-w64-mingw32/lib/../lib/libmsvcrt.a(dieybs01182.o)
 .idata$4       0x00000000615505c4        0x8 C:/msys64/mingw64/bin/../lib/gcc/x86_64-w64-mingw32/8.2.1/../../../../x86_64-w64-mingw32/lib/../lib/libmsvcrt.a(dieybs01186.o)
 .idata$4       0x00000000615505cc        0x8 C:/msys64/mingw64/bin/../lib/gcc/x86_64-w64-mingw32/8.2.1/../../../../x86_64-w64-mingw32/lib/../lib/libmsvcrt.a(dieybs01187.o)
 .idata$4       0x00000000615505d4        0x8 C:/msys64/mingw64/bin/../lib/gcc/x86_64-w64-mingw32/8.2.1/../../../../x86_64-w64-mingw32/lib/../lib/libmsvcrt.a(dieybs01189.o)
 .idata$4       0x00000000615505dc        0x8 C:/msys64/mingw64/bin/../lib/gcc/x86_64-w64-mingw32/8.2.1/../../../../x86_64-w64-mingw32/lib/../lib/libmsvcrt.a(dieybs01193.o)
 .idata$4       0x00000000615505e4        0x8 C:/msys64/mingw64/bin/../lib/gcc/x86_64-w64-mingw32/8.2.1/../../../../x86_64-w64-mingw32/lib/../lib/libmsvcrt.a(dieybs01200.o)
 .idata$4       0x00000000615505ec        0x8 C:/msys64/mingw64/bin/../lib/gcc/x86_64-w64-mingw32/8.2.1/../../../../x86_64-w64-mingw32/lib/../lib/libmsvcrt.a(dieybs01201.o)
 .idata$4       0x00000000615505f4        0x8 C:/msys64/mingw64/bin/../lib/gcc/x86_64-w64-mingw32/8.2.1/../../../../x86_64-w64-mingw32/lib/../lib/libmsvcrt.a(dieybs01202.o)
 .idata$4       0x00000000615505fc        0x8 C:/msys64/mingw64/bin/../lib/gcc/x86_64-w64-mingw32/8.2.1/../../../../x86_64-w64-mingw32/lib/../lib/libmsvcrt.a(dieybs01203.o)
 .idata$4       0x0000000061550604        0x8 C:/msys64/mingw64/bin/../lib/gcc/x86_64-w64-mingw32/8.2.1/../../../../x86_64-w64-mingw32/lib/../lib/libmsvcrt.a(dieybs01204.o)
 .idata$4       0x000000006155060c        0x8 C:/msys64/mingw64/bin/../lib/gcc/x86_64-w64-mingw32/8.2.1/../../../../x86_64-w64-mingw32/lib/../lib/libmsvcrt.a(dieybs01211.o)
 .idata$4       0x0000000061550614        0x8 C:/msys64/mingw64/bin/../lib/gcc/x86_64-w64-mingw32/8.2.1/../../../../x86_64-w64-mingw32/lib/../lib/libmsvcrt.a(dieybs01213.o)
 .idata$4       0x000000006155061c        0x8 C:/msys64/mingw64/bin/../lib/gcc/x86_64-w64-mingw32/8.2.1/../../../../x86_64-w64-mingw32/lib/../lib/libmsvcrt.a(dieybs01214.o)
 .idata$4       0x0000000061550624        0x8 C:/msys64/mingw64/bin/../lib/gcc/x86_64-w64-mingw32/8.2.1/../../../../x86_64-w64-mingw32/lib/../lib/libmsvcrt.a(dieybs01215.o)
 .idata$4       0x000000006155062c        0x8 C:/msys64/mingw64/bin/../lib/gcc/x86_64-w64-mingw32/8.2.1/../../../../x86_64-w64-mingw32/lib/../lib/libmsvcrt.a(dieybs01218.o)
 .idata$4       0x0000000061550634        0x8 C:/msys64/mingw64/bin/../lib/gcc/x86_64-w64-mingw32/8.2.1/../../../../x86_64-w64-mingw32/lib/../lib/libmsvcrt.a(dieybs01220.o)
 .idata$4       0x000000006155063c        0x8 C:/msys64/mingw64/bin/../lib/gcc/x86_64-w64-mingw32/8.2.1/../../../../x86_64-w64-mingw32/lib/../lib/libmsvcrt.a(dieybs01222.o)
 .idata$4       0x0000000061550644        0x8 C:/msys64/mingw64/bin/../lib/gcc/x86_64-w64-mingw32/8.2.1/../../../../x86_64-w64-mingw32/lib/../lib/libmsvcrt.a(dieybs01223.o)
 .idata$4       0x000000006155064c        0x8 C:/msys64/mingw64/bin/../lib/gcc/x86_64-w64-mingw32/8.2.1/../../../../x86_64-w64-mingw32/lib/../lib/libmsvcrt.a(dieybs01224.o)
 .idata$4       0x0000000061550654        0x8 C:/msys64/mingw64/bin/../lib/gcc/x86_64-w64-mingw32/8.2.1/../../../../x86_64-w64-mingw32/lib/../lib/libmsvcrt.a(dieybs01225.o)
 .idata$4       0x000000006155065c        0x8 C:/msys64/mingw64/bin/../lib/gcc/x86_64-w64-mingw32/8.2.1/../../../../x86_64-w64-mingw32/lib/../lib/libmsvcrt.a(dieybs01230.o)
 .idata$4       0x0000000061550664        0x8 C:/msys64/mingw64/bin/../lib/gcc/x86_64-w64-mingw32/8.2.1/../../../../x86_64-w64-mingw32/lib/../lib/libmsvcrt.a(dieybs01231.o)
 .idata$4       0x000000006155066c        0x8 C:/msys64/mingw64/bin/../lib/gcc/x86_64-w64-mingw32/8.2.1/../../../../x86_64-w64-mingw32/lib/../lib/libmsvcrt.a(dieybs01232.o)
 .idata$4       0x0000000061550674        0x8 C:/msys64/mingw64/bin/../lib/gcc/x86_64-w64-mingw32/8.2.1/../../../../x86_64-w64-mingw32/lib/../lib/libmsvcrt.a(dieybs01235.o)
 .idata$4       0x000000006155067c        0x8 C:/msys64/mingw64/bin/../lib/gcc/x86_64-w64-mingw32/8.2.1/../../../../x86_64-w64-mingw32/lib/../lib/libmsvcrt.a(dieybs01237.o)
 .idata$4       0x0000000061550684        0x8 C:/msys64/mingw64/bin/../lib/gcc/x86_64-w64-mingw32/8.2.1/../../../../x86_64-w64-mingw32/lib/../lib/libmsvcrt.a(dieybs01241.o)
 .idata$4       0x000000006155068c        0x8 C:/msys64/mingw64/bin/../lib/gcc/x86_64-w64-mingw32/8.2.1/../../../../x86_64-w64-mingw32/lib/../lib/libmsvcrt.a(dieybs01245.o)
 .idata$4       0x0000000061550694        0x8 C:/msys64/mingw64/bin/../lib/gcc/x86_64-w64-mingw32/8.2.1/../../../../x86_64-w64-mingw32/lib/../lib/libmsvcrt.a(dieybs01246.o)
 .idata$4       0x000000006155069c        0x8 C:/msys64/mingw64/bin/../lib/gcc/x86_64-w64-mingw32/8.2.1/../../../../x86_64-w64-mingw32/lib/../lib/libmsvcrt.a(dieybs01248.o)
 .idata$4       0x00000000615506a4        0x8 C:/msys64/mingw64/bin/../lib/gcc/x86_64-w64-mingw32/8.2.1/../../../../x86_64-w64-mingw32/lib/../lib/libmsvcrt.a(dieybs01251.o)
 .idata$4       0x00000000615506ac        0x8 C:/msys64/mingw64/bin/../lib/gcc/x86_64-w64-mingw32/8.2.1/../../../../x86_64-w64-mingw32/lib/../lib/libmsvcrt.a(dieybs01253.o)
 .idata$4       0x00000000615506b4        0x8 C:/msys64/mingw64/bin/../lib/gcc/x86_64-w64-mingw32/8.2.1/../../../../x86_64-w64-mingw32/lib/../lib/libmsvcrt.a(dieybs01254.o)
 .idata$4       0x00000000615506bc        0x8 C:/msys64/mingw64/bin/../lib/gcc/x86_64-w64-mingw32/8.2.1/../../../../x86_64-w64-mingw32/lib/../lib/libmsvcrt.a(dieybs01257.o)
 .idata$4       0x00000000615506c4        0x8 C:/msys64/mingw64/bin/../lib/gcc/x86_64-w64-mingw32/8.2.1/../../../../x86_64-w64-mingw32/lib/../lib/libmsvcrt.a(dieybs01258.o)
 .idata$4       0x00000000615506cc        0x8 C:/msys64/mingw64/bin/../lib/gcc/x86_64-w64-mingw32/8.2.1/../../../../x86_64-w64-mingw32/lib/../lib/libmsvcrt.a(dieybs01261.o)
 .idata$4       0x00000000615506d4        0x8 C:/msys64/mingw64/bin/../lib/gcc/x86_64-w64-mingw32/8.2.1/../../../../x86_64-w64-mingw32/lib/../lib/libmsvcrt.a(dieybs01263.o)
 .idata$4       0x00000000615506dc        0x8 C:/msys64/mingw64/bin/../lib/gcc/x86_64-w64-mingw32/8.2.1/../../../../x86_64-w64-mingw32/lib/../lib/libmsvcrt.a(dieybs01267.o)
 .idata$4       0x00000000615506e4        0x8 C:/msys64/mingw64/bin/../lib/gcc/x86_64-w64-mingw32/8.2.1/../../../../x86_64-w64-mingw32/lib/../lib/libmsvcrt.a(dieybs01268.o)
 .idata$4       0x00000000615506ec        0x8 C:/msys64/mingw64/bin/../lib/gcc/x86_64-w64-mingw32/8.2.1/../../../../x86_64-w64-mingw32/lib/../lib/libmsvcrt.a(dieybs01274.o)
 .idata$4       0x00000000615506f4        0x8 C:/msys64/mingw64/bin/../lib/gcc/x86_64-w64-mingw32/8.2.1/../../../../x86_64-w64-mingw32/lib/../lib/libmsvcrt.a(dieybs01275.o)
 .idata$4       0x00000000615506fc        0x8 C:/msys64/mingw64/bin/../lib/gcc/x86_64-w64-mingw32/8.2.1/../../../../x86_64-w64-mingw32/lib/../lib/libmsvcrt.a(dieybs01277.o)
 .idata$4       0x0000000061550704        0x8 C:/msys64/mingw64/bin/../lib/gcc/x86_64-w64-mingw32/8.2.1/../../../../x86_64-w64-mingw32/lib/../lib/libmsvcrt.a(dieybs01278.o)
 .idata$4       0x000000006155070c        0x8 C:/msys64/mingw64/bin/../lib/gcc/x86_64-w64-mingw32/8.2.1/../../../../x86_64-w64-mingw32/lib/../lib/libmsvcrt.a(dieybs01280.o)
 .idata$4       0x0000000061550714        0x8 C:/msys64/mingw64/bin/../lib/gcc/x86_64-w64-mingw32/8.2.1/../../../../x86_64-w64-mingw32/lib/../lib/libmsvcrt.a(dieybs01282.o)
 .idata$4       0x000000006155071c        0x8 C:/msys64/mingw64/bin/../lib/gcc/x86_64-w64-mingw32/8.2.1/../../../../x86_64-w64-mingw32/lib/../lib/libmsvcrt.a(dieybs01286.o)
 .idata$4       0x0000000061550724        0x8 C:/msys64/mingw64/bin/../lib/gcc/x86_64-w64-mingw32/8.2.1/../../../../x86_64-w64-mingw32/lib/../lib/libmsvcrt.a(dieybs01288.o)
 .idata$4       0x000000006155072c        0x8 C:/msys64/mingw64/bin/../lib/gcc/x86_64-w64-mingw32/8.2.1/../../../../x86_64-w64-mingw32/lib/../lib/libmsvcrt.a(dieybs01305.o)
 .idata$4       0x0000000061550734        0x8 C:/msys64/mingw64/bin/../lib/gcc/x86_64-w64-mingw32/8.2.1/../../../../x86_64-w64-mingw32/lib/../lib/libmsvcrt.a(dieybs01325.o)
 .idata$4       0x000000006155073c        0x8 C:/msys64/mingw64/bin/../lib/gcc/x86_64-w64-mingw32/8.2.1/../../../../x86_64-w64-mingw32/lib/../lib/libmsvcrt.a(dieybt.o)
 .idata$4       0x0000000061550744        0x0 C:/msys64/mingw64/bin/../lib/gcc/x86_64-w64-mingw32/8.2.1/../../../../x86_64-w64-mingw32/lib/../lib/libuser32.a(dyotbh.o)
 .idata$4       0x0000000061550744        0x8 C:/msys64/mingw64/bin/../lib/gcc/x86_64-w64-mingw32/8.2.1/../../../../x86_64-w64-mingw32/lib/../lib/libuser32.a(dyotbs00619.o)
 .idata$4       0x000000006155074c        0x8 C:/msys64/mingw64/bin/../lib/gcc/x86_64-w64-mingw32/8.2.1/../../../../x86_64-w64-mingw32/lib/../lib/libuser32.a(dyotbt.o)
 .idata$4       0x0000000061550754        0x0 C:/msys64/mingw64/bin/../lib/gcc/x86_64-w64-mingw32/8.2.1/../../../../x86_64-w64-mingw32/lib/../lib/libws2_32.a(dmgsh.o)
 .idata$4       0x0000000061550754        0x8 C:/msys64/mingw64/bin/../lib/gcc/x86_64-w64-mingw32/8.2.1/../../../../x86_64-w64-mingw32/lib/../lib/libws2_32.a(dmgss00030.o)
 .idata$4       0x000000006155075c        0x8 C:/msys64/mingw64/bin/../lib/gcc/x86_64-w64-mingw32/8.2.1/../../../../x86_64-w64-mingw32/lib/../lib/libws2_32.a(dmgss00047.o)
 .idata$4       0x0000000061550764        0x8 C:/msys64/mingw64/bin/../lib/gcc/x86_64-w64-mingw32/8.2.1/../../../../x86_64-w64-mingw32/lib/../lib/libws2_32.a(dmgss00088.o)
 .idata$4       0x000000006155076c        0x8 C:/msys64/mingw64/bin/../lib/gcc/x86_64-w64-mingw32/8.2.1/../../../../x86_64-w64-mingw32/lib/../lib/libws2_32.a(dmgss00160.o)
 .idata$4       0x0000000061550774        0x8 C:/msys64/mingw64/bin/../lib/gcc/x86_64-w64-mingw32/8.2.1/../../../../x86_64-w64-mingw32/lib/../lib/libws2_32.a(dmgss00161.o)
 .idata$4       0x000000006155077c        0x8 C:/msys64/mingw64/bin/../lib/gcc/x86_64-w64-mingw32/8.2.1/../../../../x86_64-w64-mingw32/lib/../lib/libws2_32.a(dmgss00162.o)
 .idata$4       0x0000000061550784        0x8 C:/msys64/mingw64/bin/../lib/gcc/x86_64-w64-mingw32/8.2.1/../../../../x86_64-w64-mingw32/lib/../lib/libws2_32.a(dmgss00163.o)
 .idata$4       0x000000006155078c        0x8 C:/msys64/mingw64/bin/../lib/gcc/x86_64-w64-mingw32/8.2.1/../../../../x86_64-w64-mingw32/lib/../lib/libws2_32.a(dmgss00164.o)
 .idata$4       0x0000000061550794        0x8 C:/msys64/mingw64/bin/../lib/gcc/x86_64-w64-mingw32/8.2.1/../../../../x86_64-w64-mingw32/lib/../lib/libws2_32.a(dmgss00165.o)
 .idata$4       0x000000006155079c        0x8 C:/msys64/mingw64/bin/../lib/gcc/x86_64-w64-mingw32/8.2.1/../../../../x86_64-w64-mingw32/lib/../lib/libws2_32.a(dmgss00166.o)
 .idata$4       0x00000000615507a4        0x8 C:/msys64/mingw64/bin/../lib/gcc/x86_64-w64-mingw32/8.2.1/../../../../x86_64-w64-mingw32/lib/../lib/libws2_32.a(dmgss00167.o)
 .idata$4       0x00000000615507ac        0x8 C:/msys64/mingw64/bin/../lib/gcc/x86_64-w64-mingw32/8.2.1/../../../../x86_64-w64-mingw32/lib/../lib/libws2_32.a(dmgss00168.o)
 .idata$4       0x00000000615507b4        0x8 C:/msys64/mingw64/bin/../lib/gcc/x86_64-w64-mingw32/8.2.1/../../../../x86_64-w64-mingw32/lib/../lib/libws2_32.a(dmgss00169.o)
 .idata$4       0x00000000615507bc        0x8 C:/msys64/mingw64/bin/../lib/gcc/x86_64-w64-mingw32/8.2.1/../../../../x86_64-w64-mingw32/lib/../lib/libws2_32.a(dmgss00170.o)
 .idata$4       0x00000000615507c4        0x8 C:/msys64/mingw64/bin/../lib/gcc/x86_64-w64-mingw32/8.2.1/../../../../x86_64-w64-mingw32/lib/../lib/libws2_32.a(dmgss00171.o)
 .idata$4       0x00000000615507cc        0x8 C:/msys64/mingw64/bin/../lib/gcc/x86_64-w64-mingw32/8.2.1/../../../../x86_64-w64-mingw32/lib/../lib/libws2_32.a(dmgss00176.o)
 .idata$4       0x00000000615507d4        0x8 C:/msys64/mingw64/bin/../lib/gcc/x86_64-w64-mingw32/8.2.1/../../../../x86_64-w64-mingw32/lib/../lib/libws2_32.a(dmgss00177.o)
 .idata$4       0x00000000615507dc        0x8 C:/msys64/mingw64/bin/../lib/gcc/x86_64-w64-mingw32/8.2.1/../../../../x86_64-w64-mingw32/lib/../lib/libws2_32.a(dmgss00178.o)
 .idata$4       0x00000000615507e4        0x8 C:/msys64/mingw64/bin/../lib/gcc/x86_64-w64-mingw32/8.2.1/../../../../x86_64-w64-mingw32/lib/../lib/libws2_32.a(dmgss00181.o)
 .idata$4       0x00000000615507ec        0x8 C:/msys64/mingw64/bin/../lib/gcc/x86_64-w64-mingw32/8.2.1/../../../../x86_64-w64-mingw32/lib/../lib/libws2_32.a(dmgss00184.o)
 .idata$4       0x00000000615507f4        0x8 C:/msys64/mingw64/bin/../lib/gcc/x86_64-w64-mingw32/8.2.1/../../../../x86_64-w64-mingw32/lib/../lib/libws2_32.a(dmgss00185.o)
 .idata$4       0x00000000615507fc        0x8 C:/msys64/mingw64/bin/../lib/gcc/x86_64-w64-mingw32/8.2.1/../../../../x86_64-w64-mingw32/lib/../lib/libws2_32.a(dmgss00188.o)
 .idata$4       0x0000000061550804        0x8 C:/msys64/mingw64/bin/../lib/gcc/x86_64-w64-mingw32/8.2.1/../../../../x86_64-w64-mingw32/lib/../lib/libws2_32.a(dmgss00189.o)
 .idata$4       0x000000006155080c        0x8 C:/msys64/mingw64/bin/../lib/gcc/x86_64-w64-mingw32/8.2.1/../../../../x86_64-w64-mingw32/lib/../lib/libws2_32.a(dmgss00190.o)
 .idata$4       0x0000000061550814        0x8 C:/msys64/mingw64/bin/../lib/gcc/x86_64-w64-mingw32/8.2.1/../../../../x86_64-w64-mingw32/lib/../lib/libws2_32.a(dmgss00191.o)
 .idata$4       0x000000006155081c        0x8 C:/msys64/mingw64/bin/../lib/gcc/x86_64-w64-mingw32/8.2.1/../../../../x86_64-w64-mingw32/lib/../lib/libws2_32.a(dmgss00192.o)
 .idata$4       0x0000000061550824        0x8 C:/msys64/mingw64/bin/../lib/gcc/x86_64-w64-mingw32/8.2.1/../../../../x86_64-w64-mingw32/lib/../lib/libws2_32.a(dmgss00193.o)
 .idata$4       0x000000006155082c        0x8 C:/msys64/mingw64/bin/../lib/gcc/x86_64-w64-mingw32/8.2.1/../../../../x86_64-w64-mingw32/lib/../lib/libws2_32.a(dmgss00194.o)
 .idata$4       0x0000000061550834        0x8 C:/msys64/mingw64/bin/../lib/gcc/x86_64-w64-mingw32/8.2.1/../../../../x86_64-w64-mingw32/lib/../lib/libws2_32.a(dmgss00195.o)
 .idata$4       0x000000006155083c        0x8 C:/msys64/mingw64/bin/../lib/gcc/x86_64-w64-mingw32/8.2.1/../../../../x86_64-w64-mingw32/lib/../lib/libws2_32.a(dmgst.o)
                0x0000000061550844                __IAT_start__ = .
 SORT(*)(.idata$5)
 .idata$5       0x0000000061550844        0x0 C:/msys64/mingw64/bin/../lib/gcc/x86_64-w64-mingw32/8.2.1/../../../../x86_64-w64-mingw32/lib/../lib/libkernel32.a(dkzxbh.o)
 .idata$5       0x0000000061550844        0x8 C:/msys64/mingw64/bin/../lib/gcc/x86_64-w64-mingw32/8.2.1/../../../../x86_64-w64-mingw32/lib/../lib/libkernel32.a(dkzxbs00027.o)
                0x0000000061550844                __imp_AreFileApisANSI
 .idata$5       0x000000006155084c        0x8 C:/msys64/mingw64/bin/../lib/gcc/x86_64-w64-mingw32/8.2.1/../../../../x86_64-w64-mingw32/lib/../lib/libkernel32.a(dkzxbs00130.o)
                0x000000006155084c                __imp_CloseHandle
 .idata$5       0x0000000061550854        0x8 C:/msys64/mingw64/bin/../lib/gcc/x86_64-w64-mingw32/8.2.1/../../../../x86_64-w64-mingw32/lib/../lib/libkernel32.a(dkzxbs00191.o)
                0x0000000061550854                __imp_CreateFileA
 .idata$5       0x000000006155085c        0x8 C:/msys64/mingw64/bin/../lib/gcc/x86_64-w64-mingw32/8.2.1/../../../../x86_64-w64-mingw32/lib/../lib/libkernel32.a(dkzxbs00192.o)
                0x000000006155085c                __imp_CreateFileMappingA
 .idata$5       0x0000000061550864        0x8 C:/msys64/mingw64/bin/../lib/gcc/x86_64-w64-mingw32/8.2.1/../../../../x86_64-w64-mingw32/lib/../lib/libkernel32.a(dkzxbs00196.o)
                0x0000000061550864                __imp_CreateFileMappingW
 .idata$5       0x000000006155086c        0x8 C:/msys64/mingw64/bin/../lib/gcc/x86_64-w64-mingw32/8.2.1/../../../../x86_64-w64-mingw32/lib/../lib/libkernel32.a(dkzxbs00199.o)
                0x000000006155086c                __imp_CreateFileW
 .idata$5       0x0000000061550874        0x8 C:/msys64/mingw64/bin/../lib/gcc/x86_64-w64-mingw32/8.2.1/../../../../x86_64-w64-mingw32/lib/../lib/libkernel32.a(dkzxbs00214.o)
                0x0000000061550874                __imp_CreateMutexW
 .idata$5       0x000000006155087c        0x8 C:/msys64/mingw64/bin/../lib/gcc/x86_64-w64-mingw32/8.2.1/../../../../x86_64-w64-mingw32/lib/../lib/libkernel32.a(dkzxbs00237.o)
                0x000000006155087c                __imp_CreateThread
 .idata$5       0x0000000061550884        0x8 C:/msys64/mingw64/bin/../lib/gcc/x86_64-w64-mingw32/8.2.1/../../../../x86_64-w64-mingw32/lib/../lib/libkernel32.a(dkzxbs00268.o)
                0x0000000061550884                __imp_DeleteCriticalSection
 .idata$5       0x000000006155088c        0x8 C:/msys64/mingw64/bin/../lib/gcc/x86_64-w64-mingw32/8.2.1/../../../../x86_64-w64-mingw32/lib/../lib/libkernel32.a(dkzxbs00270.o)
                0x000000006155088c                __imp_DeleteFileA
 .idata$5       0x0000000061550894        0x8 C:/msys64/mingw64/bin/../lib/gcc/x86_64-w64-mingw32/8.2.1/../../../../x86_64-w64-mingw32/lib/../lib/libkernel32.a(dkzxbs00273.o)
                0x0000000061550894                __imp_DeleteFileW
 .idata$5       0x000000006155089c        0x8 C:/msys64/mingw64/bin/../lib/gcc/x86_64-w64-mingw32/8.2.1/../../../../x86_64-w64-mingw32/lib/../lib/libkernel32.a(dkzxbs00304.o)
                0x000000006155089c                __imp_EnterCriticalSection
 .idata$5       0x00000000615508a4        0x8 C:/msys64/mingw64/bin/../lib/gcc/x86_64-w64-mingw32/8.2.1/../../../../x86_64-w64-mingw32/lib/../lib/libkernel32.a(dkzxbs00415.o)
                0x00000000615508a4                __imp_FlushFileBuffers
 .idata$5       0x00000000615508ac        0x8 C:/msys64/mingw64/bin/../lib/gcc/x86_64-w64-mingw32/8.2.1/../../../../x86_64-w64-mingw32/lib/../lib/libkernel32.a(dkzxbs00422.o)
                0x00000000615508ac                __imp_FormatMessageA
 .idata$5       0x00000000615508b4        0x8 C:/msys64/mingw64/bin/../lib/gcc/x86_64-w64-mingw32/8.2.1/../../../../x86_64-w64-mingw32/lib/../lib/libkernel32.a(dkzxbs00423.o)
                0x00000000615508b4                __imp_FormatMessageW
 .idata$5       0x00000000615508bc        0x8 C:/msys64/mingw64/bin/../lib/gcc/x86_64-w64-mingw32/8.2.1/../../../../x86_64-w64-mingw32/lib/../lib/libkernel32.a(dkzxbs00427.o)
                0x00000000615508bc                __imp_FreeLibrary
 .idata$5       0x00000000615508c4        0x8 C:/msys64/mingw64/bin/../lib/gcc/x86_64-w64-mingw32/8.2.1/../../../../x86_64-w64-mingw32/lib/../lib/libkernel32.a(dkzxbs00514.o)
                0x00000000615508c4                __imp_GetConsoleScreenBufferInfo
 .idata$5       0x00000000615508cc        0x8 C:/msys64/mingw64/bin/../lib/gcc/x86_64-w64-mingw32/8.2.1/../../../../x86_64-w64-mingw32/lib/../lib/libkernel32.a(dkzxbs00535.o)
                0x00000000615508cc                __imp_GetCurrentProcess
 .idata$5       0x00000000615508d4        0x8 C:/msys64/mingw64/bin/../lib/gcc/x86_64-w64-mingw32/8.2.1/../../../../x86_64-w64-mingw32/lib/../lib/libkernel32.a(dkzxbs00536.o)
                0x00000000615508d4                __imp_GetCurrentProcessId
 .idata$5       0x00000000615508dc        0x8 C:/msys64/mingw64/bin/../lib/gcc/x86_64-w64-mingw32/8.2.1/../../../../x86_64-w64-mingw32/lib/../lib/libkernel32.a(dkzxbs00540.o)
                0x00000000615508dc                __imp_GetCurrentThreadId
 .idata$5       0x00000000615508e4        0x8 C:/msys64/mingw64/bin/../lib/gcc/x86_64-w64-mingw32/8.2.1/../../../../x86_64-w64-mingw32/lib/../lib/libkernel32.a(dkzxbs00552.o)
                0x00000000615508e4                __imp_GetDiskFreeSpaceA
 .idata$5       0x00000000615508ec        0x8 C:/msys64/mingw64/bin/../lib/gcc/x86_64-w64-mingw32/8.2.1/../../../../x86_64-w64-mingw32/lib/../lib/libkernel32.a(dkzxbs00555.o)
                0x00000000615508ec                __imp_GetDiskFreeSpaceW
 .idata$5       0x00000000615508f4        0x8 C:/msys64/mingw64/bin/../lib/gcc/x86_64-w64-mingw32/8.2.1/../../../../x86_64-w64-mingw32/lib/../lib/libkernel32.a(dkzxbs00578.o)
                0x00000000615508f4                __imp_GetFileAttributesA
 .idata$5       0x00000000615508fc        0x8 C:/msys64/mingw64/bin/../lib/gcc/x86_64-w64-mingw32/8.2.1/../../../../x86_64-w64-mingw32/lib/../lib/libkernel32.a(dkzxbs00580.o)
                0x00000000615508fc                __imp_GetFileAttributesExW
 .idata$5       0x0000000061550904        0x8 C:/msys64/mingw64/bin/../lib/gcc/x86_64-w64-mingw32/8.2.1/../../../../x86_64-w64-mingw32/lib/../lib/libkernel32.a(dkzxbs00583.o)
                0x0000000061550904                __imp_GetFileAttributesW
 .idata$5       0x000000006155090c        0x8 C:/msys64/mingw64/bin/../lib/gcc/x86_64-w64-mingw32/8.2.1/../../../../x86_64-w64-mingw32/lib/../lib/libkernel32.a(dkzxbs00589.o)
                0x000000006155090c                __imp_GetFileSize
 .idata$5       0x0000000061550914        0x8 C:/msys64/mingw64/bin/../lib/gcc/x86_64-w64-mingw32/8.2.1/../../../../x86_64-w64-mingw32/lib/../lib/libkernel32.a(dkzxbs00600.o)
                0x0000000061550914                __imp_GetFullPathNameA
 .idata$5       0x000000006155091c        0x8 C:/msys64/mingw64/bin/../lib/gcc/x86_64-w64-mingw32/8.2.1/../../../../x86_64-w64-mingw32/lib/../lib/libkernel32.a(dkzxbs00603.o)
                0x000000006155091c                __imp_GetFullPathNameW
 .idata$5       0x0000000061550924        0x8 C:/msys64/mingw64/bin/../lib/gcc/x86_64-w64-mingw32/8.2.1/../../../../x86_64-w64-mingw32/lib/../lib/libkernel32.a(dkzxbs00609.o)
                0x0000000061550924                __imp_GetLastError
 .idata$5       0x000000006155092c        0x8 C:/msys64/mingw64/bin/../lib/gcc/x86_64-w64-mingw32/8.2.1/../../../../x86_64-w64-mingw32/lib/../lib/libkernel32.a(dkzxbs00628.o)
                0x000000006155092c                __imp_GetModuleFileNameA
 .idata$5       0x0000000061550934        0x8 C:/msys64/mingw64/bin/../lib/gcc/x86_64-w64-mingw32/8.2.1/../../../../x86_64-w64-mingw32/lib/../lib/libkernel32.a(dkzxbs00629.o)
                0x0000000061550934                __imp_GetModuleFileNameW
 .idata$5       0x000000006155093c        0x8 C:/msys64/mingw64/bin/../lib/gcc/x86_64-w64-mingw32/8.2.1/../../../../x86_64-w64-mingw32/lib/../lib/libkernel32.a(dkzxbs00630.o)
                0x000000006155093c                __imp_GetModuleHandleA
 .idata$5       0x0000000061550944        0x8 C:/msys64/mingw64/bin/../lib/gcc/x86_64-w64-mingw32/8.2.1/../../../../x86_64-w64-mingw32/lib/../lib/libkernel32.a(dkzxbs00631.o)
                0x0000000061550944                __imp_GetModuleHandleExA
 .idata$5       0x000000006155094c        0x8 C:/msys64/mingw64/bin/../lib/gcc/x86_64-w64-mingw32/8.2.1/../../../../x86_64-w64-mingw32/lib/../lib/libkernel32.a(dkzxbs00689.o)
                0x000000006155094c                __imp_GetProcAddress
 .idata$5       0x0000000061550954        0x8 C:/msys64/mingw64/bin/../lib/gcc/x86_64-w64-mingw32/8.2.1/../../../../x86_64-w64-mingw32/lib/../lib/libkernel32.a(dkzxbs00694.o)
                0x0000000061550954                __imp_GetProcessHeap
 .idata$5       0x000000006155095c        0x8 C:/msys64/mingw64/bin/../lib/gcc/x86_64-w64-mingw32/8.2.1/../../../../x86_64-w64-mingw32/lib/../lib/libkernel32.a(dkzxbs00724.o)
                0x000000006155095c                __imp_GetStdHandle
 .idata$5       0x0000000061550964        0x8 C:/msys64/mingw64/bin/../lib/gcc/x86_64-w64-mingw32/8.2.1/../../../../x86_64-w64-mingw32/lib/../lib/libkernel32.a(dkzxbs00740.o)
                0x0000000061550964                __imp_GetSystemInfo
 .idata$5       0x000000006155096c        0x8 C:/msys64/mingw64/bin/../lib/gcc/x86_64-w64-mingw32/8.2.1/../../../../x86_64-w64-mingw32/lib/../lib/libkernel32.a(dkzxbs00744.o)
                0x000000006155096c                __imp_GetSystemTime
 .idata$5       0x0000000061550974        0x8 C:/msys64/mingw64/bin/../lib/gcc/x86_64-w64-mingw32/8.2.1/../../../../x86_64-w64-mingw32/lib/../lib/libkernel32.a(dkzxbs00746.o)
                0x0000000061550974                __imp_GetSystemTimeAsFileTime
 .idata$5       0x000000006155097c        0x8 C:/msys64/mingw64/bin/../lib/gcc/x86_64-w64-mingw32/8.2.1/../../../../x86_64-w64-mingw32/lib/../lib/libkernel32.a(dkzxbs00758.o)
                0x000000006155097c                __imp_GetTempPathA
 .idata$5       0x0000000061550984        0x8 C:/msys64/mingw64/bin/../lib/gcc/x86_64-w64-mingw32/8.2.1/../../../../x86_64-w64-mingw32/lib/../lib/libkernel32.a(dkzxbs00759.o)
                0x0000000061550984                __imp_GetTempPathW
 .idata$5       0x000000006155098c        0x8 C:/msys64/mingw64/bin/../lib/gcc/x86_64-w64-mingw32/8.2.1/../../../../x86_64-w64-mingw32/lib/../lib/libkernel32.a(dkzxbs00774.o)
                0x000000006155098c                __imp_GetTickCount
 .idata$5       0x0000000061550994        0x8 C:/msys64/mingw64/bin/../lib/gcc/x86_64-w64-mingw32/8.2.1/../../../../x86_64-w64-mingw32/lib/../lib/libkernel32.a(dkzxbs00781.o)
                0x0000000061550994                __imp_GetTimeZoneInformation
 .idata$5       0x000000006155099c        0x8 C:/msys64/mingw64/bin/../lib/gcc/x86_64-w64-mingw32/8.2.1/../../../../x86_64-w64-mingw32/lib/../lib/libkernel32.a(dkzxbs00793.o)
                0x000000006155099c                __imp_GetVersionExA
 .idata$5       0x00000000615509a4        0x8 C:/msys64/mingw64/bin/../lib/gcc/x86_64-w64-mingw32/8.2.1/../../../../x86_64-w64-mingw32/lib/../lib/libkernel32.a(dkzxbs00794.o)
                0x00000000615509a4                __imp_GetVersionExW
 .idata$5       0x00000000615509ac        0x8 C:/msys64/mingw64/bin/../lib/gcc/x86_64-w64-mingw32/8.2.1/../../../../x86_64-w64-mingw32/lib/../lib/libkernel32.a(dkzxbs00835.o)
                0x00000000615509ac                __imp_HeapAlloc
 .idata$5       0x00000000615509b4        0x8 C:/msys64/mingw64/bin/../lib/gcc/x86_64-w64-mingw32/8.2.1/../../../../x86_64-w64-mingw32/lib/../lib/libkernel32.a(dkzxbs00836.o)
                0x00000000615509b4                __imp_HeapCompact
 .idata$5       0x00000000615509bc        0x8 C:/msys64/mingw64/bin/../lib/gcc/x86_64-w64-mingw32/8.2.1/../../../../x86_64-w64-mingw32/lib/../lib/libkernel32.a(dkzxbs00837.o)
                0x00000000615509bc                __imp_HeapCreate
 .idata$5       0x00000000615509c4        0x8 C:/msys64/mingw64/bin/../lib/gcc/x86_64-w64-mingw32/8.2.1/../../../../x86_64-w64-mingw32/lib/../lib/libkernel32.a(dkzxbs00839.o)
                0x00000000615509c4                __imp_HeapDestroy
 .idata$5       0x00000000615509cc        0x8 C:/msys64/mingw64/bin/../lib/gcc/x86_64-w64-mingw32/8.2.1/../../../../x86_64-w64-mingw32/lib/../lib/libkernel32.a(dkzxbs00841.o)
                0x00000000615509cc                __imp_HeapFree
 .idata$5       0x00000000615509d4        0x8 C:/msys64/mingw64/bin/../lib/gcc/x86_64-w64-mingw32/8.2.1/../../../../x86_64-w64-mingw32/lib/../lib/libkernel32.a(dkzxbs00845.o)
                0x00000000615509d4                __imp_HeapReAlloc
 .idata$5       0x00000000615509dc        0x8 C:/msys64/mingw64/bin/../lib/gcc/x86_64-w64-mingw32/8.2.1/../../../../x86_64-w64-mingw32/lib/../lib/libkernel32.a(dkzxbs00847.o)
                0x00000000615509dc                __imp_HeapSize
 .idata$5       0x00000000615509e4        0x8 C:/msys64/mingw64/bin/../lib/gcc/x86_64-w64-mingw32/8.2.1/../../../../x86_64-w64-mingw32/lib/../lib/libkernel32.a(dkzxbs00851.o)
                0x00000000615509e4                __imp_HeapValidate
 .idata$5       0x00000000615509ec        0x8 C:/msys64/mingw64/bin/../lib/gcc/x86_64-w64-mingw32/8.2.1/../../../../x86_64-w64-mingw32/lib/../lib/libkernel32.a(dkzxbs00863.o)
                0x00000000615509ec                __imp_InitializeCriticalSection
 .idata$5       0x00000000615509f4        0x8 C:/msys64/mingw64/bin/../lib/gcc/x86_64-w64-mingw32/8.2.1/../../../../x86_64-w64-mingw32/lib/../lib/libkernel32.a(dkzxbs00951.o)
                0x00000000615509f4                __imp_LeaveCriticalSection
 .idata$5       0x00000000615509fc        0x8 C:/msys64/mingw64/bin/../lib/gcc/x86_64-w64-mingw32/8.2.1/../../../../x86_64-w64-mingw32/lib/../lib/libkernel32.a(dkzxbs00954.o)
                0x00000000615509fc                __imp_LoadLibraryA
 .idata$5       0x0000000061550a04        0x8 C:/msys64/mingw64/bin/../lib/gcc/x86_64-w64-mingw32/8.2.1/../../../../x86_64-w64-mingw32/lib/../lib/libkernel32.a(dkzxbs00955.o)
                0x0000000061550a04                __imp_LoadLibraryExA
 .idata$5       0x0000000061550a0c        0x8 C:/msys64/mingw64/bin/../lib/gcc/x86_64-w64-mingw32/8.2.1/../../../../x86_64-w64-mingw32/lib/../lib/libkernel32.a(dkzxbs00957.o)
                0x0000000061550a0c                __imp_LoadLibraryW
 .idata$5       0x0000000061550a14        0x8 C:/msys64/mingw64/bin/../lib/gcc/x86_64-w64-mingw32/8.2.1/../../../../x86_64-w64-mingw32/lib/../lib/libkernel32.a(dkzxbs00967.o)
                0x0000000061550a14                __imp_LocalFree
 .idata$5       0x0000000061550a1c        0x8 C:/msys64/mingw64/bin/../lib/gcc/x86_64-w64-mingw32/8.2.1/../../../../x86_64-w64-mingw32/lib/../lib/libkernel32.a(dkzxbs00977.o)
                0x0000000061550a1c                __imp_LockFile
 .idata$5       0x0000000061550a24        0x8 C:/msys64/mingw64/bin/../lib/gcc/x86_64-w64-mingw32/8.2.1/../../../../x86_64-w64-mingw32/lib/../lib/libkernel32.a(dkzxbs00978.o)
                0x0000000061550a24                __imp_LockFileEx
 .idata$5       0x0000000061550a2c        0x8 C:/msys64/mingw64/bin/../lib/gcc/x86_64-w64-mingw32/8.2.1/../../../../x86_64-w64-mingw32/lib/../lib/libkernel32.a(dkzxbs00982.o)
                0x0000000061550a2c                __imp_MapViewOfFile
 .idata$5       0x0000000061550a34        0x8 C:/msys64/mingw64/bin/../lib/gcc/x86_64-w64-mingw32/8.2.1/../../../../x86_64-w64-mingw32/lib/../lib/libkernel32.a(dkzxbs00999.o)
                0x0000000061550a34                __imp_MultiByteToWideChar
 .idata$5       0x0000000061550a3c        0x8 C:/msys64/mingw64/bin/../lib/gcc/x86_64-w64-mingw32/8.2.1/../../../../x86_64-w64-mingw32/lib/../lib/libkernel32.a(dkzxbs01041.o)
                0x0000000061550a3c                __imp_OutputDebugStringA
 .idata$5       0x0000000061550a44        0x8 C:/msys64/mingw64/bin/../lib/gcc/x86_64-w64-mingw32/8.2.1/../../../../x86_64-w64-mingw32/lib/../lib/libkernel32.a(dkzxbs01042.o)
                0x0000000061550a44                __imp_OutputDebugStringW
 .idata$5       0x0000000061550a4c        0x8 C:/msys64/mingw64/bin/../lib/gcc/x86_64-w64-mingw32/8.2.1/../../../../x86_64-w64-mingw32/lib/../lib/libkernel32.a(dkzxbs01093.o)
                0x0000000061550a4c                __imp_QueryPerformanceCounter
 .idata$5       0x0000000061550a54        0x8 C:/msys64/mingw64/bin/../lib/gcc/x86_64-w64-mingw32/8.2.1/../../../../x86_64-w64-mingw32/lib/../lib/libkernel32.a(dkzxbs01112.o)
                0x0000000061550a54                __imp_RaiseException
 .idata$5       0x0000000061550a5c        0x8 C:/msys64/mingw64/bin/../lib/gcc/x86_64-w64-mingw32/8.2.1/../../../../x86_64-w64-mingw32/lib/../lib/libkernel32.a(dkzxbs01128.o)
                0x0000000061550a5c                __imp_ReadFile
 .idata$5       0x0000000061550a64        0x8 C:/msys64/mingw64/bin/../lib/gcc/x86_64-w64-mingw32/8.2.1/../../../../x86_64-w64-mingw32/lib/../lib/libkernel32.a(dkzxbs01179.o)
                0x0000000061550a64                __imp_RtlAddFunctionTable
 .idata$5       0x0000000061550a6c        0x8 C:/msys64/mingw64/bin/../lib/gcc/x86_64-w64-mingw32/8.2.1/../../../../x86_64-w64-mingw32/lib/../lib/libkernel32.a(dkzxbs01180.o)
                0x0000000061550a6c                __imp_RtlCaptureContext
 .idata$5       0x0000000061550a74        0x8 C:/msys64/mingw64/bin/../lib/gcc/x86_64-w64-mingw32/8.2.1/../../../../x86_64-w64-mingw32/lib/../lib/libkernel32.a(dkzxbs01187.o)
                0x0000000061550a74                __imp_RtlLookupFunctionEntry
 .idata$5       0x0000000061550a7c        0x8 C:/msys64/mingw64/bin/../lib/gcc/x86_64-w64-mingw32/8.2.1/../../../../x86_64-w64-mingw32/lib/../lib/libkernel32.a(dkzxbs01193.o)
                0x0000000061550a7c                __imp_RtlUnwindEx
 .idata$5       0x0000000061550a84        0x8 C:/msys64/mingw64/bin/../lib/gcc/x86_64-w64-mingw32/8.2.1/../../../../x86_64-w64-mingw32/lib/../lib/libkernel32.a(dkzxbs01194.o)
                0x0000000061550a84                __imp_RtlVirtualUnwind
 .idata$5       0x0000000061550a8c        0x8 C:/msys64/mingw64/bin/../lib/gcc/x86_64-w64-mingw32/8.2.1/../../../../x86_64-w64-mingw32/lib/../lib/libkernel32.a(dkzxbs01243.o)
                0x0000000061550a8c                __imp_SetConsoleTextAttribute
 .idata$5       0x0000000061550a94        0x8 C:/msys64/mingw64/bin/../lib/gcc/x86_64-w64-mingw32/8.2.1/../../../../x86_64-w64-mingw32/lib/../lib/libkernel32.a(dkzxbs01257.o)
                0x0000000061550a94                __imp_SetEndOfFile
 .idata$5       0x0000000061550a9c        0x8 C:/msys64/mingw64/bin/../lib/gcc/x86_64-w64-mingw32/8.2.1/../../../../x86_64-w64-mingw32/lib/../lib/libkernel32.a(dkzxbs01276.o)
                0x0000000061550a9c                __imp_SetFilePointer
 .idata$5       0x0000000061550aa4        0x8 C:/msys64/mingw64/bin/../lib/gcc/x86_64-w64-mingw32/8.2.1/../../../../x86_64-w64-mingw32/lib/../lib/libkernel32.a(dkzxbs01290.o)
                0x0000000061550aa4                __imp_SetLastError
 .idata$5       0x0000000061550aac        0x8 C:/msys64/mingw64/bin/../lib/gcc/x86_64-w64-mingw32/8.2.1/../../../../x86_64-w64-mingw32/lib/../lib/libkernel32.a(dkzxbs01346.o)
                0x0000000061550aac                __imp_SetUnhandledExceptionFilter
 .idata$5       0x0000000061550ab4        0x8 C:/msys64/mingw64/bin/../lib/gcc/x86_64-w64-mingw32/8.2.1/../../../../x86_64-w64-mingw32/lib/../lib/libkernel32.a(dkzxbs01360.o)
                0x0000000061550ab4                __imp_Sleep
 .idata$5       0x0000000061550abc        0x8 C:/msys64/mingw64/bin/../lib/gcc/x86_64-w64-mingw32/8.2.1/../../../../x86_64-w64-mingw32/lib/../lib/libkernel32.a(dkzxbs01371.o)
                0x0000000061550abc                __imp_SystemTimeToFileTime
 .idata$5       0x0000000061550ac4        0x8 C:/msys64/mingw64/bin/../lib/gcc/x86_64-w64-mingw32/8.2.1/../../../../x86_64-w64-mingw32/lib/../lib/libkernel32.a(dkzxbs01375.o)
                0x0000000061550ac4                __imp_TerminateProcess
 .idata$5       0x0000000061550acc        0x8 C:/msys64/mingw64/bin/../lib/gcc/x86_64-w64-mingw32/8.2.1/../../../../x86_64-w64-mingw32/lib/../lib/libkernel32.a(dkzxbs01395.o)
                0x0000000061550acc                __imp_TlsGetValue
 .idata$5       0x0000000061550ad4        0x8 C:/msys64/mingw64/bin/../lib/gcc/x86_64-w64-mingw32/8.2.1/../../../../x86_64-w64-mingw32/lib/../lib/libkernel32.a(dkzxbs01402.o)
                0x0000000061550ad4                __imp_TryEnterCriticalSection
 .idata$5       0x0000000061550adc        0x8 C:/msys64/mingw64/bin/../lib/gcc/x86_64-w64-mingw32/8.2.1/../../../../x86_64-w64-mingw32/lib/../lib/libkernel32.a(dkzxbs01409.o)
                0x0000000061550adc                __imp_UnhandledExceptionFilter
 .idata$5       0x0000000061550ae4        0x8 C:/msys64/mingw64/bin/../lib/gcc/x86_64-w64-mingw32/8.2.1/../../../../x86_64-w64-mingw32/lib/../lib/libkernel32.a(dkzxbs01410.o)
                0x0000000061550ae4                __imp_UnlockFile
 .idata$5       0x0000000061550aec        0x8 C:/msys64/mingw64/bin/../lib/gcc/x86_64-w64-mingw32/8.2.1/../../../../x86_64-w64-mingw32/lib/../lib/libkernel32.a(dkzxbs01411.o)
                0x0000000061550aec                __imp_UnlockFileEx
 .idata$5       0x0000000061550af4        0x8 C:/msys64/mingw64/bin/../lib/gcc/x86_64-w64-mingw32/8.2.1/../../../../x86_64-w64-mingw32/lib/../lib/libkernel32.a(dkzxbs01412.o)
                0x0000000061550af4                __imp_UnmapViewOfFile
 .idata$5       0x0000000061550afc        0x8 C:/msys64/mingw64/bin/../lib/gcc/x86_64-w64-mingw32/8.2.1/../../../../x86_64-w64-mingw32/lib/../lib/libkernel32.a(dkzxbs01436.o)
                0x0000000061550afc                __imp_VirtualAlloc
 .idata$5       0x0000000061550b04        0x8 C:/msys64/mingw64/bin/../lib/gcc/x86_64-w64-mingw32/8.2.1/../../../../x86_64-w64-mingw32/lib/../lib/libkernel32.a(dkzxbs01440.o)
                0x0000000061550b04                __imp_VirtualFree
 .idata$5       0x0000000061550b0c        0x8 C:/msys64/mingw64/bin/../lib/gcc/x86_64-w64-mingw32/8.2.1/../../../../x86_64-w64-mingw32/lib/../lib/libkernel32.a(dkzxbs01443.o)
                0x0000000061550b0c                __imp_VirtualProtect
 .idata$5       0x0000000061550b14        0x8 C:/msys64/mingw64/bin/../lib/gcc/x86_64-w64-mingw32/8.2.1/../../../../x86_64-w64-mingw32/lib/../lib/libkernel32.a(dkzxbs01445.o)
                0x0000000061550b14                __imp_VirtualQuery
 .idata$5       0x0000000061550b1c        0x8 C:/msys64/mingw64/bin/../lib/gcc/x86_64-w64-mingw32/8.2.1/../../../../x86_64-w64-mingw32/lib/../lib/libkernel32.a(dkzxbs01453.o)
                0x0000000061550b1c                __imp_WaitForSingleObject
 .idata$5       0x0000000061550b24        0x8 C:/msys64/mingw64/bin/../lib/gcc/x86_64-w64-mingw32/8.2.1/../../../../x86_64-w64-mingw32/lib/../lib/libkernel32.a(dkzxbs01454.o)
                0x0000000061550b24                __imp_WaitForSingleObjectEx
 .idata$5       0x0000000061550b2c        0x8 C:/msys64/mingw64/bin/../lib/gcc/x86_64-w64-mingw32/8.2.1/../../../../x86_64-w64-mingw32/lib/../lib/libkernel32.a(dkzxbs01490.o)
                0x0000000061550b2c                __imp_WideCharToMultiByte
 .idata$5       0x0000000061550b34        0x8 C:/msys64/mingw64/bin/../lib/gcc/x86_64-w64-mingw32/8.2.1/../../../../x86_64-w64-mingw32/lib/../lib/libkernel32.a(dkzxbs01510.o)
                0x0000000061550b34                __imp_WriteFile
 .idata$5       0x0000000061550b3c        0x8 C:/msys64/mingw64/bin/../lib/gcc/x86_64-w64-mingw32/8.2.1/../../../../x86_64-w64-mingw32/lib/../lib/libkernel32.a(dkzxbt.o)
 .idata$5       0x0000000061550b44        0x0 C:/msys64/mingw64/bin/../lib/gcc/x86_64-w64-mingw32/8.2.1/../../../../x86_64-w64-mingw32/lib/../lib/libmsvcrt.a(dieybh.o)
 .idata$5       0x0000000061550b44        0x8 C:/msys64/mingw64/bin/../lib/gcc/x86_64-w64-mingw32/8.2.1/../../../../x86_64-w64-mingw32/lib/../lib/libmsvcrt.a(dieybs00058.o)
                0x0000000061550b44                __imp___DestructExceptionObject
 .idata$5       0x0000000061550b4c        0x8 C:/msys64/mingw64/bin/../lib/gcc/x86_64-w64-mingw32/8.2.1/../../../../x86_64-w64-mingw32/lib/../lib/libmsvcrt.a(dieybs00078.o)
                0x0000000061550b4c                __imp___dllonexit
 .idata$5       0x0000000061550b54        0x8 C:/msys64/mingw64/bin/../lib/gcc/x86_64-w64-mingw32/8.2.1/../../../../x86_64-w64-mingw32/lib/../lib/libmsvcrt.a(dieybs00079.o)
                0x0000000061550b54                __imp___doserrno
 .idata$5       0x0000000061550b5c        0x8 C:/msys64/mingw64/bin/../lib/gcc/x86_64-w64-mingw32/8.2.1/../../../../x86_64-w64-mingw32/lib/../lib/libmsvcrt.a(dieybs00083.o)
                0x0000000061550b5c                __imp___iob_func
 .idata$5       0x0000000061550b64        0x8 C:/msys64/mingw64/bin/../lib/gcc/x86_64-w64-mingw32/8.2.1/../../../../x86_64-w64-mingw32/lib/../lib/libmsvcrt.a(dieybs00122.o)
                0x0000000061550b64                __imp___pioinfo
 .idata$5       0x0000000061550b6c        0x8 C:/msys64/mingw64/bin/../lib/gcc/x86_64-w64-mingw32/8.2.1/../../../../x86_64-w64-mingw32/lib/../lib/libmsvcrt.a(dieybs00127.o)
                0x0000000061550b6c                __imp___setusermatherr
 .idata$5       0x0000000061550b74        0x8 C:/msys64/mingw64/bin/../lib/gcc/x86_64-w64-mingw32/8.2.1/../../../../x86_64-w64-mingw32/lib/../lib/libmsvcrt.a(dieybs00142.o)
                0x0000000061550b74                __imp__access
 .idata$5       0x0000000061550b7c        0x8 C:/msys64/mingw64/bin/../lib/gcc/x86_64-w64-mingw32/8.2.1/../../../../x86_64-w64-mingw32/lib/../lib/libmsvcrt.a(dieybs00156.o)
                0x0000000061550b7c                __imp__amsg_exit
 .idata$5       0x0000000061550b84        0x8 C:/msys64/mingw64/bin/../lib/gcc/x86_64-w64-mingw32/8.2.1/../../../../x86_64-w64-mingw32/lib/../lib/libmsvcrt.a(dieybs00162.o)
                0x0000000061550b84                __imp__atoi64
 .idata$5       0x0000000061550b8c        0x8 C:/msys64/mingw64/bin/../lib/gcc/x86_64-w64-mingw32/8.2.1/../../../../x86_64-w64-mingw32/lib/../lib/libmsvcrt.a(dieybs00171.o)
                0x0000000061550b8c                __imp__beginthreadex
 .idata$5       0x0000000061550b94        0x8 C:/msys64/mingw64/bin/../lib/gcc/x86_64-w64-mingw32/8.2.1/../../../../x86_64-w64-mingw32/lib/../lib/libmsvcrt.a(dieybs00233.o)
                0x0000000061550b94                __imp__endthreadex
 .idata$5       0x0000000061550b9c        0x8 C:/msys64/mingw64/bin/../lib/gcc/x86_64-w64-mingw32/8.2.1/../../../../x86_64-w64-mingw32/lib/../lib/libmsvcrt.a(dieybs00237.o)
                0x0000000061550b9c                __imp__errno
 .idata$5       0x0000000061550ba4        0x8 C:/msys64/mingw64/bin/../lib/gcc/x86_64-w64-mingw32/8.2.1/../../../../x86_64-w64-mingw32/lib/../lib/libmsvcrt.a(dieybs00254.o)
                0x0000000061550ba4                __imp__exit
 .idata$5       0x0000000061550bac        0x8 C:/msys64/mingw64/bin/../lib/gcc/x86_64-w64-mingw32/8.2.1/../../../../x86_64-w64-mingw32/lib/../lib/libmsvcrt.a(dieybs00271.o)
                0x0000000061550bac                __imp__filelengthi64
 .idata$5       0x0000000061550bb4        0x8 C:/msys64/mingw64/bin/../lib/gcc/x86_64-w64-mingw32/8.2.1/../../../../x86_64-w64-mingw32/lib/../lib/libmsvcrt.a(dieybs00273.o)
                0x0000000061550bb4                __imp__fileno
 .idata$5       0x0000000061550bbc        0x8 C:/msys64/mingw64/bin/../lib/gcc/x86_64-w64-mingw32/8.2.1/../../../../x86_64-w64-mingw32/lib/../lib/libmsvcrt.a(dieybs00288.o)
                0x0000000061550bbc                __imp__fmode
 .idata$5       0x0000000061550bc4        0x8 C:/msys64/mingw64/bin/../lib/gcc/x86_64-w64-mingw32/8.2.1/../../../../x86_64-w64-mingw32/lib/../lib/libmsvcrt.a(dieybs00353.o)
                0x0000000061550bc4                __imp__gmtime64
 .idata$5       0x0000000061550bcc        0x8 C:/msys64/mingw64/bin/../lib/gcc/x86_64-w64-mingw32/8.2.1/../../../../x86_64-w64-mingw32/lib/../lib/libmsvcrt.a(dieybs00369.o)
                0x0000000061550bcc                __imp__initterm
 .idata$5       0x0000000061550bd4        0x8 C:/msys64/mingw64/bin/../lib/gcc/x86_64-w64-mingw32/8.2.1/../../../../x86_64-w64-mingw32/lib/../lib/libmsvcrt.a(dieybs00373.o)
                0x0000000061550bd4                __imp__isatty
 .idata$5       0x0000000061550bdc        0x8 C:/msys64/mingw64/bin/../lib/gcc/x86_64-w64-mingw32/8.2.1/../../../../x86_64-w64-mingw32/lib/../lib/libmsvcrt.a(dieybs00478.o)
                0x0000000061550bdc                __imp__localtime64
 .idata$5       0x0000000061550be4        0x8 C:/msys64/mingw64/bin/../lib/gcc/x86_64-w64-mingw32/8.2.1/../../../../x86_64-w64-mingw32/lib/../lib/libmsvcrt.a(dieybs00479.o)
                0x0000000061550be4                __imp__lock
 .idata$5       0x0000000061550bec        0x8 C:/msys64/mingw64/bin/../lib/gcc/x86_64-w64-mingw32/8.2.1/../../../../x86_64-w64-mingw32/lib/../lib/libmsvcrt.a(dieybs00489.o)
                0x0000000061550bec                __imp__lseeki64
 .idata$5       0x0000000061550bf4        0x8 C:/msys64/mingw64/bin/../lib/gcc/x86_64-w64-mingw32/8.2.1/../../../../x86_64-w64-mingw32/lib/../lib/libmsvcrt.a(dieybs00646.o)
                0x0000000061550bf4                __imp__mktime64
 .idata$5       0x0000000061550bfc        0x8 C:/msys64/mingw64/bin/../lib/gcc/x86_64-w64-mingw32/8.2.1/../../../../x86_64-w64-mingw32/lib/../lib/libmsvcrt.a(dieybs00651.o)
                0x0000000061550bfc                __imp__onexit
 .idata$5       0x0000000061550c04        0x8 C:/msys64/mingw64/bin/../lib/gcc/x86_64-w64-mingw32/8.2.1/../../../../x86_64-w64-mingw32/lib/../lib/libmsvcrt.a(dieybs00659.o)
                0x0000000061550c04                __imp__pclose
 .idata$5       0x0000000061550c0c        0x8 C:/msys64/mingw64/bin/../lib/gcc/x86_64-w64-mingw32/8.2.1/../../../../x86_64-w64-mingw32/lib/../lib/libmsvcrt.a(dieybs00663.o)
                0x0000000061550c0c                __imp__popen
 .idata$5       0x0000000061550c14        0x8 C:/msys64/mingw64/bin/../lib/gcc/x86_64-w64-mingw32/8.2.1/../../../../x86_64-w64-mingw32/lib/../lib/libmsvcrt.a(dieybs00714.o)
                0x0000000061550c14                __imp__setmode
 .idata$5       0x0000000061550c1c        0x8 C:/msys64/mingw64/bin/../lib/gcc/x86_64-w64-mingw32/8.2.1/../../../../x86_64-w64-mingw32/lib/../lib/libmsvcrt.a(dieybs00728.o)
                0x0000000061550c1c                __imp__snwprintf
 .idata$5       0x0000000061550c24        0x8 C:/msys64/mingw64/bin/../lib/gcc/x86_64-w64-mingw32/8.2.1/../../../../x86_64-w64-mingw32/lib/../lib/libmsvcrt.a(dieybs00789.o)
                0x0000000061550c24                __imp__strnicmp
 .idata$5       0x0000000061550c2c        0x8 C:/msys64/mingw64/bin/../lib/gcc/x86_64-w64-mingw32/8.2.1/../../../../x86_64-w64-mingw32/lib/../lib/libmsvcrt.a(dieybs00834.o)
                0x0000000061550c2c                __imp__time64
 .idata$5       0x0000000061550c34        0x8 C:/msys64/mingw64/bin/../lib/gcc/x86_64-w64-mingw32/8.2.1/../../../../x86_64-w64-mingw32/lib/../lib/libmsvcrt.a(dieybs00863.o)
                0x0000000061550c34                __imp__unlock
 .idata$5       0x0000000061550c3c        0x8 C:/msys64/mingw64/bin/../lib/gcc/x86_64-w64-mingw32/8.2.1/../../../../x86_64-w64-mingw32/lib/../lib/libmsvcrt.a(dieybs00895.o)
                0x0000000061550c3c                __imp__vsnprintf
 .idata$5       0x0000000061550c44        0x8 C:/msys64/mingw64/bin/../lib/gcc/x86_64-w64-mingw32/8.2.1/../../../../x86_64-w64-mingw32/lib/../lib/libmsvcrt.a(dieybs01031.o)
                0x0000000061550c44                __imp__write
 .idata$5       0x0000000061550c4c        0x8 C:/msys64/mingw64/bin/../lib/gcc/x86_64-w64-mingw32/8.2.1/../../../../x86_64-w64-mingw32/lib/../lib/libmsvcrt.a(dieybs01077.o)
                0x0000000061550c4c                __imp_abort
 .idata$5       0x0000000061550c54        0x8 C:/msys64/mingw64/bin/../lib/gcc/x86_64-w64-mingw32/8.2.1/../../../../x86_64-w64-mingw32/lib/../lib/libmsvcrt.a(dieybs01079.o)
                0x0000000061550c54                __imp_acos
 .idata$5       0x0000000061550c5c        0x8 C:/msys64/mingw64/bin/../lib/gcc/x86_64-w64-mingw32/8.2.1/../../../../x86_64-w64-mingw32/lib/../lib/libmsvcrt.a(dieybs01082.o)
                0x0000000061550c5c                __imp_asin
 .idata$5       0x0000000061550c64        0x8 C:/msys64/mingw64/bin/../lib/gcc/x86_64-w64-mingw32/8.2.1/../../../../x86_64-w64-mingw32/lib/../lib/libmsvcrt.a(dieybs01084.o)
                0x0000000061550c64                __imp_atan
 .idata$5       0x0000000061550c6c        0x8 C:/msys64/mingw64/bin/../lib/gcc/x86_64-w64-mingw32/8.2.1/../../../../x86_64-w64-mingw32/lib/../lib/libmsvcrt.a(dieybs01090.o)
                0x0000000061550c6c                __imp_atoi
 .idata$5       0x0000000061550c74        0x8 C:/msys64/mingw64/bin/../lib/gcc/x86_64-w64-mingw32/8.2.1/../../../../x86_64-w64-mingw32/lib/../lib/libmsvcrt.a(dieybs01094.o)
                0x0000000061550c74                __imp_calloc
 .idata$5       0x0000000061550c7c        0x8 C:/msys64/mingw64/bin/../lib/gcc/x86_64-w64-mingw32/8.2.1/../../../../x86_64-w64-mingw32/lib/../lib/libmsvcrt.a(dieybs01097.o)
                0x0000000061550c7c                __imp_clearerr
 .idata$5       0x0000000061550c84        0x8 C:/msys64/mingw64/bin/../lib/gcc/x86_64-w64-mingw32/8.2.1/../../../../x86_64-w64-mingw32/lib/../lib/libmsvcrt.a(dieybs01099.o)
                0x0000000061550c84                __imp_clock
 .idata$5       0x0000000061550c8c        0x8 C:/msys64/mingw64/bin/../lib/gcc/x86_64-w64-mingw32/8.2.1/../../../../x86_64-w64-mingw32/lib/../lib/libmsvcrt.a(dieybs01102.o)
                0x0000000061550c8c                __imp_cosh
 .idata$5       0x0000000061550c94        0x8 C:/msys64/mingw64/bin/../lib/gcc/x86_64-w64-mingw32/8.2.1/../../../../x86_64-w64-mingw32/lib/../lib/libmsvcrt.a(dieybs01107.o)
                0x0000000061550c94                __imp_exit
 .idata$5       0x0000000061550c9c        0x8 C:/msys64/mingw64/bin/../lib/gcc/x86_64-w64-mingw32/8.2.1/../../../../x86_64-w64-mingw32/lib/../lib/libmsvcrt.a(dieybs01111.o)
                0x0000000061550c9c                __imp_fclose
 .idata$5       0x0000000061550ca4        0x8 C:/msys64/mingw64/bin/../lib/gcc/x86_64-w64-mingw32/8.2.1/../../../../x86_64-w64-mingw32/lib/../lib/libmsvcrt.a(dieybs01112.o)
                0x0000000061550ca4                __imp_feof
 .idata$5       0x0000000061550cac        0x8 C:/msys64/mingw64/bin/../lib/gcc/x86_64-w64-mingw32/8.2.1/../../../../x86_64-w64-mingw32/lib/../lib/libmsvcrt.a(dieybs01113.o)
                0x0000000061550cac                __imp_ferror
 .idata$5       0x0000000061550cb4        0x8 C:/msys64/mingw64/bin/../lib/gcc/x86_64-w64-mingw32/8.2.1/../../../../x86_64-w64-mingw32/lib/../lib/libmsvcrt.a(dieybs01114.o)
                0x0000000061550cb4                __imp_fflush
 .idata$5       0x0000000061550cbc        0x8 C:/msys64/mingw64/bin/../lib/gcc/x86_64-w64-mingw32/8.2.1/../../../../x86_64-w64-mingw32/lib/../lib/libmsvcrt.a(dieybs01115.o)
                0x0000000061550cbc                __imp_fgetc
 .idata$5       0x0000000061550cc4        0x8 C:/msys64/mingw64/bin/../lib/gcc/x86_64-w64-mingw32/8.2.1/../../../../x86_64-w64-mingw32/lib/../lib/libmsvcrt.a(dieybs01116.o)
                0x0000000061550cc4                __imp_fgetpos
 .idata$5       0x0000000061550ccc        0x8 C:/msys64/mingw64/bin/../lib/gcc/x86_64-w64-mingw32/8.2.1/../../../../x86_64-w64-mingw32/lib/../lib/libmsvcrt.a(dieybs01117.o)
                0x0000000061550ccc                __imp_fgets
 .idata$5       0x0000000061550cd4        0x8 C:/msys64/mingw64/bin/../lib/gcc/x86_64-w64-mingw32/8.2.1/../../../../x86_64-w64-mingw32/lib/../lib/libmsvcrt.a(dieybs01124.o)
                0x0000000061550cd4                __imp_fopen
 .idata$5       0x0000000061550cdc        0x8 C:/msys64/mingw64/bin/../lib/gcc/x86_64-w64-mingw32/8.2.1/../../../../x86_64-w64-mingw32/lib/../lib/libmsvcrt.a(dieybs01126.o)
                0x0000000061550cdc                __imp_fprintf
 .idata$5       0x0000000061550ce4        0x8 C:/msys64/mingw64/bin/../lib/gcc/x86_64-w64-mingw32/8.2.1/../../../../x86_64-w64-mingw32/lib/../lib/libmsvcrt.a(dieybs01128.o)
                0x0000000061550ce4                __imp_fputc
 .idata$5       0x0000000061550cec        0x8 C:/msys64/mingw64/bin/../lib/gcc/x86_64-w64-mingw32/8.2.1/../../../../x86_64-w64-mingw32/lib/../lib/libmsvcrt.a(dieybs01129.o)
                0x0000000061550cec                __imp_fputs
 .idata$5       0x0000000061550cf4        0x8 C:/msys64/mingw64/bin/../lib/gcc/x86_64-w64-mingw32/8.2.1/../../../../x86_64-w64-mingw32/lib/../lib/libmsvcrt.a(dieybs01132.o)
                0x0000000061550cf4                __imp_fread
 .idata$5       0x0000000061550cfc        0x8 C:/msys64/mingw64/bin/../lib/gcc/x86_64-w64-mingw32/8.2.1/../../../../x86_64-w64-mingw32/lib/../lib/libmsvcrt.a(dieybs01133.o)
                0x0000000061550cfc                __imp_free
 .idata$5       0x0000000061550d04        0x8 C:/msys64/mingw64/bin/../lib/gcc/x86_64-w64-mingw32/8.2.1/../../../../x86_64-w64-mingw32/lib/../lib/libmsvcrt.a(dieybs01136.o)
                0x0000000061550d04                __imp_frexp
 .idata$5       0x0000000061550d0c        0x8 C:/msys64/mingw64/bin/../lib/gcc/x86_64-w64-mingw32/8.2.1/../../../../x86_64-w64-mingw32/lib/../lib/libmsvcrt.a(dieybs01137.o)
                0x0000000061550d0c                __imp_fscanf
 .idata$5       0x0000000061550d14        0x8 C:/msys64/mingw64/bin/../lib/gcc/x86_64-w64-mingw32/8.2.1/../../../../x86_64-w64-mingw32/lib/../lib/libmsvcrt.a(dieybs01140.o)
                0x0000000061550d14                __imp_fseek
 .idata$5       0x0000000061550d1c        0x8 C:/msys64/mingw64/bin/../lib/gcc/x86_64-w64-mingw32/8.2.1/../../../../x86_64-w64-mingw32/lib/../lib/libmsvcrt.a(dieybs01141.o)
                0x0000000061550d1c                __imp_fsetpos
 .idata$5       0x0000000061550d24        0x8 C:/msys64/mingw64/bin/../lib/gcc/x86_64-w64-mingw32/8.2.1/../../../../x86_64-w64-mingw32/lib/../lib/libmsvcrt.a(dieybs01142.o)
                0x0000000061550d24                __imp_ftell
 .idata$5       0x0000000061550d2c        0x8 C:/msys64/mingw64/bin/../lib/gcc/x86_64-w64-mingw32/8.2.1/../../../../x86_64-w64-mingw32/lib/../lib/libmsvcrt.a(dieybs01143.o)
                0x0000000061550d2c                __imp_fwprintf
 .idata$5       0x0000000061550d34        0x8 C:/msys64/mingw64/bin/../lib/gcc/x86_64-w64-mingw32/8.2.1/../../../../x86_64-w64-mingw32/lib/../lib/libmsvcrt.a(dieybs01145.o)
                0x0000000061550d34                __imp_fwrite
 .idata$5       0x0000000061550d3c        0x8 C:/msys64/mingw64/bin/../lib/gcc/x86_64-w64-mingw32/8.2.1/../../../../x86_64-w64-mingw32/lib/../lib/libmsvcrt.a(dieybs01148.o)
                0x0000000061550d3c                __imp_getc
 .idata$5       0x0000000061550d44        0x8 C:/msys64/mingw64/bin/../lib/gcc/x86_64-w64-mingw32/8.2.1/../../../../x86_64-w64-mingw32/lib/../lib/libmsvcrt.a(dieybs01150.o)
                0x0000000061550d44                __imp_getenv
 .idata$5       0x0000000061550d4c        0x8 C:/msys64/mingw64/bin/../lib/gcc/x86_64-w64-mingw32/8.2.1/../../../../x86_64-w64-mingw32/lib/../lib/libmsvcrt.a(dieybs01158.o)
                0x0000000061550d4c                __imp_isalnum
 .idata$5       0x0000000061550d54        0x8 C:/msys64/mingw64/bin/../lib/gcc/x86_64-w64-mingw32/8.2.1/../../../../x86_64-w64-mingw32/lib/../lib/libmsvcrt.a(dieybs01159.o)
                0x0000000061550d54                __imp_isalpha
 .idata$5       0x0000000061550d5c        0x8 C:/msys64/mingw64/bin/../lib/gcc/x86_64-w64-mingw32/8.2.1/../../../../x86_64-w64-mingw32/lib/../lib/libmsvcrt.a(dieybs01160.o)
                0x0000000061550d5c                __imp_iscntrl
 .idata$5       0x0000000061550d64        0x8 C:/msys64/mingw64/bin/../lib/gcc/x86_64-w64-mingw32/8.2.1/../../../../x86_64-w64-mingw32/lib/../lib/libmsvcrt.a(dieybs01161.o)
                0x0000000061550d64                __imp_isdigit
 .idata$5       0x0000000061550d6c        0x8 C:/msys64/mingw64/bin/../lib/gcc/x86_64-w64-mingw32/8.2.1/../../../../x86_64-w64-mingw32/lib/../lib/libmsvcrt.a(dieybs01162.o)
                0x0000000061550d6c                __imp_isgraph
 .idata$5       0x0000000061550d74        0x8 C:/msys64/mingw64/bin/../lib/gcc/x86_64-w64-mingw32/8.2.1/../../../../x86_64-w64-mingw32/lib/../lib/libmsvcrt.a(dieybs01164.o)
                0x0000000061550d74                __imp_islower
 .idata$5       0x0000000061550d7c        0x8 C:/msys64/mingw64/bin/../lib/gcc/x86_64-w64-mingw32/8.2.1/../../../../x86_64-w64-mingw32/lib/../lib/libmsvcrt.a(dieybs01165.o)
                0x0000000061550d7c                __imp_isprint
 .idata$5       0x0000000061550d84        0x8 C:/msys64/mingw64/bin/../lib/gcc/x86_64-w64-mingw32/8.2.1/../../../../x86_64-w64-mingw32/lib/../lib/libmsvcrt.a(dieybs01166.o)
                0x0000000061550d84                __imp_ispunct
 .idata$5       0x0000000061550d8c        0x8 C:/msys64/mingw64/bin/../lib/gcc/x86_64-w64-mingw32/8.2.1/../../../../x86_64-w64-mingw32/lib/../lib/libmsvcrt.a(dieybs01167.o)
                0x0000000061550d8c                __imp_isspace
 .idata$5       0x0000000061550d94        0x8 C:/msys64/mingw64/bin/../lib/gcc/x86_64-w64-mingw32/8.2.1/../../../../x86_64-w64-mingw32/lib/../lib/libmsvcrt.a(dieybs01168.o)
                0x0000000061550d94                __imp_isupper
 .idata$5       0x0000000061550d9c        0x8 C:/msys64/mingw64/bin/../lib/gcc/x86_64-w64-mingw32/8.2.1/../../../../x86_64-w64-mingw32/lib/../lib/libmsvcrt.a(dieybs01182.o)
                0x0000000061550d9c                __imp_isxdigit
 .idata$5       0x0000000061550da4        0x8 C:/msys64/mingw64/bin/../lib/gcc/x86_64-w64-mingw32/8.2.1/../../../../x86_64-w64-mingw32/lib/../lib/libmsvcrt.a(dieybs01186.o)
                0x0000000061550da4                __imp_localeconv
 .idata$5       0x0000000061550dac        0x8 C:/msys64/mingw64/bin/../lib/gcc/x86_64-w64-mingw32/8.2.1/../../../../x86_64-w64-mingw32/lib/../lib/libmsvcrt.a(dieybs01187.o)
                0x0000000061550dac                __imp_localtime
 .idata$5       0x0000000061550db4        0x8 C:/msys64/mingw64/bin/../lib/gcc/x86_64-w64-mingw32/8.2.1/../../../../x86_64-w64-mingw32/lib/../lib/libmsvcrt.a(dieybs01189.o)
                0x0000000061550db4                __imp_log10
 .idata$5       0x0000000061550dbc        0x8 C:/msys64/mingw64/bin/../lib/gcc/x86_64-w64-mingw32/8.2.1/../../../../x86_64-w64-mingw32/lib/../lib/libmsvcrt.a(dieybs01193.o)
                0x0000000061550dbc                __imp_malloc
 .idata$5       0x0000000061550dc4        0x8 C:/msys64/mingw64/bin/../lib/gcc/x86_64-w64-mingw32/8.2.1/../../../../x86_64-w64-mingw32/lib/../lib/libmsvcrt.a(dieybs01200.o)
                0x0000000061550dc4                __imp_memchr
 .idata$5       0x0000000061550dcc        0x8 C:/msys64/mingw64/bin/../lib/gcc/x86_64-w64-mingw32/8.2.1/../../../../x86_64-w64-mingw32/lib/../lib/libmsvcrt.a(dieybs01201.o)
                0x0000000061550dcc                __imp_memcmp
 .idata$5       0x0000000061550dd4        0x8 C:/msys64/mingw64/bin/../lib/gcc/x86_64-w64-mingw32/8.2.1/../../../../x86_64-w64-mingw32/lib/../lib/libmsvcrt.a(dieybs01202.o)
                0x0000000061550dd4                __imp_memcpy
 .idata$5       0x0000000061550ddc        0x8 C:/msys64/mingw64/bin/../lib/gcc/x86_64-w64-mingw32/8.2.1/../../../../x86_64-w64-mingw32/lib/../lib/libmsvcrt.a(dieybs01203.o)
                0x0000000061550ddc                __imp_memmove
 .idata$5       0x0000000061550de4        0x8 C:/msys64/mingw64/bin/../lib/gcc/x86_64-w64-mingw32/8.2.1/../../../../x86_64-w64-mingw32/lib/../lib/libmsvcrt.a(dieybs01204.o)
                0x0000000061550de4                __imp_memset
 .idata$5       0x0000000061550dec        0x8 C:/msys64/mingw64/bin/../lib/gcc/x86_64-w64-mingw32/8.2.1/../../../../x86_64-w64-mingw32/lib/../lib/libmsvcrt.a(dieybs01211.o)
                0x0000000061550dec                __imp_printf
 .idata$5       0x0000000061550df4        0x8 C:/msys64/mingw64/bin/../lib/gcc/x86_64-w64-mingw32/8.2.1/../../../../x86_64-w64-mingw32/lib/../lib/libmsvcrt.a(dieybs01213.o)
                0x0000000061550df4                __imp_putc
 .idata$5       0x0000000061550dfc        0x8 C:/msys64/mingw64/bin/../lib/gcc/x86_64-w64-mingw32/8.2.1/../../../../x86_64-w64-mingw32/lib/../lib/libmsvcrt.a(dieybs01214.o)
                0x0000000061550dfc                __imp_putchar
 .idata$5       0x0000000061550e04        0x8 C:/msys64/mingw64/bin/../lib/gcc/x86_64-w64-mingw32/8.2.1/../../../../x86_64-w64-mingw32/lib/../lib/libmsvcrt.a(dieybs01215.o)
                0x0000000061550e04                __imp_puts
 .idata$5       0x0000000061550e0c        0x8 C:/msys64/mingw64/bin/../lib/gcc/x86_64-w64-mingw32/8.2.1/../../../../x86_64-w64-mingw32/lib/../lib/libmsvcrt.a(dieybs01218.o)
                0x0000000061550e0c                __imp_qsort
 .idata$5       0x0000000061550e14        0x8 C:/msys64/mingw64/bin/../lib/gcc/x86_64-w64-mingw32/8.2.1/../../../../x86_64-w64-mingw32/lib/../lib/libmsvcrt.a(dieybs01220.o)
                0x0000000061550e14                __imp_raise
 .idata$5       0x0000000061550e1c        0x8 C:/msys64/mingw64/bin/../lib/gcc/x86_64-w64-mingw32/8.2.1/../../../../x86_64-w64-mingw32/lib/../lib/libmsvcrt.a(dieybs01222.o)
                0x0000000061550e1c                __imp_realloc
 .idata$5       0x0000000061550e24        0x8 C:/msys64/mingw64/bin/../lib/gcc/x86_64-w64-mingw32/8.2.1/../../../../x86_64-w64-mingw32/lib/../lib/libmsvcrt.a(dieybs01223.o)
                0x0000000061550e24                __imp_remove
 .idata$5       0x0000000061550e2c        0x8 C:/msys64/mingw64/bin/../lib/gcc/x86_64-w64-mingw32/8.2.1/../../../../x86_64-w64-mingw32/lib/../lib/libmsvcrt.a(dieybs01224.o)
                0x0000000061550e2c                __imp_rename
 .idata$5       0x0000000061550e34        0x8 C:/msys64/mingw64/bin/../lib/gcc/x86_64-w64-mingw32/8.2.1/../../../../x86_64-w64-mingw32/lib/../lib/libmsvcrt.a(dieybs01225.o)
                0x0000000061550e34                __imp_rewind
 .idata$5       0x0000000061550e3c        0x8 C:/msys64/mingw64/bin/../lib/gcc/x86_64-w64-mingw32/8.2.1/../../../../x86_64-w64-mingw32/lib/../lib/libmsvcrt.a(dieybs01230.o)
                0x0000000061550e3c                __imp_setlocale
 .idata$5       0x0000000061550e44        0x8 C:/msys64/mingw64/bin/../lib/gcc/x86_64-w64-mingw32/8.2.1/../../../../x86_64-w64-mingw32/lib/../lib/libmsvcrt.a(dieybs01231.o)
                0x0000000061550e44                __imp_setvbuf
 .idata$5       0x0000000061550e4c        0x8 C:/msys64/mingw64/bin/../lib/gcc/x86_64-w64-mingw32/8.2.1/../../../../x86_64-w64-mingw32/lib/../lib/libmsvcrt.a(dieybs01232.o)
                0x0000000061550e4c                __imp_signal
 .idata$5       0x0000000061550e54        0x8 C:/msys64/mingw64/bin/../lib/gcc/x86_64-w64-mingw32/8.2.1/../../../../x86_64-w64-mingw32/lib/../lib/libmsvcrt.a(dieybs01235.o)
                0x0000000061550e54                __imp_sinh
 .idata$5       0x0000000061550e5c        0x8 C:/msys64/mingw64/bin/../lib/gcc/x86_64-w64-mingw32/8.2.1/../../../../x86_64-w64-mingw32/lib/../lib/libmsvcrt.a(dieybs01237.o)
                0x0000000061550e5c                __imp_sprintf
 .idata$5       0x0000000061550e64        0x8 C:/msys64/mingw64/bin/../lib/gcc/x86_64-w64-mingw32/8.2.1/../../../../x86_64-w64-mingw32/lib/../lib/libmsvcrt.a(dieybs01241.o)
                0x0000000061550e64                __imp_sscanf
 .idata$5       0x0000000061550e6c        0x8 C:/msys64/mingw64/bin/../lib/gcc/x86_64-w64-mingw32/8.2.1/../../../../x86_64-w64-mingw32/lib/../lib/libmsvcrt.a(dieybs01245.o)
                0x0000000061550e6c                __imp_strchr
 .idata$5       0x0000000061550e74        0x8 C:/msys64/mingw64/bin/../lib/gcc/x86_64-w64-mingw32/8.2.1/../../../../x86_64-w64-mingw32/lib/../lib/libmsvcrt.a(dieybs01246.o)
                0x0000000061550e74                __imp_strcmp
 .idata$5       0x0000000061550e7c        0x8 C:/msys64/mingw64/bin/../lib/gcc/x86_64-w64-mingw32/8.2.1/../../../../x86_64-w64-mingw32/lib/../lib/libmsvcrt.a(dieybs01248.o)
                0x0000000061550e7c                __imp_strcpy
 .idata$5       0x0000000061550e84        0x8 C:/msys64/mingw64/bin/../lib/gcc/x86_64-w64-mingw32/8.2.1/../../../../x86_64-w64-mingw32/lib/../lib/libmsvcrt.a(dieybs01251.o)
                0x0000000061550e84                __imp_strerror
 .idata$5       0x0000000061550e8c        0x8 C:/msys64/mingw64/bin/../lib/gcc/x86_64-w64-mingw32/8.2.1/../../../../x86_64-w64-mingw32/lib/../lib/libmsvcrt.a(dieybs01253.o)
                0x0000000061550e8c                __imp_strftime
 .idata$5       0x0000000061550e94        0x8 C:/msys64/mingw64/bin/../lib/gcc/x86_64-w64-mingw32/8.2.1/../../../../x86_64-w64-mingw32/lib/../lib/libmsvcrt.a(dieybs01254.o)
                0x0000000061550e94                __imp_strlen
 .idata$5       0x0000000061550e9c        0x8 C:/msys64/mingw64/bin/../lib/gcc/x86_64-w64-mingw32/8.2.1/../../../../x86_64-w64-mingw32/lib/../lib/libmsvcrt.a(dieybs01257.o)
                0x0000000061550e9c                __imp_strncmp
 .idata$5       0x0000000061550ea4        0x8 C:/msys64/mingw64/bin/../lib/gcc/x86_64-w64-mingw32/8.2.1/../../../../x86_64-w64-mingw32/lib/../lib/libmsvcrt.a(dieybs01258.o)
                0x0000000061550ea4                __imp_strncpy
 .idata$5       0x0000000061550eac        0x8 C:/msys64/mingw64/bin/../lib/gcc/x86_64-w64-mingw32/8.2.1/../../../../x86_64-w64-mingw32/lib/../lib/libmsvcrt.a(dieybs01261.o)
                0x0000000061550eac                __imp_strrchr
 .idata$5       0x0000000061550eb4        0x8 C:/msys64/mingw64/bin/../lib/gcc/x86_64-w64-mingw32/8.2.1/../../../../x86_64-w64-mingw32/lib/../lib/libmsvcrt.a(dieybs01263.o)
                0x0000000061550eb4                __imp_strstr
 .idata$5       0x0000000061550ebc        0x8 C:/msys64/mingw64/bin/../lib/gcc/x86_64-w64-mingw32/8.2.1/../../../../x86_64-w64-mingw32/lib/../lib/libmsvcrt.a(dieybs01267.o)
                0x0000000061550ebc                __imp_strtol
 .idata$5       0x0000000061550ec4        0x8 C:/msys64/mingw64/bin/../lib/gcc/x86_64-w64-mingw32/8.2.1/../../../../x86_64-w64-mingw32/lib/../lib/libmsvcrt.a(dieybs01268.o)
                0x0000000061550ec4                __imp_strtoul
 .idata$5       0x0000000061550ecc        0x8 C:/msys64/mingw64/bin/../lib/gcc/x86_64-w64-mingw32/8.2.1/../../../../x86_64-w64-mingw32/lib/../lib/libmsvcrt.a(dieybs01274.o)
                0x0000000061550ecc                __imp_system
 .idata$5       0x0000000061550ed4        0x8 C:/msys64/mingw64/bin/../lib/gcc/x86_64-w64-mingw32/8.2.1/../../../../x86_64-w64-mingw32/lib/../lib/libmsvcrt.a(dieybs01275.o)
                0x0000000061550ed4                __imp_tan
 .idata$5       0x0000000061550edc        0x8 C:/msys64/mingw64/bin/../lib/gcc/x86_64-w64-mingw32/8.2.1/../../../../x86_64-w64-mingw32/lib/../lib/libmsvcrt.a(dieybs01277.o)
                0x0000000061550edc                __imp_tanh
 .idata$5       0x0000000061550ee4        0x8 C:/msys64/mingw64/bin/../lib/gcc/x86_64-w64-mingw32/8.2.1/../../../../x86_64-w64-mingw32/lib/../lib/libmsvcrt.a(dieybs01278.o)
                0x0000000061550ee4                __imp_tmpfile
 .idata$5       0x0000000061550eec        0x8 C:/msys64/mingw64/bin/../lib/gcc/x86_64-w64-mingw32/8.2.1/../../../../x86_64-w64-mingw32/lib/../lib/libmsvcrt.a(dieybs01280.o)
                0x0000000061550eec                __imp_tmpnam
 .idata$5       0x0000000061550ef4        0x8 C:/msys64/mingw64/bin/../lib/gcc/x86_64-w64-mingw32/8.2.1/../../../../x86_64-w64-mingw32/lib/../lib/libmsvcrt.a(dieybs01282.o)
                0x0000000061550ef4                __imp_tolower
 .idata$5       0x0000000061550efc        0x8 C:/msys64/mingw64/bin/../lib/gcc/x86_64-w64-mingw32/8.2.1/../../../../x86_64-w64-mingw32/lib/../lib/libmsvcrt.a(dieybs01286.o)
                0x0000000061550efc                __imp_ungetc
 .idata$5       0x0000000061550f04        0x8 C:/msys64/mingw64/bin/../lib/gcc/x86_64-w64-mingw32/8.2.1/../../../../x86_64-w64-mingw32/lib/../lib/libmsvcrt.a(dieybs01288.o)
                0x0000000061550f04                __imp_vfprintf
 .idata$5       0x0000000061550f0c        0x8 C:/msys64/mingw64/bin/../lib/gcc/x86_64-w64-mingw32/8.2.1/../../../../x86_64-w64-mingw32/lib/../lib/libmsvcrt.a(dieybs01305.o)
                0x0000000061550f0c                __imp_wcscpy
 .idata$5       0x0000000061550f14        0x8 C:/msys64/mingw64/bin/../lib/gcc/x86_64-w64-mingw32/8.2.1/../../../../x86_64-w64-mingw32/lib/../lib/libmsvcrt.a(dieybs01325.o)
                0x0000000061550f14                __imp_wcstombs
 .idata$5       0x0000000061550f1c        0x8 C:/msys64/mingw64/bin/../lib/gcc/x86_64-w64-mingw32/8.2.1/../../../../x86_64-w64-mingw32/lib/../lib/libmsvcrt.a(dieybt.o)
 .idata$5       0x0000000061550f24        0x0 C:/msys64/mingw64/bin/../lib/gcc/x86_64-w64-mingw32/8.2.1/../../../../x86_64-w64-mingw32/lib/../lib/libuser32.a(dyotbh.o)
 .idata$5       0x0000000061550f24        0x8 C:/msys64/mingw64/bin/../lib/gcc/x86_64-w64-mingw32/8.2.1/../../../../x86_64-w64-mingw32/lib/../lib/libuser32.a(dyotbs00619.o)
                0x0000000061550f24                __imp_MessageBoxW
 .idata$5       0x0000000061550f2c        0x8 C:/msys64/mingw64/bin/../lib/gcc/x86_64-w64-mingw32/8.2.1/../../../../x86_64-w64-mingw32/lib/../lib/libuser32.a(dyotbt.o)
 .idata$5       0x0000000061550f34        0x0 C:/msys64/mingw64/bin/../lib/gcc/x86_64-w64-mingw32/8.2.1/../../../../x86_64-w64-mingw32/lib/../lib/libws2_32.a(dmgsh.o)
 .idata$5       0x0000000061550f34        0x8 C:/msys64/mingw64/bin/../lib/gcc/x86_64-w64-mingw32/8.2.1/../../../../x86_64-w64-mingw32/lib/../lib/libws2_32.a(dmgss00030.o)
                0x0000000061550f34                __imp_WSACleanup
 .idata$5       0x0000000061550f3c        0x8 C:/msys64/mingw64/bin/../lib/gcc/x86_64-w64-mingw32/8.2.1/../../../../x86_64-w64-mingw32/lib/../lib/libws2_32.a(dmgss00047.o)
                0x0000000061550f3c                __imp_WSAGetLastError
 .idata$5       0x0000000061550f44        0x8 C:/msys64/mingw64/bin/../lib/gcc/x86_64-w64-mingw32/8.2.1/../../../../x86_64-w64-mingw32/lib/../lib/libws2_32.a(dmgss00088.o)
                0x0000000061550f44                __imp_WSAStartup
 .idata$5       0x0000000061550f4c        0x8 C:/msys64/mingw64/bin/../lib/gcc/x86_64-w64-mingw32/8.2.1/../../../../x86_64-w64-mingw32/lib/../lib/libws2_32.a(dmgss00160.o)
                0x0000000061550f4c                __imp___WSAFDIsSet
 .idata$5       0x0000000061550f54        0x8 C:/msys64/mingw64/bin/../lib/gcc/x86_64-w64-mingw32/8.2.1/../../../../x86_64-w64-mingw32/lib/../lib/libws2_32.a(dmgss00161.o)
                0x0000000061550f54                __imp_accept
 .idata$5       0x0000000061550f5c        0x8 C:/msys64/mingw64/bin/../lib/gcc/x86_64-w64-mingw32/8.2.1/../../../../x86_64-w64-mingw32/lib/../lib/libws2_32.a(dmgss00162.o)
                0x0000000061550f5c                __imp_bind
 .idata$5       0x0000000061550f64        0x8 C:/msys64/mingw64/bin/../lib/gcc/x86_64-w64-mingw32/8.2.1/../../../../x86_64-w64-mingw32/lib/../lib/libws2_32.a(dmgss00163.o)
                0x0000000061550f64                __imp_closesocket
 .idata$5       0x0000000061550f6c        0x8 C:/msys64/mingw64/bin/../lib/gcc/x86_64-w64-mingw32/8.2.1/../../../../x86_64-w64-mingw32/lib/../lib/libws2_32.a(dmgss00164.o)
                0x0000000061550f6c                __imp_connect
 .idata$5       0x0000000061550f74        0x8 C:/msys64/mingw64/bin/../lib/gcc/x86_64-w64-mingw32/8.2.1/../../../../x86_64-w64-mingw32/lib/../lib/libws2_32.a(dmgss00165.o)
                0x0000000061550f74                __imp_freeaddrinfo
 .idata$5       0x0000000061550f7c        0x8 C:/msys64/mingw64/bin/../lib/gcc/x86_64-w64-mingw32/8.2.1/../../../../x86_64-w64-mingw32/lib/../lib/libws2_32.a(dmgss00166.o)
                0x0000000061550f7c                __imp_getaddrinfo
 .idata$5       0x0000000061550f84        0x8 C:/msys64/mingw64/bin/../lib/gcc/x86_64-w64-mingw32/8.2.1/../../../../x86_64-w64-mingw32/lib/../lib/libws2_32.a(dmgss00167.o)
                0x0000000061550f84                __imp_gethostbyaddr
 .idata$5       0x0000000061550f8c        0x8 C:/msys64/mingw64/bin/../lib/gcc/x86_64-w64-mingw32/8.2.1/../../../../x86_64-w64-mingw32/lib/../lib/libws2_32.a(dmgss00168.o)
                0x0000000061550f8c                __imp_gethostbyname
 .idata$5       0x0000000061550f94        0x8 C:/msys64/mingw64/bin/../lib/gcc/x86_64-w64-mingw32/8.2.1/../../../../x86_64-w64-mingw32/lib/../lib/libws2_32.a(dmgss00169.o)
                0x0000000061550f94                __imp_gethostname
 .idata$5       0x0000000061550f9c        0x8 C:/msys64/mingw64/bin/../lib/gcc/x86_64-w64-mingw32/8.2.1/../../../../x86_64-w64-mingw32/lib/../lib/libws2_32.a(dmgss00170.o)
                0x0000000061550f9c                __imp_getnameinfo
 .idata$5       0x0000000061550fa4        0x8 C:/msys64/mingw64/bin/../lib/gcc/x86_64-w64-mingw32/8.2.1/../../../../x86_64-w64-mingw32/lib/../lib/libws2_32.a(dmgss00171.o)
                0x0000000061550fa4                __imp_getpeername
 .idata$5       0x0000000061550fac        0x8 C:/msys64/mingw64/bin/../lib/gcc/x86_64-w64-mingw32/8.2.1/../../../../x86_64-w64-mingw32/lib/../lib/libws2_32.a(dmgss00176.o)
                0x0000000061550fac                __imp_getsockname
 .idata$5       0x0000000061550fb4        0x8 C:/msys64/mingw64/bin/../lib/gcc/x86_64-w64-mingw32/8.2.1/../../../../x86_64-w64-mingw32/lib/../lib/libws2_32.a(dmgss00177.o)
                0x0000000061550fb4                __imp_getsockopt
 .idata$5       0x0000000061550fbc        0x8 C:/msys64/mingw64/bin/../lib/gcc/x86_64-w64-mingw32/8.2.1/../../../../x86_64-w64-mingw32/lib/../lib/libws2_32.a(dmgss00178.o)
                0x0000000061550fbc                __imp_htonl
 .idata$5       0x0000000061550fc4        0x8 C:/msys64/mingw64/bin/../lib/gcc/x86_64-w64-mingw32/8.2.1/../../../../x86_64-w64-mingw32/lib/../lib/libws2_32.a(dmgss00181.o)
                0x0000000061550fc4                __imp_inet_ntoa
 .idata$5       0x0000000061550fcc        0x8 C:/msys64/mingw64/bin/../lib/gcc/x86_64-w64-mingw32/8.2.1/../../../../x86_64-w64-mingw32/lib/../lib/libws2_32.a(dmgss00184.o)
                0x0000000061550fcc                __imp_ioctlsocket
 .idata$5       0x0000000061550fd4        0x8 C:/msys64/mingw64/bin/../lib/gcc/x86_64-w64-mingw32/8.2.1/../../../../x86_64-w64-mingw32/lib/../lib/libws2_32.a(dmgss00185.o)
                0x0000000061550fd4                __imp_listen
 .idata$5       0x0000000061550fdc        0x8 C:/msys64/mingw64/bin/../lib/gcc/x86_64-w64-mingw32/8.2.1/../../../../x86_64-w64-mingw32/lib/../lib/libws2_32.a(dmgss00188.o)
                0x0000000061550fdc                __imp_recv
 .idata$5       0x0000000061550fe4        0x8 C:/msys64/mingw64/bin/../lib/gcc/x86_64-w64-mingw32/8.2.1/../../../../x86_64-w64-mingw32/lib/../lib/libws2_32.a(dmgss00189.o)
                0x0000000061550fe4                __imp_recvfrom
 .idata$5       0x0000000061550fec        0x8 C:/msys64/mingw64/bin/../lib/gcc/x86_64-w64-mingw32/8.2.1/../../../../x86_64-w64-mingw32/lib/../lib/libws2_32.a(dmgss00190.o)
                0x0000000061550fec                __imp_select
 .idata$5       0x0000000061550ff4        0x8 C:/msys64/mingw64/bin/../lib/gcc/x86_64-w64-mingw32/8.2.1/../../../../x86_64-w64-mingw32/lib/../lib/libws2_32.a(dmgss00191.o)
                0x0000000061550ff4                __imp_send
 .idata$5       0x0000000061550ffc        0x8 C:/msys64/mingw64/bin/../lib/gcc/x86_64-w64-mingw32/8.2.1/../../../../x86_64-w64-mingw32/lib/../lib/libws2_32.a(dmgss00192.o)
                0x0000000061550ffc                __imp_sendto
 .idata$5       0x0000000061551004        0x8 C:/msys64/mingw64/bin/../lib/gcc/x86_64-w64-mingw32/8.2.1/../../../../x86_64-w64-mingw32/lib/../lib/libws2_32.a(dmgss00193.o)
                0x0000000061551004                __imp_setsockopt
 .idata$5       0x000000006155100c        0x8 C:/msys64/mingw64/bin/../lib/gcc/x86_64-w64-mingw32/8.2.1/../../../../x86_64-w64-mingw32/lib/../lib/libws2_32.a(dmgss00194.o)
                0x000000006155100c                __imp_shutdown
 .idata$5       0x0000000061551014        0x8 C:/msys64/mingw64/bin/../lib/gcc/x86_64-w64-mingw32/8.2.1/../../../../x86_64-w64-mingw32/lib/../lib/libws2_32.a(dmgss00195.o)
                0x0000000061551014                __imp_socket
 .idata$5       0x000000006155101c        0x8 C:/msys64/mingw64/bin/../lib/gcc/x86_64-w64-mingw32/8.2.1/../../../../x86_64-w64-mingw32/lib/../lib/libws2_32.a(dmgst.o)
                0x0000000061551024                __IAT_end__ = .
 SORT(*)(.idata$6)
 .idata$6       0x0000000061551024       0x12 C:/msys64/mingw64/bin/../lib/gcc/x86_64-w64-mingw32/8.2.1/../../../../x86_64-w64-mingw32/lib/../lib/libkernel32.a(dkzxbs00027.o)
 .idata$6       0x0000000061551036        0xe C:/msys64/mingw64/bin/../lib/gcc/x86_64-w64-mingw32/8.2.1/../../../../x86_64-w64-mingw32/lib/../lib/libkernel32.a(dkzxbs00130.o)
 .idata$6       0x0000000061551044        0xe C:/msys64/mingw64/bin/../lib/gcc/x86_64-w64-mingw32/8.2.1/../../../../x86_64-w64-mingw32/lib/../lib/libkernel32.a(dkzxbs00191.o)
 .idata$6       0x0000000061551052       0x16 C:/msys64/mingw64/bin/../lib/gcc/x86_64-w64-mingw32/8.2.1/../../../../x86_64-w64-mingw32/lib/../lib/libkernel32.a(dkzxbs00192.o)
 .idata$6       0x0000000061551068       0x16 C:/msys64/mingw64/bin/../lib/gcc/x86_64-w64-mingw32/8.2.1/../../../../x86_64-w64-mingw32/lib/../lib/libkernel32.a(dkzxbs00196.o)
 .idata$6       0x000000006155107e        0xe C:/msys64/mingw64/bin/../lib/gcc/x86_64-w64-mingw32/8.2.1/../../../../x86_64-w64-mingw32/lib/../lib/libkernel32.a(dkzxbs00199.o)
 .idata$6       0x000000006155108c       0x10 C:/msys64/mingw64/bin/../lib/gcc/x86_64-w64-mingw32/8.2.1/../../../../x86_64-w64-mingw32/lib/../lib/libkernel32.a(dkzxbs00214.o)
 .idata$6       0x000000006155109c       0x10 C:/msys64/mingw64/bin/../lib/gcc/x86_64-w64-mingw32/8.2.1/../../../../x86_64-w64-mingw32/lib/../lib/libkernel32.a(dkzxbs00237.o)
 .idata$6       0x00000000615510ac       0x18 C:/msys64/mingw64/bin/../lib/gcc/x86_64-w64-mingw32/8.2.1/../../../../x86_64-w64-mingw32/lib/../lib/libkernel32.a(dkzxbs00268.o)
 .idata$6       0x00000000615510c4        0xe C:/msys64/mingw64/bin/../lib/gcc/x86_64-w64-mingw32/8.2.1/../../../../x86_64-w64-mingw32/lib/../lib/libkernel32.a(dkzxbs00270.o)
 .idata$6       0x00000000615510d2        0xe C:/msys64/mingw64/bin/../lib/gcc/x86_64-w64-mingw32/8.2.1/../../../../x86_64-w64-mingw32/lib/../lib/libkernel32.a(dkzxbs00273.o)
 .idata$6       0x00000000615510e0       0x18 C:/msys64/mingw64/bin/../lib/gcc/x86_64-w64-mingw32/8.2.1/../../../../x86_64-w64-mingw32/lib/../lib/libkernel32.a(dkzxbs00304.o)
 .idata$6       0x00000000615510f8       0x14 C:/msys64/mingw64/bin/../lib/gcc/x86_64-w64-mingw32/8.2.1/../../../../x86_64-w64-mingw32/lib/../lib/libkernel32.a(dkzxbs00415.o)
 .idata$6       0x000000006155110c       0x12 C:/msys64/mingw64/bin/../lib/gcc/x86_64-w64-mingw32/8.2.1/../../../../x86_64-w64-mingw32/lib/../lib/libkernel32.a(dkzxbs00422.o)
 .idata$6       0x000000006155111e       0x12 C:/msys64/mingw64/bin/../lib/gcc/x86_64-w64-mingw32/8.2.1/../../../../x86_64-w64-mingw32/lib/../lib/libkernel32.a(dkzxbs00423.o)
 .idata$6       0x0000000061551130        0xe C:/msys64/mingw64/bin/../lib/gcc/x86_64-w64-mingw32/8.2.1/../../../../x86_64-w64-mingw32/lib/../lib/libkernel32.a(dkzxbs00427.o)
 .idata$6       0x000000006155113e       0x1e C:/msys64/mingw64/bin/../lib/gcc/x86_64-w64-mingw32/8.2.1/../../../../x86_64-w64-mingw32/lib/../lib/libkernel32.a(dkzxbs00514.o)
 .idata$6       0x000000006155115c       0x14 C:/msys64/mingw64/bin/../lib/gcc/x86_64-w64-mingw32/8.2.1/../../../../x86_64-w64-mingw32/lib/../lib/libkernel32.a(dkzxbs00535.o)
 .idata$6       0x0000000061551170       0x16 C:/msys64/mingw64/bin/../lib/gcc/x86_64-w64-mingw32/8.2.1/../../../../x86_64-w64-mingw32/lib/../lib/libkernel32.a(dkzxbs00536.o)
 .idata$6       0x0000000061551186       0x16 C:/msys64/mingw64/bin/../lib/gcc/x86_64-w64-mingw32/8.2.1/../../../../x86_64-w64-mingw32/lib/../lib/libkernel32.a(dkzxbs00540.o)
 .idata$6       0x000000006155119c       0x14 C:/msys64/mingw64/bin/../lib/gcc/x86_64-w64-mingw32/8.2.1/../../../../x86_64-w64-mingw32/lib/../lib/libkernel32.a(dkzxbs00552.o)
 .idata$6       0x00000000615511b0       0x14 C:/msys64/mingw64/bin/../lib/gcc/x86_64-w64-mingw32/8.2.1/../../../../x86_64-w64-mingw32/lib/../lib/libkernel32.a(dkzxbs00555.o)
 .idata$6       0x00000000615511c4       0x16 C:/msys64/mingw64/bin/../lib/gcc/x86_64-w64-mingw32/8.2.1/../../../../x86_64-w64-mingw32/lib/../lib/libkernel32.a(dkzxbs00578.o)
 .idata$6       0x00000000615511da       0x18 C:/msys64/mingw64/bin/../lib/gcc/x86_64-w64-mingw32/8.2.1/../../../../x86_64-w64-mingw32/lib/../lib/libkernel32.a(dkzxbs00580.o)
 .idata$6       0x00000000615511f2       0x16 C:/msys64/mingw64/bin/../lib/gcc/x86_64-w64-mingw32/8.2.1/../../../../x86_64-w64-mingw32/lib/../lib/libkernel32.a(dkzxbs00583.o)
 .idata$6       0x0000000061551208        0xe C:/msys64/mingw64/bin/../lib/gcc/x86_64-w64-mingw32/8.2.1/../../../../x86_64-w64-mingw32/lib/../lib/libkernel32.a(dkzxbs00589.o)
 .idata$6       0x0000000061551216       0x14 C:/msys64/mingw64/bin/../lib/gcc/x86_64-w64-mingw32/8.2.1/../../../../x86_64-w64-mingw32/lib/../lib/libkernel32.a(dkzxbs00600.o)
 .idata$6       0x000000006155122a       0x14 C:/msys64/mingw64/bin/../lib/gcc/x86_64-w64-mingw32/8.2.1/../../../../x86_64-w64-mingw32/lib/../lib/libkernel32.a(dkzxbs00603.o)
 .idata$6       0x000000006155123e       0x10 C:/msys64/mingw64/bin/../lib/gcc/x86_64-w64-mingw32/8.2.1/../../../../x86_64-w64-mingw32/lib/../lib/libkernel32.a(dkzxbs00609.o)
 .idata$6       0x000000006155124e       0x16 C:/msys64/mingw64/bin/../lib/gcc/x86_64-w64-mingw32/8.2.1/../../../../x86_64-w64-mingw32/lib/../lib/libkernel32.a(dkzxbs00628.o)
 .idata$6       0x0000000061551264       0x16 C:/msys64/mingw64/bin/../lib/gcc/x86_64-w64-mingw32/8.2.1/../../../../x86_64-w64-mingw32/lib/../lib/libkernel32.a(dkzxbs00629.o)
 .idata$6       0x000000006155127a       0x14 C:/msys64/mingw64/bin/../lib/gcc/x86_64-w64-mingw32/8.2.1/../../../../x86_64-w64-mingw32/lib/../lib/libkernel32.a(dkzxbs00630.o)
 .idata$6       0x000000006155128e       0x16 C:/msys64/mingw64/bin/../lib/gcc/x86_64-w64-mingw32/8.2.1/../../../../x86_64-w64-mingw32/lib/../lib/libkernel32.a(dkzxbs00631.o)
 .idata$6       0x00000000615512a4       0x12 C:/msys64/mingw64/bin/../lib/gcc/x86_64-w64-mingw32/8.2.1/../../../../x86_64-w64-mingw32/lib/../lib/libkernel32.a(dkzxbs00689.o)
 .idata$6       0x00000000615512b6       0x12 C:/msys64/mingw64/bin/../lib/gcc/x86_64-w64-mingw32/8.2.1/../../../../x86_64-w64-mingw32/lib/../lib/libkernel32.a(dkzxbs00694.o)
 .idata$6       0x00000000615512c8       0x10 C:/msys64/mingw64/bin/../lib/gcc/x86_64-w64-mingw32/8.2.1/../../../../x86_64-w64-mingw32/lib/../lib/libkernel32.a(dkzxbs00724.o)
 .idata$6       0x00000000615512d8       0x10 C:/msys64/mingw64/bin/../lib/gcc/x86_64-w64-mingw32/8.2.1/../../../../x86_64-w64-mingw32/lib/../lib/libkernel32.a(dkzxbs00740.o)
 .idata$6       0x00000000615512e8       0x10 C:/msys64/mingw64/bin/../lib/gcc/x86_64-w64-mingw32/8.2.1/../../../../x86_64-w64-mingw32/lib/../lib/libkernel32.a(dkzxbs00744.o)
 .idata$6       0x00000000615512f8       0x1a C:/msys64/mingw64/bin/../lib/gcc/x86_64-w64-mingw32/8.2.1/../../../../x86_64-w64-mingw32/lib/../lib/libkernel32.a(dkzxbs00746.o)
 .idata$6       0x0000000061551312       0x10 C:/msys64/mingw64/bin/../lib/gcc/x86_64-w64-mingw32/8.2.1/../../../../x86_64-w64-mingw32/lib/../lib/libkernel32.a(dkzxbs00758.o)
 .idata$6       0x0000000061551322       0x10 C:/msys64/mingw64/bin/../lib/gcc/x86_64-w64-mingw32/8.2.1/../../../../x86_64-w64-mingw32/lib/../lib/libkernel32.a(dkzxbs00759.o)
 .idata$6       0x0000000061551332       0x10 C:/msys64/mingw64/bin/../lib/gcc/x86_64-w64-mingw32/8.2.1/../../../../x86_64-w64-mingw32/lib/../lib/libkernel32.a(dkzxbs00774.o)
 .idata$6       0x0000000061551342       0x1a C:/msys64/mingw64/bin/../lib/gcc/x86_64-w64-mingw32/8.2.1/../../../../x86_64-w64-mingw32/lib/../lib/libkernel32.a(dkzxbs00781.o)
 .idata$6       0x000000006155135c       0x10 C:/msys64/mingw64/bin/../lib/gcc/x86_64-w64-mingw32/8.2.1/../../../../x86_64-w64-mingw32/lib/../lib/libkernel32.a(dkzxbs00793.o)
 .idata$6       0x000000006155136c       0x10 C:/msys64/mingw64/bin/../lib/gcc/x86_64-w64-mingw32/8.2.1/../../../../x86_64-w64-mingw32/lib/../lib/libkernel32.a(dkzxbs00794.o)
 .idata$6       0x000000006155137c        0xc C:/msys64/mingw64/bin/../lib/gcc/x86_64-w64-mingw32/8.2.1/../../../../x86_64-w64-mingw32/lib/../lib/libkernel32.a(dkzxbs00835.o)
 .idata$6       0x0000000061551388        0xe C:/msys64/mingw64/bin/../lib/gcc/x86_64-w64-mingw32/8.2.1/../../../../x86_64-w64-mingw32/lib/../lib/libkernel32.a(dkzxbs00836.o)
 .idata$6       0x0000000061551396        0xe C:/msys64/mingw64/bin/../lib/gcc/x86_64-w64-mingw32/8.2.1/../../../../x86_64-w64-mingw32/lib/../lib/libkernel32.a(dkzxbs00837.o)
 .idata$6       0x00000000615513a4        0xe C:/msys64/mingw64/bin/../lib/gcc/x86_64-w64-mingw32/8.2.1/../../../../x86_64-w64-mingw32/lib/../lib/libkernel32.a(dkzxbs00839.o)
 .idata$6       0x00000000615513b2        0xc C:/msys64/mingw64/bin/../lib/gcc/x86_64-w64-mingw32/8.2.1/../../../../x86_64-w64-mingw32/lib/../lib/libkernel32.a(dkzxbs00841.o)
 .idata$6       0x00000000615513be        0xe C:/msys64/mingw64/bin/../lib/gcc/x86_64-w64-mingw32/8.2.1/../../../../x86_64-w64-mingw32/lib/../lib/libkernel32.a(dkzxbs00845.o)
 .idata$6       0x00000000615513cc        0xc C:/msys64/mingw64/bin/../lib/gcc/x86_64-w64-mingw32/8.2.1/../../../../x86_64-w64-mingw32/lib/../lib/libkernel32.a(dkzxbs00847.o)
 .idata$6       0x00000000615513d8       0x10 C:/msys64/mingw64/bin/../lib/gcc/x86_64-w64-mingw32/8.2.1/../../../../x86_64-w64-mingw32/lib/../lib/libkernel32.a(dkzxbs00851.o)
 .idata$6       0x00000000615513e8       0x1c C:/msys64/mingw64/bin/../lib/gcc/x86_64-w64-mingw32/8.2.1/../../../../x86_64-w64-mingw32/lib/../lib/libkernel32.a(dkzxbs00863.o)
 .idata$6       0x0000000061551404       0x18 C:/msys64/mingw64/bin/../lib/gcc/x86_64-w64-mingw32/8.2.1/../../../../x86_64-w64-mingw32/lib/../lib/libkernel32.a(dkzxbs00951.o)
 .idata$6       0x000000006155141c       0x10 C:/msys64/mingw64/bin/../lib/gcc/x86_64-w64-mingw32/8.2.1/../../../../x86_64-w64-mingw32/lib/../lib/libkernel32.a(dkzxbs00954.o)
 .idata$6       0x000000006155142c       0x12 C:/msys64/mingw64/bin/../lib/gcc/x86_64-w64-mingw32/8.2.1/../../../../x86_64-w64-mingw32/lib/../lib/libkernel32.a(dkzxbs00955.o)
 .idata$6       0x000000006155143e       0x10 C:/msys64/mingw64/bin/../lib/gcc/x86_64-w64-mingw32/8.2.1/../../../../x86_64-w64-mingw32/lib/../lib/libkernel32.a(dkzxbs00957.o)
 .idata$6       0x000000006155144e        0xc C:/msys64/mingw64/bin/../lib/gcc/x86_64-w64-mingw32/8.2.1/../../../../x86_64-w64-mingw32/lib/../lib/libkernel32.a(dkzxbs00967.o)
 .idata$6       0x000000006155145a        0xc C:/msys64/mingw64/bin/../lib/gcc/x86_64-w64-mingw32/8.2.1/../../../../x86_64-w64-mingw32/lib/../lib/libkernel32.a(dkzxbs00977.o)
 .idata$6       0x0000000061551466        0xe C:/msys64/mingw64/bin/../lib/gcc/x86_64-w64-mingw32/8.2.1/../../../../x86_64-w64-mingw32/lib/../lib/libkernel32.a(dkzxbs00978.o)
 .idata$6       0x0000000061551474       0x10 C:/msys64/mingw64/bin/../lib/gcc/x86_64-w64-mingw32/8.2.1/../../../../x86_64-w64-mingw32/lib/../lib/libkernel32.a(dkzxbs00982.o)
 .idata$6       0x0000000061551484       0x16 C:/msys64/mingw64/bin/../lib/gcc/x86_64-w64-mingw32/8.2.1/../../../../x86_64-w64-mingw32/lib/../lib/libkernel32.a(dkzxbs00999.o)
 .idata$6       0x000000006155149a       0x16 C:/msys64/mingw64/bin/../lib/gcc/x86_64-w64-mingw32/8.2.1/../../../../x86_64-w64-mingw32/lib/../lib/libkernel32.a(dkzxbs01041.o)
 .idata$6       0x00000000615514b0       0x16 C:/msys64/mingw64/bin/../lib/gcc/x86_64-w64-mingw32/8.2.1/../../../../x86_64-w64-mingw32/lib/../lib/libkernel32.a(dkzxbs01042.o)
 .idata$6       0x00000000615514c6       0x1a C:/msys64/mingw64/bin/../lib/gcc/x86_64-w64-mingw32/8.2.1/../../../../x86_64-w64-mingw32/lib/../lib/libkernel32.a(dkzxbs01093.o)
 .idata$6       0x00000000615514e0       0x12 C:/msys64/mingw64/bin/../lib/gcc/x86_64-w64-mingw32/8.2.1/../../../../x86_64-w64-mingw32/lib/../lib/libkernel32.a(dkzxbs01112.o)
 .idata$6       0x00000000615514f2        0xc C:/msys64/mingw64/bin/../lib/gcc/x86_64-w64-mingw32/8.2.1/../../../../x86_64-w64-mingw32/lib/../lib/libkernel32.a(dkzxbs01128.o)
 .idata$6       0x00000000615514fe       0x16 C:/msys64/mingw64/bin/../lib/gcc/x86_64-w64-mingw32/8.2.1/../../../../x86_64-w64-mingw32/lib/../lib/libkernel32.a(dkzxbs01179.o)
 .idata$6       0x0000000061551514       0x14 C:/msys64/mingw64/bin/../lib/gcc/x86_64-w64-mingw32/8.2.1/../../../../x86_64-w64-mingw32/lib/../lib/libkernel32.a(dkzxbs01180.o)
 .idata$6       0x0000000061551528       0x1a C:/msys64/mingw64/bin/../lib/gcc/x86_64-w64-mingw32/8.2.1/../../../../x86_64-w64-mingw32/lib/../lib/libkernel32.a(dkzxbs01187.o)
 .idata$6       0x0000000061551542        0xe C:/msys64/mingw64/bin/../lib/gcc/x86_64-w64-mingw32/8.2.1/../../../../x86_64-w64-mingw32/lib/../lib/libkernel32.a(dkzxbs01193.o)
 .idata$6       0x0000000061551550       0x14 C:/msys64/mingw64/bin/../lib/gcc/x86_64-w64-mingw32/8.2.1/../../../../x86_64-w64-mingw32/lib/../lib/libkernel32.a(dkzxbs01194.o)
 .idata$6       0x0000000061551564       0x1a C:/msys64/mingw64/bin/../lib/gcc/x86_64-w64-mingw32/8.2.1/../../../../x86_64-w64-mingw32/lib/../lib/libkernel32.a(dkzxbs01243.o)
 .idata$6       0x000000006155157e       0x10 C:/msys64/mingw64/bin/../lib/gcc/x86_64-w64-mingw32/8.2.1/../../../../x86_64-w64-mingw32/lib/../lib/libkernel32.a(dkzxbs01257.o)
 .idata$6       0x000000006155158e       0x12 C:/msys64/mingw64/bin/../lib/gcc/x86_64-w64-mingw32/8.2.1/../../../../x86_64-w64-mingw32/lib/../lib/libkernel32.a(dkzxbs01276.o)
 .idata$6       0x00000000615515a0       0x10 C:/msys64/mingw64/bin/../lib/gcc/x86_64-w64-mingw32/8.2.1/../../../../x86_64-w64-mingw32/lib/../lib/libkernel32.a(dkzxbs01290.o)
 .idata$6       0x00000000615515b0       0x1e C:/msys64/mingw64/bin/../lib/gcc/x86_64-w64-mingw32/8.2.1/../../../../x86_64-w64-mingw32/lib/../lib/libkernel32.a(dkzxbs01346.o)
 .idata$6       0x00000000615515ce        0x8 C:/msys64/mingw64/bin/../lib/gcc/x86_64-w64-mingw32/8.2.1/../../../../x86_64-w64-mingw32/lib/../lib/libkernel32.a(dkzxbs01360.o)
 .idata$6       0x00000000615515d6       0x18 C:/msys64/mingw64/bin/../lib/gcc/x86_64-w64-mingw32/8.2.1/../../../../x86_64-w64-mingw32/lib/../lib/libkernel32.a(dkzxbs01371.o)
 .idata$6       0x00000000615515ee       0x14 C:/msys64/mingw64/bin/../lib/gcc/x86_64-w64-mingw32/8.2.1/../../../../x86_64-w64-mingw32/lib/../lib/libkernel32.a(dkzxbs01375.o)
 .idata$6       0x0000000061551602        0xe C:/msys64/mingw64/bin/../lib/gcc/x86_64-w64-mingw32/8.2.1/../../../../x86_64-w64-mingw32/lib/../lib/libkernel32.a(dkzxbs01395.o)
 .idata$6       0x0000000061551610       0x1a C:/msys64/mingw64/bin/../lib/gcc/x86_64-w64-mingw32/8.2.1/../../../../x86_64-w64-mingw32/lib/../lib/libkernel32.a(dkzxbs01402.o)
 .idata$6       0x000000006155162a       0x1c C:/msys64/mingw64/bin/../lib/gcc/x86_64-w64-mingw32/8.2.1/../../../../x86_64-w64-mingw32/lib/../lib/libkernel32.a(dkzxbs01409.o)
 .idata$6       0x0000000061551646        0xe C:/msys64/mingw64/bin/../lib/gcc/x86_64-w64-mingw32/8.2.1/../../../../x86_64-w64-mingw32/lib/../lib/libkernel32.a(dkzxbs01410.o)
 .idata$6       0x0000000061551654       0x10 C:/msys64/mingw64/bin/../lib/gcc/x86_64-w64-mingw32/8.2.1/../../../../x86_64-w64-mingw32/lib/../lib/libkernel32.a(dkzxbs01411.o)
 .idata$6       0x0000000061551664       0x12 C:/msys64/mingw64/bin/../lib/gcc/x86_64-w64-mingw32/8.2.1/../../../../x86_64-w64-mingw32/lib/../lib/libkernel32.a(dkzxbs01412.o)
 .idata$6       0x0000000061551676       0x10 C:/msys64/mingw64/bin/../lib/gcc/x86_64-w64-mingw32/8.2.1/../../../../x86_64-w64-mingw32/lib/../lib/libkernel32.a(dkzxbs01436.o)
 .idata$6       0x0000000061551686        0xe C:/msys64/mingw64/bin/../lib/gcc/x86_64-w64-mingw32/8.2.1/../../../../x86_64-w64-mingw32/lib/../lib/libkernel32.a(dkzxbs01440.o)
 .idata$6       0x0000000061551694       0x12 C:/msys64/mingw64/bin/../lib/gcc/x86_64-w64-mingw32/8.2.1/../../../../x86_64-w64-mingw32/lib/../lib/libkernel32.a(dkzxbs01443.o)
 .idata$6       0x00000000615516a6       0x10 C:/msys64/mingw64/bin/../lib/gcc/x86_64-w64-mingw32/8.2.1/../../../../x86_64-w64-mingw32/lib/../lib/libkernel32.a(dkzxbs01445.o)
 .idata$6       0x00000000615516b6       0x16 C:/msys64/mingw64/bin/../lib/gcc/x86_64-w64-mingw32/8.2.1/../../../../x86_64-w64-mingw32/lib/../lib/libkernel32.a(dkzxbs01453.o)
 .idata$6       0x00000000615516cc       0x18 C:/msys64/mingw64/bin/../lib/gcc/x86_64-w64-mingw32/8.2.1/../../../../x86_64-w64-mingw32/lib/../lib/libkernel32.a(dkzxbs01454.o)
 .idata$6       0x00000000615516e4       0x16 C:/msys64/mingw64/bin/../lib/gcc/x86_64-w64-mingw32/8.2.1/../../../../x86_64-w64-mingw32/lib/../lib/libkernel32.a(dkzxbs01490.o)
 .idata$6       0x00000000615516fa        0xc C:/msys64/mingw64/bin/../lib/gcc/x86_64-w64-mingw32/8.2.1/../../../../x86_64-w64-mingw32/lib/../lib/libkernel32.a(dkzxbs01510.o)
 .idata$6       0x0000000061551706       0x1c C:/msys64/mingw64/bin/../lib/gcc/x86_64-w64-mingw32/8.2.1/../../../../x86_64-w64-mingw32/lib/../lib/libmsvcrt.a(dieybs00058.o)
 .idata$6       0x0000000061551722        0xe C:/msys64/mingw64/bin/../lib/gcc/x86_64-w64-mingw32/8.2.1/../../../../x86_64-w64-mingw32/lib/../lib/libmsvcrt.a(dieybs00078.o)
 .idata$6       0x0000000061551730        0xe C:/msys64/mingw64/bin/../lib/gcc/x86_64-w64-mingw32/8.2.1/../../../../x86_64-w64-mingw32/lib/../lib/libmsvcrt.a(dieybs00079.o)
 .idata$6       0x000000006155173e        0xe C:/msys64/mingw64/bin/../lib/gcc/x86_64-w64-mingw32/8.2.1/../../../../x86_64-w64-mingw32/lib/../lib/libmsvcrt.a(dieybs00083.o)
 .idata$6       0x000000006155174c        0xc C:/msys64/mingw64/bin/../lib/gcc/x86_64-w64-mingw32/8.2.1/../../../../x86_64-w64-mingw32/lib/../lib/libmsvcrt.a(dieybs00122.o)
 .idata$6       0x0000000061551758       0x14 C:/msys64/mingw64/bin/../lib/gcc/x86_64-w64-mingw32/8.2.1/../../../../x86_64-w64-mingw32/lib/../lib/libmsvcrt.a(dieybs00127.o)
 .idata$6       0x000000006155176c        0xa C:/msys64/mingw64/bin/../lib/gcc/x86_64-w64-mingw32/8.2.1/../../../../x86_64-w64-mingw32/lib/../lib/libmsvcrt.a(dieybs00142.o)
 .idata$6       0x0000000061551776        0xe C:/msys64/mingw64/bin/../lib/gcc/x86_64-w64-mingw32/8.2.1/../../../../x86_64-w64-mingw32/lib/../lib/libmsvcrt.a(dieybs00156.o)
 .idata$6       0x0000000061551784        0xa C:/msys64/mingw64/bin/../lib/gcc/x86_64-w64-mingw32/8.2.1/../../../../x86_64-w64-mingw32/lib/../lib/libmsvcrt.a(dieybs00162.o)
 .idata$6       0x000000006155178e       0x12 C:/msys64/mingw64/bin/../lib/gcc/x86_64-w64-mingw32/8.2.1/../../../../x86_64-w64-mingw32/lib/../lib/libmsvcrt.a(dieybs00171.o)
 .idata$6       0x00000000615517a0       0x10 C:/msys64/mingw64/bin/../lib/gcc/x86_64-w64-mingw32/8.2.1/../../../../x86_64-w64-mingw32/lib/../lib/libmsvcrt.a(dieybs00233.o)
 .idata$6       0x00000000615517b0        0xa C:/msys64/mingw64/bin/../lib/gcc/x86_64-w64-mingw32/8.2.1/../../../../x86_64-w64-mingw32/lib/../lib/libmsvcrt.a(dieybs00237.o)
 .idata$6       0x00000000615517ba        0x8 C:/msys64/mingw64/bin/../lib/gcc/x86_64-w64-mingw32/8.2.1/../../../../x86_64-w64-mingw32/lib/../lib/libmsvcrt.a(dieybs00254.o)
 .idata$6       0x00000000615517c2       0x12 C:/msys64/mingw64/bin/../lib/gcc/x86_64-w64-mingw32/8.2.1/../../../../x86_64-w64-mingw32/lib/../lib/libmsvcrt.a(dieybs00271.o)
 .idata$6       0x00000000615517d4        0xa C:/msys64/mingw64/bin/../lib/gcc/x86_64-w64-mingw32/8.2.1/../../../../x86_64-w64-mingw32/lib/../lib/libmsvcrt.a(dieybs00273.o)
 .idata$6       0x00000000615517de        0xa C:/msys64/mingw64/bin/../lib/gcc/x86_64-w64-mingw32/8.2.1/../../../../x86_64-w64-mingw32/lib/../lib/libmsvcrt.a(dieybs00288.o)
 .idata$6       0x00000000615517e8        0xc C:/msys64/mingw64/bin/../lib/gcc/x86_64-w64-mingw32/8.2.1/../../../../x86_64-w64-mingw32/lib/../lib/libmsvcrt.a(dieybs00353.o)
 .idata$6       0x00000000615517f4        0xc C:/msys64/mingw64/bin/../lib/gcc/x86_64-w64-mingw32/8.2.1/../../../../x86_64-w64-mingw32/lib/../lib/libmsvcrt.a(dieybs00369.o)
 .idata$6       0x0000000061551800        0xa C:/msys64/mingw64/bin/../lib/gcc/x86_64-w64-mingw32/8.2.1/../../../../x86_64-w64-mingw32/lib/../lib/libmsvcrt.a(dieybs00373.o)
 .idata$6       0x000000006155180a       0x10 C:/msys64/mingw64/bin/../lib/gcc/x86_64-w64-mingw32/8.2.1/../../../../x86_64-w64-mingw32/lib/../lib/libmsvcrt.a(dieybs00478.o)
 .idata$6       0x000000006155181a        0x8 C:/msys64/mingw64/bin/../lib/gcc/x86_64-w64-mingw32/8.2.1/../../../../x86_64-w64-mingw32/lib/../lib/libmsvcrt.a(dieybs00479.o)
 .idata$6       0x0000000061551822        0xc C:/msys64/mingw64/bin/../lib/gcc/x86_64-w64-mingw32/8.2.1/../../../../x86_64-w64-mingw32/lib/../lib/libmsvcrt.a(dieybs00489.o)
 .idata$6       0x000000006155182e        0xc C:/msys64/mingw64/bin/../lib/gcc/x86_64-w64-mingw32/8.2.1/../../../../x86_64-w64-mingw32/lib/../lib/libmsvcrt.a(dieybs00646.o)
 .idata$6       0x000000006155183a        0xa C:/msys64/mingw64/bin/../lib/gcc/x86_64-w64-mingw32/8.2.1/../../../../x86_64-w64-mingw32/lib/../lib/libmsvcrt.a(dieybs00651.o)
 .idata$6       0x0000000061551844        0xa C:/msys64/mingw64/bin/../lib/gcc/x86_64-w64-mingw32/8.2.1/../../../../x86_64-w64-mingw32/lib/../lib/libmsvcrt.a(dieybs00659.o)
 .idata$6       0x000000006155184e        0xa C:/msys64/mingw64/bin/../lib/gcc/x86_64-w64-mingw32/8.2.1/../../../../x86_64-w64-mingw32/lib/../lib/libmsvcrt.a(dieybs00663.o)
 .idata$6       0x0000000061551858        0xc C:/msys64/mingw64/bin/../lib/gcc/x86_64-w64-mingw32/8.2.1/../../../../x86_64-w64-mingw32/lib/../lib/libmsvcrt.a(dieybs00714.o)
 .idata$6       0x0000000061551864        0xe C:/msys64/mingw64/bin/../lib/gcc/x86_64-w64-mingw32/8.2.1/../../../../x86_64-w64-mingw32/lib/../lib/libmsvcrt.a(dieybs00728.o)
 .idata$6       0x0000000061551872        0xc C:/msys64/mingw64/bin/../lib/gcc/x86_64-w64-mingw32/8.2.1/../../../../x86_64-w64-mingw32/lib/../lib/libmsvcrt.a(dieybs00789.o)
 .idata$6       0x000000006155187e        0xa C:/msys64/mingw64/bin/../lib/gcc/x86_64-w64-mingw32/8.2.1/../../../../x86_64-w64-mingw32/lib/../lib/libmsvcrt.a(dieybs00834.o)
 .idata$6       0x0000000061551888        0xa C:/msys64/mingw64/bin/../lib/gcc/x86_64-w64-mingw32/8.2.1/../../../../x86_64-w64-mingw32/lib/../lib/libmsvcrt.a(dieybs00863.o)
 .idata$6       0x0000000061551892        0xe C:/msys64/mingw64/bin/../lib/gcc/x86_64-w64-mingw32/8.2.1/../../../../x86_64-w64-mingw32/lib/../lib/libmsvcrt.a(dieybs00895.o)
 .idata$6       0x00000000615518a0        0xa C:/msys64/mingw64/bin/../lib/gcc/x86_64-w64-mingw32/8.2.1/../../../../x86_64-w64-mingw32/lib/../lib/libmsvcrt.a(dieybs01031.o)
 .idata$6       0x00000000615518aa        0x8 C:/msys64/mingw64/bin/../lib/gcc/x86_64-w64-mingw32/8.2.1/../../../../x86_64-w64-mingw32/lib/../lib/libmsvcrt.a(dieybs01077.o)
 .idata$6       0x00000000615518b2        0x8 C:/msys64/mingw64/bin/../lib/gcc/x86_64-w64-mingw32/8.2.1/../../../../x86_64-w64-mingw32/lib/../lib/libmsvcrt.a(dieybs01079.o)
 .idata$6       0x00000000615518ba        0x8 C:/msys64/mingw64/bin/../lib/gcc/x86_64-w64-mingw32/8.2.1/../../../../x86_64-w64-mingw32/lib/../lib/libmsvcrt.a(dieybs01082.o)
 .idata$6       0x00000000615518c2        0x8 C:/msys64/mingw64/bin/../lib/gcc/x86_64-w64-mingw32/8.2.1/../../../../x86_64-w64-mingw32/lib/../lib/libmsvcrt.a(dieybs01084.o)
 .idata$6       0x00000000615518ca        0x8 C:/msys64/mingw64/bin/../lib/gcc/x86_64-w64-mingw32/8.2.1/../../../../x86_64-w64-mingw32/lib/../lib/libmsvcrt.a(dieybs01090.o)
 .idata$6       0x00000000615518d2        0xa C:/msys64/mingw64/bin/../lib/gcc/x86_64-w64-mingw32/8.2.1/../../../../x86_64-w64-mingw32/lib/../lib/libmsvcrt.a(dieybs01094.o)
 .idata$6       0x00000000615518dc        0xc C:/msys64/mingw64/bin/../lib/gcc/x86_64-w64-mingw32/8.2.1/../../../../x86_64-w64-mingw32/lib/../lib/libmsvcrt.a(dieybs01097.o)
 .idata$6       0x00000000615518e8        0x8 C:/msys64/mingw64/bin/../lib/gcc/x86_64-w64-mingw32/8.2.1/../../../../x86_64-w64-mingw32/lib/../lib/libmsvcrt.a(dieybs01099.o)
 .idata$6       0x00000000615518f0        0x8 C:/msys64/mingw64/bin/../lib/gcc/x86_64-w64-mingw32/8.2.1/../../../../x86_64-w64-mingw32/lib/../lib/libmsvcrt.a(dieybs01102.o)
 .idata$6       0x00000000615518f8        0x8 C:/msys64/mingw64/bin/../lib/gcc/x86_64-w64-mingw32/8.2.1/../../../../x86_64-w64-mingw32/lib/../lib/libmsvcrt.a(dieybs01107.o)
 .idata$6       0x0000000061551900        0xa C:/msys64/mingw64/bin/../lib/gcc/x86_64-w64-mingw32/8.2.1/../../../../x86_64-w64-mingw32/lib/../lib/libmsvcrt.a(dieybs01111.o)
 .idata$6       0x000000006155190a        0x8 C:/msys64/mingw64/bin/../lib/gcc/x86_64-w64-mingw32/8.2.1/../../../../x86_64-w64-mingw32/lib/../lib/libmsvcrt.a(dieybs01112.o)
 .idata$6       0x0000000061551912        0xa C:/msys64/mingw64/bin/../lib/gcc/x86_64-w64-mingw32/8.2.1/../../../../x86_64-w64-mingw32/lib/../lib/libmsvcrt.a(dieybs01113.o)
 .idata$6       0x000000006155191c        0xa C:/msys64/mingw64/bin/../lib/gcc/x86_64-w64-mingw32/8.2.1/../../../../x86_64-w64-mingw32/lib/../lib/libmsvcrt.a(dieybs01114.o)
 .idata$6       0x0000000061551926        0x8 C:/msys64/mingw64/bin/../lib/gcc/x86_64-w64-mingw32/8.2.1/../../../../x86_64-w64-mingw32/lib/../lib/libmsvcrt.a(dieybs01115.o)
 .idata$6       0x000000006155192e        0xa C:/msys64/mingw64/bin/../lib/gcc/x86_64-w64-mingw32/8.2.1/../../../../x86_64-w64-mingw32/lib/../lib/libmsvcrt.a(dieybs01116.o)
 .idata$6       0x0000000061551938        0x8 C:/msys64/mingw64/bin/../lib/gcc/x86_64-w64-mingw32/8.2.1/../../../../x86_64-w64-mingw32/lib/../lib/libmsvcrt.a(dieybs01117.o)
 .idata$6       0x0000000061551940        0x8 C:/msys64/mingw64/bin/../lib/gcc/x86_64-w64-mingw32/8.2.1/../../../../x86_64-w64-mingw32/lib/../lib/libmsvcrt.a(dieybs01124.o)
 .idata$6       0x0000000061551948        0xa C:/msys64/mingw64/bin/../lib/gcc/x86_64-w64-mingw32/8.2.1/../../../../x86_64-w64-mingw32/lib/../lib/libmsvcrt.a(dieybs01126.o)
 .idata$6       0x0000000061551952        0x8 C:/msys64/mingw64/bin/../lib/gcc/x86_64-w64-mingw32/8.2.1/../../../../x86_64-w64-mingw32/lib/../lib/libmsvcrt.a(dieybs01128.o)
 .idata$6       0x000000006155195a        0x8 C:/msys64/mingw64/bin/../lib/gcc/x86_64-w64-mingw32/8.2.1/../../../../x86_64-w64-mingw32/lib/../lib/libmsvcrt.a(dieybs01129.o)
 .idata$6       0x0000000061551962        0x8 C:/msys64/mingw64/bin/../lib/gcc/x86_64-w64-mingw32/8.2.1/../../../../x86_64-w64-mingw32/lib/../lib/libmsvcrt.a(dieybs01132.o)
 .idata$6       0x000000006155196a        0x8 C:/msys64/mingw64/bin/../lib/gcc/x86_64-w64-mingw32/8.2.1/../../../../x86_64-w64-mingw32/lib/../lib/libmsvcrt.a(dieybs01133.o)
 .idata$6       0x0000000061551972        0x8 C:/msys64/mingw64/bin/../lib/gcc/x86_64-w64-mingw32/8.2.1/../../../../x86_64-w64-mingw32/lib/../lib/libmsvcrt.a(dieybs01136.o)
 .idata$6       0x000000006155197a        0xa C:/msys64/mingw64/bin/../lib/gcc/x86_64-w64-mingw32/8.2.1/../../../../x86_64-w64-mingw32/lib/../lib/libmsvcrt.a(dieybs01137.o)
 .idata$6       0x0000000061551984        0x8 C:/msys64/mingw64/bin/../lib/gcc/x86_64-w64-mingw32/8.2.1/../../../../x86_64-w64-mingw32/lib/../lib/libmsvcrt.a(dieybs01140.o)
 .idata$6       0x000000006155198c        0xa C:/msys64/mingw64/bin/../lib/gcc/x86_64-w64-mingw32/8.2.1/../../../../x86_64-w64-mingw32/lib/../lib/libmsvcrt.a(dieybs01141.o)
 .idata$6       0x0000000061551996        0x8 C:/msys64/mingw64/bin/../lib/gcc/x86_64-w64-mingw32/8.2.1/../../../../x86_64-w64-mingw32/lib/../lib/libmsvcrt.a(dieybs01142.o)
 .idata$6       0x000000006155199e        0xc C:/msys64/mingw64/bin/../lib/gcc/x86_64-w64-mingw32/8.2.1/../../../../x86_64-w64-mingw32/lib/../lib/libmsvcrt.a(dieybs01143.o)
 .idata$6       0x00000000615519aa        0xa C:/msys64/mingw64/bin/../lib/gcc/x86_64-w64-mingw32/8.2.1/../../../../x86_64-w64-mingw32/lib/../lib/libmsvcrt.a(dieybs01145.o)
 .idata$6       0x00000000615519b4        0x8 C:/msys64/mingw64/bin/../lib/gcc/x86_64-w64-mingw32/8.2.1/../../../../x86_64-w64-mingw32/lib/../lib/libmsvcrt.a(dieybs01148.o)
 .idata$6       0x00000000615519bc        0xa C:/msys64/mingw64/bin/../lib/gcc/x86_64-w64-mingw32/8.2.1/../../../../x86_64-w64-mingw32/lib/../lib/libmsvcrt.a(dieybs01150.o)
 .idata$6       0x00000000615519c6        0xa C:/msys64/mingw64/bin/../lib/gcc/x86_64-w64-mingw32/8.2.1/../../../../x86_64-w64-mingw32/lib/../lib/libmsvcrt.a(dieybs01158.o)
 .idata$6       0x00000000615519d0        0xa C:/msys64/mingw64/bin/../lib/gcc/x86_64-w64-mingw32/8.2.1/../../../../x86_64-w64-mingw32/lib/../lib/libmsvcrt.a(dieybs01159.o)
 .idata$6       0x00000000615519da        0xa C:/msys64/mingw64/bin/../lib/gcc/x86_64-w64-mingw32/8.2.1/../../../../x86_64-w64-mingw32/lib/../lib/libmsvcrt.a(dieybs01160.o)
 .idata$6       0x00000000615519e4        0xa C:/msys64/mingw64/bin/../lib/gcc/x86_64-w64-mingw32/8.2.1/../../../../x86_64-w64-mingw32/lib/../lib/libmsvcrt.a(dieybs01161.o)
 .idata$6       0x00000000615519ee        0xa C:/msys64/mingw64/bin/../lib/gcc/x86_64-w64-mingw32/8.2.1/../../../../x86_64-w64-mingw32/lib/../lib/libmsvcrt.a(dieybs01162.o)
 .idata$6       0x00000000615519f8        0xa C:/msys64/mingw64/bin/../lib/gcc/x86_64-w64-mingw32/8.2.1/../../../../x86_64-w64-mingw32/lib/../lib/libmsvcrt.a(dieybs01164.o)
 .idata$6       0x0000000061551a02        0xa C:/msys64/mingw64/bin/../lib/gcc/x86_64-w64-mingw32/8.2.1/../../../../x86_64-w64-mingw32/lib/../lib/libmsvcrt.a(dieybs01165.o)
 .idata$6       0x0000000061551a0c        0xa C:/msys64/mingw64/bin/../lib/gcc/x86_64-w64-mingw32/8.2.1/../../../../x86_64-w64-mingw32/lib/../lib/libmsvcrt.a(dieybs01166.o)
 .idata$6       0x0000000061551a16        0xa C:/msys64/mingw64/bin/../lib/gcc/x86_64-w64-mingw32/8.2.1/../../../../x86_64-w64-mingw32/lib/../lib/libmsvcrt.a(dieybs01167.o)
 .idata$6       0x0000000061551a20        0xa C:/msys64/mingw64/bin/../lib/gcc/x86_64-w64-mingw32/8.2.1/../../../../x86_64-w64-mingw32/lib/../lib/libmsvcrt.a(dieybs01168.o)
 .idata$6       0x0000000061551a2a        0xc C:/msys64/mingw64/bin/../lib/gcc/x86_64-w64-mingw32/8.2.1/../../../../x86_64-w64-mingw32/lib/../lib/libmsvcrt.a(dieybs01182.o)
 .idata$6       0x0000000061551a36        0xe C:/msys64/mingw64/bin/../lib/gcc/x86_64-w64-mingw32/8.2.1/../../../../x86_64-w64-mingw32/lib/../lib/libmsvcrt.a(dieybs01186.o)
 .idata$6       0x0000000061551a44        0xc C:/msys64/mingw64/bin/../lib/gcc/x86_64-w64-mingw32/8.2.1/../../../../x86_64-w64-mingw32/lib/../lib/libmsvcrt.a(dieybs01187.o)
 .idata$6       0x0000000061551a50        0x8 C:/msys64/mingw64/bin/../lib/gcc/x86_64-w64-mingw32/8.2.1/../../../../x86_64-w64-mingw32/lib/../lib/libmsvcrt.a(dieybs01189.o)
 .idata$6       0x0000000061551a58        0xa C:/msys64/mingw64/bin/../lib/gcc/x86_64-w64-mingw32/8.2.1/../../../../x86_64-w64-mingw32/lib/../lib/libmsvcrt.a(dieybs01193.o)
 .idata$6       0x0000000061551a62        0xa C:/msys64/mingw64/bin/../lib/gcc/x86_64-w64-mingw32/8.2.1/../../../../x86_64-w64-mingw32/lib/../lib/libmsvcrt.a(dieybs01200.o)
 .idata$6       0x0000000061551a6c        0xa C:/msys64/mingw64/bin/../lib/gcc/x86_64-w64-mingw32/8.2.1/../../../../x86_64-w64-mingw32/lib/../lib/libmsvcrt.a(dieybs01201.o)
 .idata$6       0x0000000061551a76        0xa C:/msys64/mingw64/bin/../lib/gcc/x86_64-w64-mingw32/8.2.1/../../../../x86_64-w64-mingw32/lib/../lib/libmsvcrt.a(dieybs01202.o)
 .idata$6       0x0000000061551a80        0xa C:/msys64/mingw64/bin/../lib/gcc/x86_64-w64-mingw32/8.2.1/../../../../x86_64-w64-mingw32/lib/../lib/libmsvcrt.a(dieybs01203.o)
 .idata$6       0x0000000061551a8a        0xa C:/msys64/mingw64/bin/../lib/gcc/x86_64-w64-mingw32/8.2.1/../../../../x86_64-w64-mingw32/lib/../lib/libmsvcrt.a(dieybs01204.o)
 .idata$6       0x0000000061551a94        0xa C:/msys64/mingw64/bin/../lib/gcc/x86_64-w64-mingw32/8.2.1/../../../../x86_64-w64-mingw32/lib/../lib/libmsvcrt.a(dieybs01211.o)
 .idata$6       0x0000000061551a9e        0x8 C:/msys64/mingw64/bin/../lib/gcc/x86_64-w64-mingw32/8.2.1/../../../../x86_64-w64-mingw32/lib/../lib/libmsvcrt.a(dieybs01213.o)
 .idata$6       0x0000000061551aa6        0xa C:/msys64/mingw64/bin/../lib/gcc/x86_64-w64-mingw32/8.2.1/../../../../x86_64-w64-mingw32/lib/../lib/libmsvcrt.a(dieybs01214.o)
 .idata$6       0x0000000061551ab0        0x8 C:/msys64/mingw64/bin/../lib/gcc/x86_64-w64-mingw32/8.2.1/../../../../x86_64-w64-mingw32/lib/../lib/libmsvcrt.a(dieybs01215.o)
 .idata$6       0x0000000061551ab8        0x8 C:/msys64/mingw64/bin/../lib/gcc/x86_64-w64-mingw32/8.2.1/../../../../x86_64-w64-mingw32/lib/../lib/libmsvcrt.a(dieybs01218.o)
 .idata$6       0x0000000061551ac0        0x8 C:/msys64/mingw64/bin/../lib/gcc/x86_64-w64-mingw32/8.2.1/../../../../x86_64-w64-mingw32/lib/../lib/libmsvcrt.a(dieybs01220.o)
 .idata$6       0x0000000061551ac8        0xa C:/msys64/mingw64/bin/../lib/gcc/x86_64-w64-mingw32/8.2.1/../../../../x86_64-w64-mingw32/lib/../lib/libmsvcrt.a(dieybs01222.o)
 .idata$6       0x0000000061551ad2        0xa C:/msys64/mingw64/bin/../lib/gcc/x86_64-w64-mingw32/8.2.1/../../../../x86_64-w64-mingw32/lib/../lib/libmsvcrt.a(dieybs01223.o)
 .idata$6       0x0000000061551adc        0xa C:/msys64/mingw64/bin/../lib/gcc/x86_64-w64-mingw32/8.2.1/../../../../x86_64-w64-mingw32/lib/../lib/libmsvcrt.a(dieybs01224.o)
 .idata$6       0x0000000061551ae6        0xa C:/msys64/mingw64/bin/../lib/gcc/x86_64-w64-mingw32/8.2.1/../../../../x86_64-w64-mingw32/lib/../lib/libmsvcrt.a(dieybs01225.o)
 .idata$6       0x0000000061551af0        0xc C:/msys64/mingw64/bin/../lib/gcc/x86_64-w64-mingw32/8.2.1/../../../../x86_64-w64-mingw32/lib/../lib/libmsvcrt.a(dieybs01230.o)
 .idata$6       0x0000000061551afc        0xa C:/msys64/mingw64/bin/../lib/gcc/x86_64-w64-mingw32/8.2.1/../../../../x86_64-w64-mingw32/lib/../lib/libmsvcrt.a(dieybs01231.o)
 .idata$6       0x0000000061551b06        0xa C:/msys64/mingw64/bin/../lib/gcc/x86_64-w64-mingw32/8.2.1/../../../../x86_64-w64-mingw32/lib/../lib/libmsvcrt.a(dieybs01232.o)
 .idata$6       0x0000000061551b10        0x8 C:/msys64/mingw64/bin/../lib/gcc/x86_64-w64-mingw32/8.2.1/../../../../x86_64-w64-mingw32/lib/../lib/libmsvcrt.a(dieybs01235.o)
 .idata$6       0x0000000061551b18        0xa C:/msys64/mingw64/bin/../lib/gcc/x86_64-w64-mingw32/8.2.1/../../../../x86_64-w64-mingw32/lib/../lib/libmsvcrt.a(dieybs01237.o)
 .idata$6       0x0000000061551b22        0xa C:/msys64/mingw64/bin/../lib/gcc/x86_64-w64-mingw32/8.2.1/../../../../x86_64-w64-mingw32/lib/../lib/libmsvcrt.a(dieybs01241.o)
 .idata$6       0x0000000061551b2c        0xa C:/msys64/mingw64/bin/../lib/gcc/x86_64-w64-mingw32/8.2.1/../../../../x86_64-w64-mingw32/lib/../lib/libmsvcrt.a(dieybs01245.o)
 .idata$6       0x0000000061551b36        0xa C:/msys64/mingw64/bin/../lib/gcc/x86_64-w64-mingw32/8.2.1/../../../../x86_64-w64-mingw32/lib/../lib/libmsvcrt.a(dieybs01246.o)
 .idata$6       0x0000000061551b40        0xa C:/msys64/mingw64/bin/../lib/gcc/x86_64-w64-mingw32/8.2.1/../../../../x86_64-w64-mingw32/lib/../lib/libmsvcrt.a(dieybs01248.o)
 .idata$6       0x0000000061551b4a        0xc C:/msys64/mingw64/bin/../lib/gcc/x86_64-w64-mingw32/8.2.1/../../../../x86_64-w64-mingw32/lib/../lib/libmsvcrt.a(dieybs01251.o)
 .idata$6       0x0000000061551b56        0xc C:/msys64/mingw64/bin/../lib/gcc/x86_64-w64-mingw32/8.2.1/../../../../x86_64-w64-mingw32/lib/../lib/libmsvcrt.a(dieybs01253.o)
 .idata$6       0x0000000061551b62        0xa C:/msys64/mingw64/bin/../lib/gcc/x86_64-w64-mingw32/8.2.1/../../../../x86_64-w64-mingw32/lib/../lib/libmsvcrt.a(dieybs01254.o)
 .idata$6       0x0000000061551b6c        0xa C:/msys64/mingw64/bin/../lib/gcc/x86_64-w64-mingw32/8.2.1/../../../../x86_64-w64-mingw32/lib/../lib/libmsvcrt.a(dieybs01257.o)
 .idata$6       0x0000000061551b76        0xa C:/msys64/mingw64/bin/../lib/gcc/x86_64-w64-mingw32/8.2.1/../../../../x86_64-w64-mingw32/lib/../lib/libmsvcrt.a(dieybs01258.o)
 .idata$6       0x0000000061551b80        0xa C:/msys64/mingw64/bin/../lib/gcc/x86_64-w64-mingw32/8.2.1/../../../../x86_64-w64-mingw32/lib/../lib/libmsvcrt.a(dieybs01261.o)
 .idata$6       0x0000000061551b8a        0xa C:/msys64/mingw64/bin/../lib/gcc/x86_64-w64-mingw32/8.2.1/../../../../x86_64-w64-mingw32/lib/../lib/libmsvcrt.a(dieybs01263.o)
 .idata$6       0x0000000061551b94        0xa C:/msys64/mingw64/bin/../lib/gcc/x86_64-w64-mingw32/8.2.1/../../../../x86_64-w64-mingw32/lib/../lib/libmsvcrt.a(dieybs01267.o)
 .idata$6       0x0000000061551b9e        0xa C:/msys64/mingw64/bin/../lib/gcc/x86_64-w64-mingw32/8.2.1/../../../../x86_64-w64-mingw32/lib/../lib/libmsvcrt.a(dieybs01268.o)
 .idata$6       0x0000000061551ba8        0xa C:/msys64/mingw64/bin/../lib/gcc/x86_64-w64-mingw32/8.2.1/../../../../x86_64-w64-mingw32/lib/../lib/libmsvcrt.a(dieybs01274.o)
 .idata$6       0x0000000061551bb2        0x6 C:/msys64/mingw64/bin/../lib/gcc/x86_64-w64-mingw32/8.2.1/../../../../x86_64-w64-mingw32/lib/../lib/libmsvcrt.a(dieybs01275.o)
 .idata$6       0x0000000061551bb8        0x8 C:/msys64/mingw64/bin/../lib/gcc/x86_64-w64-mingw32/8.2.1/../../../../x86_64-w64-mingw32/lib/../lib/libmsvcrt.a(dieybs01277.o)
 .idata$6       0x0000000061551bc0        0xa C:/msys64/mingw64/bin/../lib/gcc/x86_64-w64-mingw32/8.2.1/../../../../x86_64-w64-mingw32/lib/../lib/libmsvcrt.a(dieybs01278.o)
 .idata$6       0x0000000061551bca        0xa C:/msys64/mingw64/bin/../lib/gcc/x86_64-w64-mingw32/8.2.1/../../../../x86_64-w64-mingw32/lib/../lib/libmsvcrt.a(dieybs01280.o)
 .idata$6       0x0000000061551bd4        0xa C:/msys64/mingw64/bin/../lib/gcc/x86_64-w64-mingw32/8.2.1/../../../../x86_64-w64-mingw32/lib/../lib/libmsvcrt.a(dieybs01282.o)
 .idata$6       0x0000000061551bde        0xa C:/msys64/mingw64/bin/../lib/gcc/x86_64-w64-mingw32/8.2.1/../../../../x86_64-w64-mingw32/lib/../lib/libmsvcrt.a(dieybs01286.o)
 .idata$6       0x0000000061551be8        0xc C:/msys64/mingw64/bin/../lib/gcc/x86_64-w64-mingw32/8.2.1/../../../../x86_64-w64-mingw32/lib/../lib/libmsvcrt.a(dieybs01288.o)
 .idata$6       0x0000000061551bf4        0xa C:/msys64/mingw64/bin/../lib/gcc/x86_64-w64-mingw32/8.2.1/../../../../x86_64-w64-mingw32/lib/../lib/libmsvcrt.a(dieybs01305.o)
 .idata$6       0x0000000061551bfe        0xc C:/msys64/mingw64/bin/../lib/gcc/x86_64-w64-mingw32/8.2.1/../../../../x86_64-w64-mingw32/lib/../lib/libmsvcrt.a(dieybs01325.o)
 .idata$6       0x0000000061551c0a        0xe C:/msys64/mingw64/bin/../lib/gcc/x86_64-w64-mingw32/8.2.1/../../../../x86_64-w64-mingw32/lib/../lib/libuser32.a(dyotbs00619.o)
 .idata$6       0x0000000061551c18        0xe C:/msys64/mingw64/bin/../lib/gcc/x86_64-w64-mingw32/8.2.1/../../../../x86_64-w64-mingw32/lib/../lib/libws2_32.a(dmgss00030.o)
 .idata$6       0x0000000061551c26       0x12 C:/msys64/mingw64/bin/../lib/gcc/x86_64-w64-mingw32/8.2.1/../../../../x86_64-w64-mingw32/lib/../lib/libws2_32.a(dmgss00047.o)
 .idata$6       0x0000000061551c38        0xe C:/msys64/mingw64/bin/../lib/gcc/x86_64-w64-mingw32/8.2.1/../../../../x86_64-w64-mingw32/lib/../lib/libws2_32.a(dmgss00088.o)
 .idata$6       0x0000000061551c46       0x10 C:/msys64/mingw64/bin/../lib/gcc/x86_64-w64-mingw32/8.2.1/../../../../x86_64-w64-mingw32/lib/../lib/libws2_32.a(dmgss00160.o)
 .idata$6       0x0000000061551c56        0xa C:/msys64/mingw64/bin/../lib/gcc/x86_64-w64-mingw32/8.2.1/../../../../x86_64-w64-mingw32/lib/../lib/libws2_32.a(dmgss00161.o)
 .idata$6       0x0000000061551c60        0x8 C:/msys64/mingw64/bin/../lib/gcc/x86_64-w64-mingw32/8.2.1/../../../../x86_64-w64-mingw32/lib/../lib/libws2_32.a(dmgss00162.o)
 .idata$6       0x0000000061551c68        0xe C:/msys64/mingw64/bin/../lib/gcc/x86_64-w64-mingw32/8.2.1/../../../../x86_64-w64-mingw32/lib/../lib/libws2_32.a(dmgss00163.o)
 .idata$6       0x0000000061551c76        0xa C:/msys64/mingw64/bin/../lib/gcc/x86_64-w64-mingw32/8.2.1/../../../../x86_64-w64-mingw32/lib/../lib/libws2_32.a(dmgss00164.o)
 .idata$6       0x0000000061551c80       0x10 C:/msys64/mingw64/bin/../lib/gcc/x86_64-w64-mingw32/8.2.1/../../../../x86_64-w64-mingw32/lib/../lib/libws2_32.a(dmgss00165.o)
 .idata$6       0x0000000061551c90        0xe C:/msys64/mingw64/bin/../lib/gcc/x86_64-w64-mingw32/8.2.1/../../../../x86_64-w64-mingw32/lib/../lib/libws2_32.a(dmgss00166.o)
 .idata$6       0x0000000061551c9e       0x10 C:/msys64/mingw64/bin/../lib/gcc/x86_64-w64-mingw32/8.2.1/../../../../x86_64-w64-mingw32/lib/../lib/libws2_32.a(dmgss00167.o)
 .idata$6       0x0000000061551cae       0x10 C:/msys64/mingw64/bin/../lib/gcc/x86_64-w64-mingw32/8.2.1/../../../../x86_64-w64-mingw32/lib/../lib/libws2_32.a(dmgss00168.o)
 .idata$6       0x0000000061551cbe        0xe C:/msys64/mingw64/bin/../lib/gcc/x86_64-w64-mingw32/8.2.1/../../../../x86_64-w64-mingw32/lib/../lib/libws2_32.a(dmgss00169.o)
 .idata$6       0x0000000061551ccc        0xe C:/msys64/mingw64/bin/../lib/gcc/x86_64-w64-mingw32/8.2.1/../../../../x86_64-w64-mingw32/lib/../lib/libws2_32.a(dmgss00170.o)
 .idata$6       0x0000000061551cda        0xe C:/msys64/mingw64/bin/../lib/gcc/x86_64-w64-mingw32/8.2.1/../../../../x86_64-w64-mingw32/lib/../lib/libws2_32.a(dmgss00171.o)
 .idata$6       0x0000000061551ce8        0xe C:/msys64/mingw64/bin/../lib/gcc/x86_64-w64-mingw32/8.2.1/../../../../x86_64-w64-mingw32/lib/../lib/libws2_32.a(dmgss00176.o)
 .idata$6       0x0000000061551cf6        0xe C:/msys64/mingw64/bin/../lib/gcc/x86_64-w64-mingw32/8.2.1/../../../../x86_64-w64-mingw32/lib/../lib/libws2_32.a(dmgss00177.o)
 .idata$6       0x0000000061551d04        0x8 C:/msys64/mingw64/bin/../lib/gcc/x86_64-w64-mingw32/8.2.1/../../../../x86_64-w64-mingw32/lib/../lib/libws2_32.a(dmgss00178.o)
 .idata$6       0x0000000061551d0c        0xc C:/msys64/mingw64/bin/../lib/gcc/x86_64-w64-mingw32/8.2.1/../../../../x86_64-w64-mingw32/lib/../lib/libws2_32.a(dmgss00181.o)
 .idata$6       0x0000000061551d18        0xe C:/msys64/mingw64/bin/../lib/gcc/x86_64-w64-mingw32/8.2.1/../../../../x86_64-w64-mingw32/lib/../lib/libws2_32.a(dmgss00184.o)
 .idata$6       0x0000000061551d26        0xa C:/msys64/mingw64/bin/../lib/gcc/x86_64-w64-mingw32/8.2.1/../../../../x86_64-w64-mingw32/lib/../lib/libws2_32.a(dmgss00185.o)
 .idata$6       0x0000000061551d30        0x8 C:/msys64/mingw64/bin/../lib/gcc/x86_64-w64-mingw32/8.2.1/../../../../x86_64-w64-mingw32/lib/../lib/libws2_32.a(dmgss00188.o)
 .idata$6       0x0000000061551d38        0xc C:/msys64/mingw64/bin/../lib/gcc/x86_64-w64-mingw32/8.2.1/../../../../x86_64-w64-mingw32/lib/../lib/libws2_32.a(dmgss00189.o)
 .idata$6       0x0000000061551d44        0xa C:/msys64/mingw64/bin/../lib/gcc/x86_64-w64-mingw32/8.2.1/../../../../x86_64-w64-mingw32/lib/../lib/libws2_32.a(dmgss00190.o)
 .idata$6       0x0000000061551d4e        0x8 C:/msys64/mingw64/bin/../lib/gcc/x86_64-w64-mingw32/8.2.1/../../../../x86_64-w64-mingw32/lib/../lib/libws2_32.a(dmgss00191.o)
 .idata$6       0x0000000061551d56        0xa C:/msys64/mingw64/bin/../lib/gcc/x86_64-w64-mingw32/8.2.1/../../../../x86_64-w64-mingw32/lib/../lib/libws2_32.a(dmgss00192.o)
 .idata$6       0x0000000061551d60        0xe C:/msys64/mingw64/bin/../lib/gcc/x86_64-w64-mingw32/8.2.1/../../../../x86_64-w64-mingw32/lib/../lib/libws2_32.a(dmgss00193.o)
 .idata$6       0x0000000061551d6e        0xc C:/msys64/mingw64/bin/../lib/gcc/x86_64-w64-mingw32/8.2.1/../../../../x86_64-w64-mingw32/lib/../lib/libws2_32.a(dmgss00194.o)
 .idata$6       0x0000000061551d7a        0xa C:/msys64/mingw64/bin/../lib/gcc/x86_64-w64-mingw32/8.2.1/../../../../x86_64-w64-mingw32/lib/../lib/libws2_32.a(dmgss00195.o)
 SORT(*)(.idata$7)
 .idata$7       0x0000000061551d84        0x4 C:/msys64/mingw64/bin/../lib/gcc/x86_64-w64-mingw32/8.2.1/../../../../x86_64-w64-mingw32/lib/../lib/libkernel32.a(dkzxbs00027.o)
 .idata$7       0x0000000061551d88        0x4 C:/msys64/mingw64/bin/../lib/gcc/x86_64-w64-mingw32/8.2.1/../../../../x86_64-w64-mingw32/lib/../lib/libkernel32.a(dkzxbs00130.o)
 .idata$7       0x0000000061551d8c        0x4 C:/msys64/mingw64/bin/../lib/gcc/x86_64-w64-mingw32/8.2.1/../../../../x86_64-w64-mingw32/lib/../lib/libkernel32.a(dkzxbs00191.o)
 .idata$7       0x0000000061551d90        0x4 C:/msys64/mingw64/bin/../lib/gcc/x86_64-w64-mingw32/8.2.1/../../../../x86_64-w64-mingw32/lib/../lib/libkernel32.a(dkzxbs00192.o)
 .idata$7       0x0000000061551d94        0x4 C:/msys64/mingw64/bin/../lib/gcc/x86_64-w64-mingw32/8.2.1/../../../../x86_64-w64-mingw32/lib/../lib/libkernel32.a(dkzxbs00196.o)
 .idata$7       0x0000000061551d98        0x4 C:/msys64/mingw64/bin/../lib/gcc/x86_64-w64-mingw32/8.2.1/../../../../x86_64-w64-mingw32/lib/../lib/libkernel32.a(dkzxbs00199.o)
 .idata$7       0x0000000061551d9c        0x4 C:/msys64/mingw64/bin/../lib/gcc/x86_64-w64-mingw32/8.2.1/../../../../x86_64-w64-mingw32/lib/../lib/libkernel32.a(dkzxbs00214.o)
 .idata$7       0x0000000061551da0        0x4 C:/msys64/mingw64/bin/../lib/gcc/x86_64-w64-mingw32/8.2.1/../../../../x86_64-w64-mingw32/lib/../lib/libkernel32.a(dkzxbs00237.o)
 .idata$7       0x0000000061551da4        0x4 C:/msys64/mingw64/bin/../lib/gcc/x86_64-w64-mingw32/8.2.1/../../../../x86_64-w64-mingw32/lib/../lib/libkernel32.a(dkzxbs00268.o)
 .idata$7       0x0000000061551da8        0x4 C:/msys64/mingw64/bin/../lib/gcc/x86_64-w64-mingw32/8.2.1/../../../../x86_64-w64-mingw32/lib/../lib/libkernel32.a(dkzxbs00270.o)
 .idata$7       0x0000000061551dac        0x4 C:/msys64/mingw64/bin/../lib/gcc/x86_64-w64-mingw32/8.2.1/../../../../x86_64-w64-mingw32/lib/../lib/libkernel32.a(dkzxbs00273.o)
 .idata$7       0x0000000061551db0        0x4 C:/msys64/mingw64/bin/../lib/gcc/x86_64-w64-mingw32/8.2.1/../../../../x86_64-w64-mingw32/lib/../lib/libkernel32.a(dkzxbs00304.o)
 .idata$7       0x0000000061551db4        0x4 C:/msys64/mingw64/bin/../lib/gcc/x86_64-w64-mingw32/8.2.1/../../../../x86_64-w64-mingw32/lib/../lib/libkernel32.a(dkzxbs00415.o)
 .idata$7       0x0000000061551db8        0x4 C:/msys64/mingw64/bin/../lib/gcc/x86_64-w64-mingw32/8.2.1/../../../../x86_64-w64-mingw32/lib/../lib/libkernel32.a(dkzxbs00422.o)
 .idata$7       0x0000000061551dbc        0x4 C:/msys64/mingw64/bin/../lib/gcc/x86_64-w64-mingw32/8.2.1/../../../../x86_64-w64-mingw32/lib/../lib/libkernel32.a(dkzxbs00423.o)
 .idata$7       0x0000000061551dc0        0x4 C:/msys64/mingw64/bin/../lib/gcc/x86_64-w64-mingw32/8.2.1/../../../../x86_64-w64-mingw32/lib/../lib/libkernel32.a(dkzxbs00427.o)
 .idata$7       0x0000000061551dc4        0x4 C:/msys64/mingw64/bin/../lib/gcc/x86_64-w64-mingw32/8.2.1/../../../../x86_64-w64-mingw32/lib/../lib/libkernel32.a(dkzxbs00514.o)
 .idata$7       0x0000000061551dc8        0x4 C:/msys64/mingw64/bin/../lib/gcc/x86_64-w64-mingw32/8.2.1/../../../../x86_64-w64-mingw32/lib/../lib/libkernel32.a(dkzxbs00535.o)
 .idata$7       0x0000000061551dcc        0x4 C:/msys64/mingw64/bin/../lib/gcc/x86_64-w64-mingw32/8.2.1/../../../../x86_64-w64-mingw32/lib/../lib/libkernel32.a(dkzxbs00536.o)
 .idata$7       0x0000000061551dd0        0x4 C:/msys64/mingw64/bin/../lib/gcc/x86_64-w64-mingw32/8.2.1/../../../../x86_64-w64-mingw32/lib/../lib/libkernel32.a(dkzxbs00540.o)
 .idata$7       0x0000000061551dd4        0x4 C:/msys64/mingw64/bin/../lib/gcc/x86_64-w64-mingw32/8.2.1/../../../../x86_64-w64-mingw32/lib/../lib/libkernel32.a(dkzxbs00552.o)
 .idata$7       0x0000000061551dd8        0x4 C:/msys64/mingw64/bin/../lib/gcc/x86_64-w64-mingw32/8.2.1/../../../../x86_64-w64-mingw32/lib/../lib/libkernel32.a(dkzxbs00555.o)
 .idata$7       0x0000000061551ddc        0x4 C:/msys64/mingw64/bin/../lib/gcc/x86_64-w64-mingw32/8.2.1/../../../../x86_64-w64-mingw32/lib/../lib/libkernel32.a(dkzxbs00578.o)
 .idata$7       0x0000000061551de0        0x4 C:/msys64/mingw64/bin/../lib/gcc/x86_64-w64-mingw32/8.2.1/../../../../x86_64-w64-mingw32/lib/../lib/libkernel32.a(dkzxbs00580.o)
 .idata$7       0x0000000061551de4        0x4 C:/msys64/mingw64/bin/../lib/gcc/x86_64-w64-mingw32/8.2.1/../../../../x86_64-w64-mingw32/lib/../lib/libkernel32.a(dkzxbs00583.o)
 .idata$7       0x0000000061551de8        0x4 C:/msys64/mingw64/bin/../lib/gcc/x86_64-w64-mingw32/8.2.1/../../../../x86_64-w64-mingw32/lib/../lib/libkernel32.a(dkzxbs00589.o)
 .idata$7       0x0000000061551dec        0x4 C:/msys64/mingw64/bin/../lib/gcc/x86_64-w64-mingw32/8.2.1/../../../../x86_64-w64-mingw32/lib/../lib/libkernel32.a(dkzxbs00600.o)
 .idata$7       0x0000000061551df0        0x4 C:/msys64/mingw64/bin/../lib/gcc/x86_64-w64-mingw32/8.2.1/../../../../x86_64-w64-mingw32/lib/../lib/libkernel32.a(dkzxbs00603.o)
 .idata$7       0x0000000061551df4        0x4 C:/msys64/mingw64/bin/../lib/gcc/x86_64-w64-mingw32/8.2.1/../../../../x86_64-w64-mingw32/lib/../lib/libkernel32.a(dkzxbs00609.o)
 .idata$7       0x0000000061551df8        0x4 C:/msys64/mingw64/bin/../lib/gcc/x86_64-w64-mingw32/8.2.1/../../../../x86_64-w64-mingw32/lib/../lib/libkernel32.a(dkzxbs00628.o)
 .idata$7       0x0000000061551dfc        0x4 C:/msys64/mingw64/bin/../lib/gcc/x86_64-w64-mingw32/8.2.1/../../../../x86_64-w64-mingw32/lib/../lib/libkernel32.a(dkzxbs00629.o)
 .idata$7       0x0000000061551e00        0x4 C:/msys64/mingw64/bin/../lib/gcc/x86_64-w64-mingw32/8.2.1/../../../../x86_64-w64-mingw32/lib/../lib/libkernel32.a(dkzxbs00630.o)
 .idata$7       0x0000000061551e04        0x4 C:/msys64/mingw64/bin/../lib/gcc/x86_64-w64-mingw32/8.2.1/../../../../x86_64-w64-mingw32/lib/../lib/libkernel32.a(dkzxbs00631.o)
 .idata$7       0x0000000061551e08        0x4 C:/msys64/mingw64/bin/../lib/gcc/x86_64-w64-mingw32/8.2.1/../../../../x86_64-w64-mingw32/lib/../lib/libkernel32.a(dkzxbs00689.o)
 .idata$7       0x0000000061551e0c        0x4 C:/msys64/mingw64/bin/../lib/gcc/x86_64-w64-mingw32/8.2.1/../../../../x86_64-w64-mingw32/lib/../lib/libkernel32.a(dkzxbs00694.o)
 .idata$7       0x0000000061551e10        0x4 C:/msys64/mingw64/bin/../lib/gcc/x86_64-w64-mingw32/8.2.1/../../../../x86_64-w64-mingw32/lib/../lib/libkernel32.a(dkzxbs00724.o)
 .idata$7       0x0000000061551e14        0x4 C:/msys64/mingw64/bin/../lib/gcc/x86_64-w64-mingw32/8.2.1/../../../../x86_64-w64-mingw32/lib/../lib/libkernel32.a(dkzxbs00740.o)
 .idata$7       0x0000000061551e18        0x4 C:/msys64/mingw64/bin/../lib/gcc/x86_64-w64-mingw32/8.2.1/../../../../x86_64-w64-mingw32/lib/../lib/libkernel32.a(dkzxbs00744.o)
 .idata$7       0x0000000061551e1c        0x4 C:/msys64/mingw64/bin/../lib/gcc/x86_64-w64-mingw32/8.2.1/../../../../x86_64-w64-mingw32/lib/../lib/libkernel32.a(dkzxbs00746.o)
 .idata$7       0x0000000061551e20        0x4 C:/msys64/mingw64/bin/../lib/gcc/x86_64-w64-mingw32/8.2.1/../../../../x86_64-w64-mingw32/lib/../lib/libkernel32.a(dkzxbs00758.o)
 .idata$7       0x0000000061551e24        0x4 C:/msys64/mingw64/bin/../lib/gcc/x86_64-w64-mingw32/8.2.1/../../../../x86_64-w64-mingw32/lib/../lib/libkernel32.a(dkzxbs00759.o)
 .idata$7       0x0000000061551e28        0x4 C:/msys64/mingw64/bin/../lib/gcc/x86_64-w64-mingw32/8.2.1/../../../../x86_64-w64-mingw32/lib/../lib/libkernel32.a(dkzxbs00774.o)
 .idata$7       0x0000000061551e2c        0x4 C:/msys64/mingw64/bin/../lib/gcc/x86_64-w64-mingw32/8.2.1/../../../../x86_64-w64-mingw32/lib/../lib/libkernel32.a(dkzxbs00781.o)
 .idata$7       0x0000000061551e30        0x4 C:/msys64/mingw64/bin/../lib/gcc/x86_64-w64-mingw32/8.2.1/../../../../x86_64-w64-mingw32/lib/../lib/libkernel32.a(dkzxbs00793.o)
 .idata$7       0x0000000061551e34        0x4 C:/msys64/mingw64/bin/../lib/gcc/x86_64-w64-mingw32/8.2.1/../../../../x86_64-w64-mingw32/lib/../lib/libkernel32.a(dkzxbs00794.o)
 .idata$7       0x0000000061551e38        0x4 C:/msys64/mingw64/bin/../lib/gcc/x86_64-w64-mingw32/8.2.1/../../../../x86_64-w64-mingw32/lib/../lib/libkernel32.a(dkzxbs00835.o)
 .idata$7       0x0000000061551e3c        0x4 C:/msys64/mingw64/bin/../lib/gcc/x86_64-w64-mingw32/8.2.1/../../../../x86_64-w64-mingw32/lib/../lib/libkernel32.a(dkzxbs00836.o)
 .idata$7       0x0000000061551e40        0x4 C:/msys64/mingw64/bin/../lib/gcc/x86_64-w64-mingw32/8.2.1/../../../../x86_64-w64-mingw32/lib/../lib/libkernel32.a(dkzxbs00837.o)
 .idata$7       0x0000000061551e44        0x4 C:/msys64/mingw64/bin/../lib/gcc/x86_64-w64-mingw32/8.2.1/../../../../x86_64-w64-mingw32/lib/../lib/libkernel32.a(dkzxbs00839.o)
 .idata$7       0x0000000061551e48        0x4 C:/msys64/mingw64/bin/../lib/gcc/x86_64-w64-mingw32/8.2.1/../../../../x86_64-w64-mingw32/lib/../lib/libkernel32.a(dkzxbs00841.o)
 .idata$7       0x0000000061551e4c        0x4 C:/msys64/mingw64/bin/../lib/gcc/x86_64-w64-mingw32/8.2.1/../../../../x86_64-w64-mingw32/lib/../lib/libkernel32.a(dkzxbs00845.o)
 .idata$7       0x0000000061551e50        0x4 C:/msys64/mingw64/bin/../lib/gcc/x86_64-w64-mingw32/8.2.1/../../../../x86_64-w64-mingw32/lib/../lib/libkernel32.a(dkzxbs00847.o)
 .idata$7       0x0000000061551e54        0x4 C:/msys64/mingw64/bin/../lib/gcc/x86_64-w64-mingw32/8.2.1/../../../../x86_64-w64-mingw32/lib/../lib/libkernel32.a(dkzxbs00851.o)
 .idata$7       0x0000000061551e58        0x4 C:/msys64/mingw64/bin/../lib/gcc/x86_64-w64-mingw32/8.2.1/../../../../x86_64-w64-mingw32/lib/../lib/libkernel32.a(dkzxbs00863.o)
 .idata$7       0x0000000061551e5c        0x4 C:/msys64/mingw64/bin/../lib/gcc/x86_64-w64-mingw32/8.2.1/../../../../x86_64-w64-mingw32/lib/../lib/libkernel32.a(dkzxbs00951.o)
 .idata$7       0x0000000061551e60        0x4 C:/msys64/mingw64/bin/../lib/gcc/x86_64-w64-mingw32/8.2.1/../../../../x86_64-w64-mingw32/lib/../lib/libkernel32.a(dkzxbs00954.o)
 .idata$7       0x0000000061551e64        0x4 C:/msys64/mingw64/bin/../lib/gcc/x86_64-w64-mingw32/8.2.1/../../../../x86_64-w64-mingw32/lib/../lib/libkernel32.a(dkzxbs00955.o)
 .idata$7       0x0000000061551e68        0x4 C:/msys64/mingw64/bin/../lib/gcc/x86_64-w64-mingw32/8.2.1/../../../../x86_64-w64-mingw32/lib/../lib/libkernel32.a(dkzxbs00957.o)
 .idata$7       0x0000000061551e6c        0x4 C:/msys64/mingw64/bin/../lib/gcc/x86_64-w64-mingw32/8.2.1/../../../../x86_64-w64-mingw32/lib/../lib/libkernel32.a(dkzxbs00967.o)
 .idata$7       0x0000000061551e70        0x4 C:/msys64/mingw64/bin/../lib/gcc/x86_64-w64-mingw32/8.2.1/../../../../x86_64-w64-mingw32/lib/../lib/libkernel32.a(dkzxbs00977.o)
 .idata$7       0x0000000061551e74        0x4 C:/msys64/mingw64/bin/../lib/gcc/x86_64-w64-mingw32/8.2.1/../../../../x86_64-w64-mingw32/lib/../lib/libkernel32.a(dkzxbs00978.o)
 .idata$7       0x0000000061551e78        0x4 C:/msys64/mingw64/bin/../lib/gcc/x86_64-w64-mingw32/8.2.1/../../../../x86_64-w64-mingw32/lib/../lib/libkernel32.a(dkzxbs00982.o)
 .idata$7       0x0000000061551e7c        0x4 C:/msys64/mingw64/bin/../lib/gcc/x86_64-w64-mingw32/8.2.1/../../../../x86_64-w64-mingw32/lib/../lib/libkernel32.a(dkzxbs00999.o)
 .idata$7       0x0000000061551e80        0x4 C:/msys64/mingw64/bin/../lib/gcc/x86_64-w64-mingw32/8.2.1/../../../../x86_64-w64-mingw32/lib/../lib/libkernel32.a(dkzxbs01041.o)
 .idata$7       0x0000000061551e84        0x4 C:/msys64/mingw64/bin/../lib/gcc/x86_64-w64-mingw32/8.2.1/../../../../x86_64-w64-mingw32/lib/../lib/libkernel32.a(dkzxbs01042.o)
 .idata$7       0x0000000061551e88        0x4 C:/msys64/mingw64/bin/../lib/gcc/x86_64-w64-mingw32/8.2.1/../../../../x86_64-w64-mingw32/lib/../lib/libkernel32.a(dkzxbs01093.o)
 .idata$7       0x0000000061551e8c        0x4 C:/msys64/mingw64/bin/../lib/gcc/x86_64-w64-mingw32/8.2.1/../../../../x86_64-w64-mingw32/lib/../lib/libkernel32.a(dkzxbs01112.o)
 .idata$7       0x0000000061551e90        0x4 C:/msys64/mingw64/bin/../lib/gcc/x86_64-w64-mingw32/8.2.1/../../../../x86_64-w64-mingw32/lib/../lib/libkernel32.a(dkzxbs01128.o)
 .idata$7       0x0000000061551e94        0x4 C:/msys64/mingw64/bin/../lib/gcc/x86_64-w64-mingw32/8.2.1/../../../../x86_64-w64-mingw32/lib/../lib/libkernel32.a(dkzxbs01179.o)
 .idata$7       0x0000000061551e98        0x4 C:/msys64/mingw64/bin/../lib/gcc/x86_64-w64-mingw32/8.2.1/../../../../x86_64-w64-mingw32/lib/../lib/libkernel32.a(dkzxbs01180.o)
 .idata$7       0x0000000061551e9c        0x4 C:/msys64/mingw64/bin/../lib/gcc/x86_64-w64-mingw32/8.2.1/../../../../x86_64-w64-mingw32/lib/../lib/libkernel32.a(dkzxbs01187.o)
 .idata$7       0x0000000061551ea0        0x4 C:/msys64/mingw64/bin/../lib/gcc/x86_64-w64-mingw32/8.2.1/../../../../x86_64-w64-mingw32/lib/../lib/libkernel32.a(dkzxbs01193.o)
 .idata$7       0x0000000061551ea4        0x4 C:/msys64/mingw64/bin/../lib/gcc/x86_64-w64-mingw32/8.2.1/../../../../x86_64-w64-mingw32/lib/../lib/libkernel32.a(dkzxbs01194.o)
 .idata$7       0x0000000061551ea8        0x4 C:/msys64/mingw64/bin/../lib/gcc/x86_64-w64-mingw32/8.2.1/../../../../x86_64-w64-mingw32/lib/../lib/libkernel32.a(dkzxbs01243.o)
 .idata$7       0x0000000061551eac        0x4 C:/msys64/mingw64/bin/../lib/gcc/x86_64-w64-mingw32/8.2.1/../../../../x86_64-w64-mingw32/lib/../lib/libkernel32.a(dkzxbs01257.o)
 .idata$7       0x0000000061551eb0        0x4 C:/msys64/mingw64/bin/../lib/gcc/x86_64-w64-mingw32/8.2.1/../../../../x86_64-w64-mingw32/lib/../lib/libkernel32.a(dkzxbs01276.o)
 .idata$7       0x0000000061551eb4        0x4 C:/msys64/mingw64/bin/../lib/gcc/x86_64-w64-mingw32/8.2.1/../../../../x86_64-w64-mingw32/lib/../lib/libkernel32.a(dkzxbs01290.o)
 .idata$7       0x0000000061551eb8        0x4 C:/msys64/mingw64/bin/../lib/gcc/x86_64-w64-mingw32/8.2.1/../../../../x86_64-w64-mingw32/lib/../lib/libkernel32.a(dkzxbs01346.o)
 .idata$7       0x0000000061551ebc        0x4 C:/msys64/mingw64/bin/../lib/gcc/x86_64-w64-mingw32/8.2.1/../../../../x86_64-w64-mingw32/lib/../lib/libkernel32.a(dkzxbs01360.o)
 .idata$7       0x0000000061551ec0        0x4 C:/msys64/mingw64/bin/../lib/gcc/x86_64-w64-mingw32/8.2.1/../../../../x86_64-w64-mingw32/lib/../lib/libkernel32.a(dkzxbs01371.o)
 .idata$7       0x0000000061551ec4        0x4 C:/msys64/mingw64/bin/../lib/gcc/x86_64-w64-mingw32/8.2.1/../../../../x86_64-w64-mingw32/lib/../lib/libkernel32.a(dkzxbs01375.o)
 .idata$7       0x0000000061551ec8        0x4 C:/msys64/mingw64/bin/../lib/gcc/x86_64-w64-mingw32/8.2.1/../../../../x86_64-w64-mingw32/lib/../lib/libkernel32.a(dkzxbs01395.o)
 .idata$7       0x0000000061551ecc        0x4 C:/msys64/mingw64/bin/../lib/gcc/x86_64-w64-mingw32/8.2.1/../../../../x86_64-w64-mingw32/lib/../lib/libkernel32.a(dkzxbs01402.o)
 .idata$7       0x0000000061551ed0        0x4 C:/msys64/mingw64/bin/../lib/gcc/x86_64-w64-mingw32/8.2.1/../../../../x86_64-w64-mingw32/lib/../lib/libkernel32.a(dkzxbs01409.o)
 .idata$7       0x0000000061551ed4        0x4 C:/msys64/mingw64/bin/../lib/gcc/x86_64-w64-mingw32/8.2.1/../../../../x86_64-w64-mingw32/lib/../lib/libkernel32.a(dkzxbs01410.o)
 .idata$7       0x0000000061551ed8        0x4 C:/msys64/mingw64/bin/../lib/gcc/x86_64-w64-mingw32/8.2.1/../../../../x86_64-w64-mingw32/lib/../lib/libkernel32.a(dkzxbs01411.o)
 .idata$7       0x0000000061551edc        0x4 C:/msys64/mingw64/bin/../lib/gcc/x86_64-w64-mingw32/8.2.1/../../../../x86_64-w64-mingw32/lib/../lib/libkernel32.a(dkzxbs01412.o)
 .idata$7       0x0000000061551ee0        0x4 C:/msys64/mingw64/bin/../lib/gcc/x86_64-w64-mingw32/8.2.1/../../../../x86_64-w64-mingw32/lib/../lib/libkernel32.a(dkzxbs01436.o)
 .idata$7       0x0000000061551ee4        0x4 C:/msys64/mingw64/bin/../lib/gcc/x86_64-w64-mingw32/8.2.1/../../../../x86_64-w64-mingw32/lib/../lib/libkernel32.a(dkzxbs01440.o)
 .idata$7       0x0000000061551ee8        0x4 C:/msys64/mingw64/bin/../lib/gcc/x86_64-w64-mingw32/8.2.1/../../../../x86_64-w64-mingw32/lib/../lib/libkernel32.a(dkzxbs01443.o)
 .idata$7       0x0000000061551eec        0x4 C:/msys64/mingw64/bin/../lib/gcc/x86_64-w64-mingw32/8.2.1/../../../../x86_64-w64-mingw32/lib/../lib/libkernel32.a(dkzxbs01445.o)
 .idata$7       0x0000000061551ef0        0x4 C:/msys64/mingw64/bin/../lib/gcc/x86_64-w64-mingw32/8.2.1/../../../../x86_64-w64-mingw32/lib/../lib/libkernel32.a(dkzxbs01453.o)
 .idata$7       0x0000000061551ef4        0x4 C:/msys64/mingw64/bin/../lib/gcc/x86_64-w64-mingw32/8.2.1/../../../../x86_64-w64-mingw32/lib/../lib/libkernel32.a(dkzxbs01454.o)
 .idata$7       0x0000000061551ef8        0x4 C:/msys64/mingw64/bin/../lib/gcc/x86_64-w64-mingw32/8.2.1/../../../../x86_64-w64-mingw32/lib/../lib/libkernel32.a(dkzxbs01490.o)
 .idata$7       0x0000000061551efc        0x4 C:/msys64/mingw64/bin/../lib/gcc/x86_64-w64-mingw32/8.2.1/../../../../x86_64-w64-mingw32/lib/../lib/libkernel32.a(dkzxbs01510.o)
 .idata$7       0x0000000061551f00       0x10 C:/msys64/mingw64/bin/../lib/gcc/x86_64-w64-mingw32/8.2.1/../../../../x86_64-w64-mingw32/lib/../lib/libkernel32.a(dkzxbt.o)
                0x0000000061551f00                __lib64_libkernel32_a_iname
 .idata$7       0x0000000061551f10        0x4 C:/msys64/mingw64/bin/../lib/gcc/x86_64-w64-mingw32/8.2.1/../../../../x86_64-w64-mingw32/lib/../lib/libmsvcrt.a(dieybs00058.o)
 .idata$7       0x0000000061551f14        0x4 C:/msys64/mingw64/bin/../lib/gcc/x86_64-w64-mingw32/8.2.1/../../../../x86_64-w64-mingw32/lib/../lib/libmsvcrt.a(dieybs00078.o)
 .idata$7       0x0000000061551f18        0x4 C:/msys64/mingw64/bin/../lib/gcc/x86_64-w64-mingw32/8.2.1/../../../../x86_64-w64-mingw32/lib/../lib/libmsvcrt.a(dieybs00079.o)
 .idata$7       0x0000000061551f1c        0x4 C:/msys64/mingw64/bin/../lib/gcc/x86_64-w64-mingw32/8.2.1/../../../../x86_64-w64-mingw32/lib/../lib/libmsvcrt.a(dieybs00083.o)
 .idata$7       0x0000000061551f20        0x4 C:/msys64/mingw64/bin/../lib/gcc/x86_64-w64-mingw32/8.2.1/../../../../x86_64-w64-mingw32/lib/../lib/libmsvcrt.a(dieybs00122.o)
 .idata$7       0x0000000061551f24        0x4 C:/msys64/mingw64/bin/../lib/gcc/x86_64-w64-mingw32/8.2.1/../../../../x86_64-w64-mingw32/lib/../lib/libmsvcrt.a(dieybs00127.o)
 .idata$7       0x0000000061551f28        0x4 C:/msys64/mingw64/bin/../lib/gcc/x86_64-w64-mingw32/8.2.1/../../../../x86_64-w64-mingw32/lib/../lib/libmsvcrt.a(dieybs00142.o)
 .idata$7       0x0000000061551f2c        0x4 C:/msys64/mingw64/bin/../lib/gcc/x86_64-w64-mingw32/8.2.1/../../../../x86_64-w64-mingw32/lib/../lib/libmsvcrt.a(dieybs00156.o)
 .idata$7       0x0000000061551f30        0x4 C:/msys64/mingw64/bin/../lib/gcc/x86_64-w64-mingw32/8.2.1/../../../../x86_64-w64-mingw32/lib/../lib/libmsvcrt.a(dieybs00162.o)
 .idata$7       0x0000000061551f34        0x4 C:/msys64/mingw64/bin/../lib/gcc/x86_64-w64-mingw32/8.2.1/../../../../x86_64-w64-mingw32/lib/../lib/libmsvcrt.a(dieybs00171.o)
 .idata$7       0x0000000061551f38        0x4 C:/msys64/mingw64/bin/../lib/gcc/x86_64-w64-mingw32/8.2.1/../../../../x86_64-w64-mingw32/lib/../lib/libmsvcrt.a(dieybs00233.o)
 .idata$7       0x0000000061551f3c        0x4 C:/msys64/mingw64/bin/../lib/gcc/x86_64-w64-mingw32/8.2.1/../../../../x86_64-w64-mingw32/lib/../lib/libmsvcrt.a(dieybs00237.o)
 .idata$7       0x0000000061551f40        0x4 C:/msys64/mingw64/bin/../lib/gcc/x86_64-w64-mingw32/8.2.1/../../../../x86_64-w64-mingw32/lib/../lib/libmsvcrt.a(dieybs00254.o)
 .idata$7       0x0000000061551f44        0x4 C:/msys64/mingw64/bin/../lib/gcc/x86_64-w64-mingw32/8.2.1/../../../../x86_64-w64-mingw32/lib/../lib/libmsvcrt.a(dieybs00271.o)
 .idata$7       0x0000000061551f48        0x4 C:/msys64/mingw64/bin/../lib/gcc/x86_64-w64-mingw32/8.2.1/../../../../x86_64-w64-mingw32/lib/../lib/libmsvcrt.a(dieybs00273.o)
 .idata$7       0x0000000061551f4c        0x4 C:/msys64/mingw64/bin/../lib/gcc/x86_64-w64-mingw32/8.2.1/../../../../x86_64-w64-mingw32/lib/../lib/libmsvcrt.a(dieybs00288.o)
 .idata$7       0x0000000061551f50        0x4 C:/msys64/mingw64/bin/../lib/gcc/x86_64-w64-mingw32/8.2.1/../../../../x86_64-w64-mingw32/lib/../lib/libmsvcrt.a(dieybs00353.o)
 .idata$7       0x0000000061551f54        0x4 C:/msys64/mingw64/bin/../lib/gcc/x86_64-w64-mingw32/8.2.1/../../../../x86_64-w64-mingw32/lib/../lib/libmsvcrt.a(dieybs00369.o)
 .idata$7       0x0000000061551f58        0x4 C:/msys64/mingw64/bin/../lib/gcc/x86_64-w64-mingw32/8.2.1/../../../../x86_64-w64-mingw32/lib/../lib/libmsvcrt.a(dieybs00373.o)
 .idata$7       0x0000000061551f5c        0x4 C:/msys64/mingw64/bin/../lib/gcc/x86_64-w64-mingw32/8.2.1/../../../../x86_64-w64-mingw32/lib/../lib/libmsvcrt.a(dieybs00478.o)
 .idata$7       0x0000000061551f60        0x4 C:/msys64/mingw64/bin/../lib/gcc/x86_64-w64-mingw32/8.2.1/../../../../x86_64-w64-mingw32/lib/../lib/libmsvcrt.a(dieybs00479.o)
 .idata$7       0x0000000061551f64        0x4 C:/msys64/mingw64/bin/../lib/gcc/x86_64-w64-mingw32/8.2.1/../../../../x86_64-w64-mingw32/lib/../lib/libmsvcrt.a(dieybs00489.o)
 .idata$7       0x0000000061551f68        0x4 C:/msys64/mingw64/bin/../lib/gcc/x86_64-w64-mingw32/8.2.1/../../../../x86_64-w64-mingw32/lib/../lib/libmsvcrt.a(dieybs00646.o)
 .idata$7       0x0000000061551f6c        0x4 C:/msys64/mingw64/bin/../lib/gcc/x86_64-w64-mingw32/8.2.1/../../../../x86_64-w64-mingw32/lib/../lib/libmsvcrt.a(dieybs00651.o)
 .idata$7       0x0000000061551f70        0x4 C:/msys64/mingw64/bin/../lib/gcc/x86_64-w64-mingw32/8.2.1/../../../../x86_64-w64-mingw32/lib/../lib/libmsvcrt.a(dieybs00659.o)
 .idata$7       0x0000000061551f74        0x4 C:/msys64/mingw64/bin/../lib/gcc/x86_64-w64-mingw32/8.2.1/../../../../x86_64-w64-mingw32/lib/../lib/libmsvcrt.a(dieybs00663.o)
 .idata$7       0x0000000061551f78        0x4 C:/msys64/mingw64/bin/../lib/gcc/x86_64-w64-mingw32/8.2.1/../../../../x86_64-w64-mingw32/lib/../lib/libmsvcrt.a(dieybs00714.o)
 .idata$7       0x0000000061551f7c        0x4 C:/msys64/mingw64/bin/../lib/gcc/x86_64-w64-mingw32/8.2.1/../../../../x86_64-w64-mingw32/lib/../lib/libmsvcrt.a(dieybs00728.o)
 .idata$7       0x0000000061551f80        0x4 C:/msys64/mingw64/bin/../lib/gcc/x86_64-w64-mingw32/8.2.1/../../../../x86_64-w64-mingw32/lib/../lib/libmsvcrt.a(dieybs00789.o)
 .idata$7       0x0000000061551f84        0x4 C:/msys64/mingw64/bin/../lib/gcc/x86_64-w64-mingw32/8.2.1/../../../../x86_64-w64-mingw32/lib/../lib/libmsvcrt.a(dieybs00834.o)
 .idata$7       0x0000000061551f88        0x4 C:/msys64/mingw64/bin/../lib/gcc/x86_64-w64-mingw32/8.2.1/../../../../x86_64-w64-mingw32/lib/../lib/libmsvcrt.a(dieybs00863.o)
 .idata$7       0x0000000061551f8c        0x4 C:/msys64/mingw64/bin/../lib/gcc/x86_64-w64-mingw32/8.2.1/../../../../x86_64-w64-mingw32/lib/../lib/libmsvcrt.a(dieybs00895.o)
 .idata$7       0x0000000061551f90        0x4 C:/msys64/mingw64/bin/../lib/gcc/x86_64-w64-mingw32/8.2.1/../../../../x86_64-w64-mingw32/lib/../lib/libmsvcrt.a(dieybs01031.o)
 .idata$7       0x0000000061551f94        0x4 C:/msys64/mingw64/bin/../lib/gcc/x86_64-w64-mingw32/8.2.1/../../../../x86_64-w64-mingw32/lib/../lib/libmsvcrt.a(dieybs01077.o)
 .idata$7       0x0000000061551f98        0x4 C:/msys64/mingw64/bin/../lib/gcc/x86_64-w64-mingw32/8.2.1/../../../../x86_64-w64-mingw32/lib/../lib/libmsvcrt.a(dieybs01079.o)
 .idata$7       0x0000000061551f9c        0x4 C:/msys64/mingw64/bin/../lib/gcc/x86_64-w64-mingw32/8.2.1/../../../../x86_64-w64-mingw32/lib/../lib/libmsvcrt.a(dieybs01082.o)
 .idata$7       0x0000000061551fa0        0x4 C:/msys64/mingw64/bin/../lib/gcc/x86_64-w64-mingw32/8.2.1/../../../../x86_64-w64-mingw32/lib/../lib/libmsvcrt.a(dieybs01084.o)
 .idata$7       0x0000000061551fa4        0x4 C:/msys64/mingw64/bin/../lib/gcc/x86_64-w64-mingw32/8.2.1/../../../../x86_64-w64-mingw32/lib/../lib/libmsvcrt.a(dieybs01090.o)
 .idata$7       0x0000000061551fa8        0x4 C:/msys64/mingw64/bin/../lib/gcc/x86_64-w64-mingw32/8.2.1/../../../../x86_64-w64-mingw32/lib/../lib/libmsvcrt.a(dieybs01094.o)
 .idata$7       0x0000000061551fac        0x4 C:/msys64/mingw64/bin/../lib/gcc/x86_64-w64-mingw32/8.2.1/../../../../x86_64-w64-mingw32/lib/../lib/libmsvcrt.a(dieybs01097.o)
 .idata$7       0x0000000061551fb0        0x4 C:/msys64/mingw64/bin/../lib/gcc/x86_64-w64-mingw32/8.2.1/../../../../x86_64-w64-mingw32/lib/../lib/libmsvcrt.a(dieybs01099.o)
 .idata$7       0x0000000061551fb4        0x4 C:/msys64/mingw64/bin/../lib/gcc/x86_64-w64-mingw32/8.2.1/../../../../x86_64-w64-mingw32/lib/../lib/libmsvcrt.a(dieybs01102.o)
 .idata$7       0x0000000061551fb8        0x4 C:/msys64/mingw64/bin/../lib/gcc/x86_64-w64-mingw32/8.2.1/../../../../x86_64-w64-mingw32/lib/../lib/libmsvcrt.a(dieybs01107.o)
 .idata$7       0x0000000061551fbc        0x4 C:/msys64/mingw64/bin/../lib/gcc/x86_64-w64-mingw32/8.2.1/../../../../x86_64-w64-mingw32/lib/../lib/libmsvcrt.a(dieybs01111.o)
 .idata$7       0x0000000061551fc0        0x4 C:/msys64/mingw64/bin/../lib/gcc/x86_64-w64-mingw32/8.2.1/../../../../x86_64-w64-mingw32/lib/../lib/libmsvcrt.a(dieybs01112.o)
 .idata$7       0x0000000061551fc4        0x4 C:/msys64/mingw64/bin/../lib/gcc/x86_64-w64-mingw32/8.2.1/../../../../x86_64-w64-mingw32/lib/../lib/libmsvcrt.a(dieybs01113.o)
 .idata$7       0x0000000061551fc8        0x4 C:/msys64/mingw64/bin/../lib/gcc/x86_64-w64-mingw32/8.2.1/../../../../x86_64-w64-mingw32/lib/../lib/libmsvcrt.a(dieybs01114.o)
 .idata$7       0x0000000061551fcc        0x4 C:/msys64/mingw64/bin/../lib/gcc/x86_64-w64-mingw32/8.2.1/../../../../x86_64-w64-mingw32/lib/../lib/libmsvcrt.a(dieybs01115.o)
 .idata$7       0x0000000061551fd0        0x4 C:/msys64/mingw64/bin/../lib/gcc/x86_64-w64-mingw32/8.2.1/../../../../x86_64-w64-mingw32/lib/../lib/libmsvcrt.a(dieybs01116.o)
 .idata$7       0x0000000061551fd4        0x4 C:/msys64/mingw64/bin/../lib/gcc/x86_64-w64-mingw32/8.2.1/../../../../x86_64-w64-mingw32/lib/../lib/libmsvcrt.a(dieybs01117.o)
 .idata$7       0x0000000061551fd8        0x4 C:/msys64/mingw64/bin/../lib/gcc/x86_64-w64-mingw32/8.2.1/../../../../x86_64-w64-mingw32/lib/../lib/libmsvcrt.a(dieybs01124.o)
 .idata$7       0x0000000061551fdc        0x4 C:/msys64/mingw64/bin/../lib/gcc/x86_64-w64-mingw32/8.2.1/../../../../x86_64-w64-mingw32/lib/../lib/libmsvcrt.a(dieybs01126.o)
 .idata$7       0x0000000061551fe0        0x4 C:/msys64/mingw64/bin/../lib/gcc/x86_64-w64-mingw32/8.2.1/../../../../x86_64-w64-mingw32/lib/../lib/libmsvcrt.a(dieybs01128.o)
 .idata$7       0x0000000061551fe4        0x4 C:/msys64/mingw64/bin/../lib/gcc/x86_64-w64-mingw32/8.2.1/../../../../x86_64-w64-mingw32/lib/../lib/libmsvcrt.a(dieybs01129.o)
 .idata$7       0x0000000061551fe8        0x4 C:/msys64/mingw64/bin/../lib/gcc/x86_64-w64-mingw32/8.2.1/../../../../x86_64-w64-mingw32/lib/../lib/libmsvcrt.a(dieybs01132.o)
 .idata$7       0x0000000061551fec        0x4 C:/msys64/mingw64/bin/../lib/gcc/x86_64-w64-mingw32/8.2.1/../../../../x86_64-w64-mingw32/lib/../lib/libmsvcrt.a(dieybs01133.o)
 .idata$7       0x0000000061551ff0        0x4 C:/msys64/mingw64/bin/../lib/gcc/x86_64-w64-mingw32/8.2.1/../../../../x86_64-w64-mingw32/lib/../lib/libmsvcrt.a(dieybs01136.o)
 .idata$7       0x0000000061551ff4        0x4 C:/msys64/mingw64/bin/../lib/gcc/x86_64-w64-mingw32/8.2.1/../../../../x86_64-w64-mingw32/lib/../lib/libmsvcrt.a(dieybs01137.o)
 .idata$7       0x0000000061551ff8        0x4 C:/msys64/mingw64/bin/../lib/gcc/x86_64-w64-mingw32/8.2.1/../../../../x86_64-w64-mingw32/lib/../lib/libmsvcrt.a(dieybs01140.o)
 .idata$7       0x0000000061551ffc        0x4 C:/msys64/mingw64/bin/../lib/gcc/x86_64-w64-mingw32/8.2.1/../../../../x86_64-w64-mingw32/lib/../lib/libmsvcrt.a(dieybs01141.o)
 .idata$7       0x0000000061552000        0x4 C:/msys64/mingw64/bin/../lib/gcc/x86_64-w64-mingw32/8.2.1/../../../../x86_64-w64-mingw32/lib/../lib/libmsvcrt.a(dieybs01142.o)
 .idata$7       0x0000000061552004        0x4 C:/msys64/mingw64/bin/../lib/gcc/x86_64-w64-mingw32/8.2.1/../../../../x86_64-w64-mingw32/lib/../lib/libmsvcrt.a(dieybs01143.o)
 .idata$7       0x0000000061552008        0x4 C:/msys64/mingw64/bin/../lib/gcc/x86_64-w64-mingw32/8.2.1/../../../../x86_64-w64-mingw32/lib/../lib/libmsvcrt.a(dieybs01145.o)
 .idata$7       0x000000006155200c        0x4 C:/msys64/mingw64/bin/../lib/gcc/x86_64-w64-mingw32/8.2.1/../../../../x86_64-w64-mingw32/lib/../lib/libmsvcrt.a(dieybs01148.o)
 .idata$7       0x0000000061552010        0x4 C:/msys64/mingw64/bin/../lib/gcc/x86_64-w64-mingw32/8.2.1/../../../../x86_64-w64-mingw32/lib/../lib/libmsvcrt.a(dieybs01150.o)
 .idata$7       0x0000000061552014        0x4 C:/msys64/mingw64/bin/../lib/gcc/x86_64-w64-mingw32/8.2.1/../../../../x86_64-w64-mingw32/lib/../lib/libmsvcrt.a(dieybs01158.o)
 .idata$7       0x0000000061552018        0x4 C:/msys64/mingw64/bin/../lib/gcc/x86_64-w64-mingw32/8.2.1/../../../../x86_64-w64-mingw32/lib/../lib/libmsvcrt.a(dieybs01159.o)
 .idata$7       0x000000006155201c        0x4 C:/msys64/mingw64/bin/../lib/gcc/x86_64-w64-mingw32/8.2.1/../../../../x86_64-w64-mingw32/lib/../lib/libmsvcrt.a(dieybs01160.o)
 .idata$7       0x0000000061552020        0x4 C:/msys64/mingw64/bin/../lib/gcc/x86_64-w64-mingw32/8.2.1/../../../../x86_64-w64-mingw32/lib/../lib/libmsvcrt.a(dieybs01161.o)
 .idata$7       0x0000000061552024        0x4 C:/msys64/mingw64/bin/../lib/gcc/x86_64-w64-mingw32/8.2.1/../../../../x86_64-w64-mingw32/lib/../lib/libmsvcrt.a(dieybs01162.o)
 .idata$7       0x0000000061552028        0x4 C:/msys64/mingw64/bin/../lib/gcc/x86_64-w64-mingw32/8.2.1/../../../../x86_64-w64-mingw32/lib/../lib/libmsvcrt.a(dieybs01164.o)
 .idata$7       0x000000006155202c        0x4 C:/msys64/mingw64/bin/../lib/gcc/x86_64-w64-mingw32/8.2.1/../../../../x86_64-w64-mingw32/lib/../lib/libmsvcrt.a(dieybs01165.o)
 .idata$7       0x0000000061552030        0x4 C:/msys64/mingw64/bin/../lib/gcc/x86_64-w64-mingw32/8.2.1/../../../../x86_64-w64-mingw32/lib/../lib/libmsvcrt.a(dieybs01166.o)
 .idata$7       0x0000000061552034        0x4 C:/msys64/mingw64/bin/../lib/gcc/x86_64-w64-mingw32/8.2.1/../../../../x86_64-w64-mingw32/lib/../lib/libmsvcrt.a(dieybs01167.o)
 .idata$7       0x0000000061552038        0x4 C:/msys64/mingw64/bin/../lib/gcc/x86_64-w64-mingw32/8.2.1/../../../../x86_64-w64-mingw32/lib/../lib/libmsvcrt.a(dieybs01168.o)
 .idata$7       0x000000006155203c        0x4 C:/msys64/mingw64/bin/../lib/gcc/x86_64-w64-mingw32/8.2.1/../../../../x86_64-w64-mingw32/lib/../lib/libmsvcrt.a(dieybs01182.o)
 .idata$7       0x0000000061552040        0x4 C:/msys64/mingw64/bin/../lib/gcc/x86_64-w64-mingw32/8.2.1/../../../../x86_64-w64-mingw32/lib/../lib/libmsvcrt.a(dieybs01186.o)
 .idata$7       0x0000000061552044        0x4 C:/msys64/mingw64/bin/../lib/gcc/x86_64-w64-mingw32/8.2.1/../../../../x86_64-w64-mingw32/lib/../lib/libmsvcrt.a(dieybs01187.o)
 .idata$7       0x0000000061552048        0x4 C:/msys64/mingw64/bin/../lib/gcc/x86_64-w64-mingw32/8.2.1/../../../../x86_64-w64-mingw32/lib/../lib/libmsvcrt.a(dieybs01189.o)
 .idata$7       0x000000006155204c        0x4 C:/msys64/mingw64/bin/../lib/gcc/x86_64-w64-mingw32/8.2.1/../../../../x86_64-w64-mingw32/lib/../lib/libmsvcrt.a(dieybs01193.o)
 .idata$7       0x0000000061552050        0x4 C:/msys64/mingw64/bin/../lib/gcc/x86_64-w64-mingw32/8.2.1/../../../../x86_64-w64-mingw32/lib/../lib/libmsvcrt.a(dieybs01200.o)
 .idata$7       0x0000000061552054        0x4 C:/msys64/mingw64/bin/../lib/gcc/x86_64-w64-mingw32/8.2.1/../../../../x86_64-w64-mingw32/lib/../lib/libmsvcrt.a(dieybs01201.o)
 .idata$7       0x0000000061552058        0x4 C:/msys64/mingw64/bin/../lib/gcc/x86_64-w64-mingw32/8.2.1/../../../../x86_64-w64-mingw32/lib/../lib/libmsvcrt.a(dieybs01202.o)
 .idata$7       0x000000006155205c        0x4 C:/msys64/mingw64/bin/../lib/gcc/x86_64-w64-mingw32/8.2.1/../../../../x86_64-w64-mingw32/lib/../lib/libmsvcrt.a(dieybs01203.o)
 .idata$7       0x0000000061552060        0x4 C:/msys64/mingw64/bin/../lib/gcc/x86_64-w64-mingw32/8.2.1/../../../../x86_64-w64-mingw32/lib/../lib/libmsvcrt.a(dieybs01204.o)
 .idata$7       0x0000000061552064        0x4 C:/msys64/mingw64/bin/../lib/gcc/x86_64-w64-mingw32/8.2.1/../../../../x86_64-w64-mingw32/lib/../lib/libmsvcrt.a(dieybs01211.o)
 .idata$7       0x0000000061552068        0x4 C:/msys64/mingw64/bin/../lib/gcc/x86_64-w64-mingw32/8.2.1/../../../../x86_64-w64-mingw32/lib/../lib/libmsvcrt.a(dieybs01213.o)
 .idata$7       0x000000006155206c        0x4 C:/msys64/mingw64/bin/../lib/gcc/x86_64-w64-mingw32/8.2.1/../../../../x86_64-w64-mingw32/lib/../lib/libmsvcrt.a(dieybs01214.o)
 .idata$7       0x0000000061552070        0x4 C:/msys64/mingw64/bin/../lib/gcc/x86_64-w64-mingw32/8.2.1/../../../../x86_64-w64-mingw32/lib/../lib/libmsvcrt.a(dieybs01215.o)
 .idata$7       0x0000000061552074        0x4 C:/msys64/mingw64/bin/../lib/gcc/x86_64-w64-mingw32/8.2.1/../../../../x86_64-w64-mingw32/lib/../lib/libmsvcrt.a(dieybs01218.o)
 .idata$7       0x0000000061552078        0x4 C:/msys64/mingw64/bin/../lib/gcc/x86_64-w64-mingw32/8.2.1/../../../../x86_64-w64-mingw32/lib/../lib/libmsvcrt.a(dieybs01220.o)
 .idata$7       0x000000006155207c        0x4 C:/msys64/mingw64/bin/../lib/gcc/x86_64-w64-mingw32/8.2.1/../../../../x86_64-w64-mingw32/lib/../lib/libmsvcrt.a(dieybs01222.o)
 .idata$7       0x0000000061552080        0x4 C:/msys64/mingw64/bin/../lib/gcc/x86_64-w64-mingw32/8.2.1/../../../../x86_64-w64-mingw32/lib/../lib/libmsvcrt.a(dieybs01223.o)
 .idata$7       0x0000000061552084        0x4 C:/msys64/mingw64/bin/../lib/gcc/x86_64-w64-mingw32/8.2.1/../../../../x86_64-w64-mingw32/lib/../lib/libmsvcrt.a(dieybs01224.o)
 .idata$7       0x0000000061552088        0x4 C:/msys64/mingw64/bin/../lib/gcc/x86_64-w64-mingw32/8.2.1/../../../../x86_64-w64-mingw32/lib/../lib/libmsvcrt.a(dieybs01225.o)
 .idata$7       0x000000006155208c        0x4 C:/msys64/mingw64/bin/../lib/gcc/x86_64-w64-mingw32/8.2.1/../../../../x86_64-w64-mingw32/lib/../lib/libmsvcrt.a(dieybs01230.o)
 .idata$7       0x0000000061552090        0x4 C:/msys64/mingw64/bin/../lib/gcc/x86_64-w64-mingw32/8.2.1/../../../../x86_64-w64-mingw32/lib/../lib/libmsvcrt.a(dieybs01231.o)
 .idata$7       0x0000000061552094        0x4 C:/msys64/mingw64/bin/../lib/gcc/x86_64-w64-mingw32/8.2.1/../../../../x86_64-w64-mingw32/lib/../lib/libmsvcrt.a(dieybs01232.o)
 .idata$7       0x0000000061552098        0x4 C:/msys64/mingw64/bin/../lib/gcc/x86_64-w64-mingw32/8.2.1/../../../../x86_64-w64-mingw32/lib/../lib/libmsvcrt.a(dieybs01235.o)
 .idata$7       0x000000006155209c        0x4 C:/msys64/mingw64/bin/../lib/gcc/x86_64-w64-mingw32/8.2.1/../../../../x86_64-w64-mingw32/lib/../lib/libmsvcrt.a(dieybs01237.o)
 .idata$7       0x00000000615520a0        0x4 C:/msys64/mingw64/bin/../lib/gcc/x86_64-w64-mingw32/8.2.1/../../../../x86_64-w64-mingw32/lib/../lib/libmsvcrt.a(dieybs01241.o)
 .idata$7       0x00000000615520a4        0x4 C:/msys64/mingw64/bin/../lib/gcc/x86_64-w64-mingw32/8.2.1/../../../../x86_64-w64-mingw32/lib/../lib/libmsvcrt.a(dieybs01245.o)
 .idata$7       0x00000000615520a8        0x4 C:/msys64/mingw64/bin/../lib/gcc/x86_64-w64-mingw32/8.2.1/../../../../x86_64-w64-mingw32/lib/../lib/libmsvcrt.a(dieybs01246.o)
 .idata$7       0x00000000615520ac        0x4 C:/msys64/mingw64/bin/../lib/gcc/x86_64-w64-mingw32/8.2.1/../../../../x86_64-w64-mingw32/lib/../lib/libmsvcrt.a(dieybs01248.o)
 .idata$7       0x00000000615520b0        0x4 C:/msys64/mingw64/bin/../lib/gcc/x86_64-w64-mingw32/8.2.1/../../../../x86_64-w64-mingw32/lib/../lib/libmsvcrt.a(dieybs01251.o)
 .idata$7       0x00000000615520b4        0x4 C:/msys64/mingw64/bin/../lib/gcc/x86_64-w64-mingw32/8.2.1/../../../../x86_64-w64-mingw32/lib/../lib/libmsvcrt.a(dieybs01253.o)
 .idata$7       0x00000000615520b8        0x4 C:/msys64/mingw64/bin/../lib/gcc/x86_64-w64-mingw32/8.2.1/../../../../x86_64-w64-mingw32/lib/../lib/libmsvcrt.a(dieybs01254.o)
 .idata$7       0x00000000615520bc        0x4 C:/msys64/mingw64/bin/../lib/gcc/x86_64-w64-mingw32/8.2.1/../../../../x86_64-w64-mingw32/lib/../lib/libmsvcrt.a(dieybs01257.o)
 .idata$7       0x00000000615520c0        0x4 C:/msys64/mingw64/bin/../lib/gcc/x86_64-w64-mingw32/8.2.1/../../../../x86_64-w64-mingw32/lib/../lib/libmsvcrt.a(dieybs01258.o)
 .idata$7       0x00000000615520c4        0x4 C:/msys64/mingw64/bin/../lib/gcc/x86_64-w64-mingw32/8.2.1/../../../../x86_64-w64-mingw32/lib/../lib/libmsvcrt.a(dieybs01261.o)
 .idata$7       0x00000000615520c8        0x4 C:/msys64/mingw64/bin/../lib/gcc/x86_64-w64-mingw32/8.2.1/../../../../x86_64-w64-mingw32/lib/../lib/libmsvcrt.a(dieybs01263.o)
 .idata$7       0x00000000615520cc        0x4 C:/msys64/mingw64/bin/../lib/gcc/x86_64-w64-mingw32/8.2.1/../../../../x86_64-w64-mingw32/lib/../lib/libmsvcrt.a(dieybs01267.o)
 .idata$7       0x00000000615520d0        0x4 C:/msys64/mingw64/bin/../lib/gcc/x86_64-w64-mingw32/8.2.1/../../../../x86_64-w64-mingw32/lib/../lib/libmsvcrt.a(dieybs01268.o)
 .idata$7       0x00000000615520d4        0x4 C:/msys64/mingw64/bin/../lib/gcc/x86_64-w64-mingw32/8.2.1/../../../../x86_64-w64-mingw32/lib/../lib/libmsvcrt.a(dieybs01274.o)
 .idata$7       0x00000000615520d8        0x4 C:/msys64/mingw64/bin/../lib/gcc/x86_64-w64-mingw32/8.2.1/../../../../x86_64-w64-mingw32/lib/../lib/libmsvcrt.a(dieybs01275.o)
 .idata$7       0x00000000615520dc        0x4 C:/msys64/mingw64/bin/../lib/gcc/x86_64-w64-mingw32/8.2.1/../../../../x86_64-w64-mingw32/lib/../lib/libmsvcrt.a(dieybs01277.o)
 .idata$7       0x00000000615520e0        0x4 C:/msys64/mingw64/bin/../lib/gcc/x86_64-w64-mingw32/8.2.1/../../../../x86_64-w64-mingw32/lib/../lib/libmsvcrt.a(dieybs01278.o)
 .idata$7       0x00000000615520e4        0x4 C:/msys64/mingw64/bin/../lib/gcc/x86_64-w64-mingw32/8.2.1/../../../../x86_64-w64-mingw32/lib/../lib/libmsvcrt.a(dieybs01280.o)
 .idata$7       0x00000000615520e8        0x4 C:/msys64/mingw64/bin/../lib/gcc/x86_64-w64-mingw32/8.2.1/../../../../x86_64-w64-mingw32/lib/../lib/libmsvcrt.a(dieybs01282.o)
 .idata$7       0x00000000615520ec        0x4 C:/msys64/mingw64/bin/../lib/gcc/x86_64-w64-mingw32/8.2.1/../../../../x86_64-w64-mingw32/lib/../lib/libmsvcrt.a(dieybs01286.o)
 .idata$7       0x00000000615520f0        0x4 C:/msys64/mingw64/bin/../lib/gcc/x86_64-w64-mingw32/8.2.1/../../../../x86_64-w64-mingw32/lib/../lib/libmsvcrt.a(dieybs01288.o)
 .idata$7       0x00000000615520f4        0x4 C:/msys64/mingw64/bin/../lib/gcc/x86_64-w64-mingw32/8.2.1/../../../../x86_64-w64-mingw32/lib/../lib/libmsvcrt.a(dieybs01305.o)
 .idata$7       0x00000000615520f8        0x4 C:/msys64/mingw64/bin/../lib/gcc/x86_64-w64-mingw32/8.2.1/../../../../x86_64-w64-mingw32/lib/../lib/libmsvcrt.a(dieybs01325.o)
 .idata$7       0x00000000615520fc        0xc C:/msys64/mingw64/bin/../lib/gcc/x86_64-w64-mingw32/8.2.1/../../../../x86_64-w64-mingw32/lib/../lib/libmsvcrt.a(dieybt.o)
                0x00000000615520fc                __lib64_libmsvcrt_a_iname
 .idata$7       0x0000000061552108        0x4 C:/msys64/mingw64/bin/../lib/gcc/x86_64-w64-mingw32/8.2.1/../../../../x86_64-w64-mingw32/lib/../lib/libuser32.a(dyotbs00619.o)
 .idata$7       0x000000006155210c        0xc C:/msys64/mingw64/bin/../lib/gcc/x86_64-w64-mingw32/8.2.1/../../../../x86_64-w64-mingw32/lib/../lib/libuser32.a(dyotbt.o)
                0x000000006155210c                __lib64_libuser32_a_iname
 .idata$7       0x0000000061552118        0x4 C:/msys64/mingw64/bin/../lib/gcc/x86_64-w64-mingw32/8.2.1/../../../../x86_64-w64-mingw32/lib/../lib/libws2_32.a(dmgss00030.o)
 .idata$7       0x000000006155211c        0x4 C:/msys64/mingw64/bin/../lib/gcc/x86_64-w64-mingw32/8.2.1/../../../../x86_64-w64-mingw32/lib/../lib/libws2_32.a(dmgss00047.o)
 .idata$7       0x0000000061552120        0x4 C:/msys64/mingw64/bin/../lib/gcc/x86_64-w64-mingw32/8.2.1/../../../../x86_64-w64-mingw32/lib/../lib/libws2_32.a(dmgss00088.o)
 .idata$7       0x0000000061552124        0x4 C:/msys64/mingw64/bin/../lib/gcc/x86_64-w64-mingw32/8.2.1/../../../../x86_64-w64-mingw32/lib/../lib/libws2_32.a(dmgss00160.o)
 .idata$7       0x0000000061552128        0x4 C:/msys64/mingw64/bin/../lib/gcc/x86_64-w64-mingw32/8.2.1/../../../../x86_64-w64-mingw32/lib/../lib/libws2_32.a(dmgss00161.o)
 .idata$7       0x000000006155212c        0x4 C:/msys64/mingw64/bin/../lib/gcc/x86_64-w64-mingw32/8.2.1/../../../../x86_64-w64-mingw32/lib/../lib/libws2_32.a(dmgss00162.o)
 .idata$7       0x0000000061552130        0x4 C:/msys64/mingw64/bin/../lib/gcc/x86_64-w64-mingw32/8.2.1/../../../../x86_64-w64-mingw32/lib/../lib/libws2_32.a(dmgss00163.o)
 .idata$7       0x0000000061552134        0x4 C:/msys64/mingw64/bin/../lib/gcc/x86_64-w64-mingw32/8.2.1/../../../../x86_64-w64-mingw32/lib/../lib/libws2_32.a(dmgss00164.o)
 .idata$7       0x0000000061552138        0x4 C:/msys64/mingw64/bin/../lib/gcc/x86_64-w64-mingw32/8.2.1/../../../../x86_64-w64-mingw32/lib/../lib/libws2_32.a(dmgss00165.o)
 .idata$7       0x000000006155213c        0x4 C:/msys64/mingw64/bin/../lib/gcc/x86_64-w64-mingw32/8.2.1/../../../../x86_64-w64-mingw32/lib/../lib/libws2_32.a(dmgss00166.o)
 .idata$7       0x0000000061552140        0x4 C:/msys64/mingw64/bin/../lib/gcc/x86_64-w64-mingw32/8.2.1/../../../../x86_64-w64-mingw32/lib/../lib/libws2_32.a(dmgss00167.o)
 .idata$7       0x0000000061552144        0x4 C:/msys64/mingw64/bin/../lib/gcc/x86_64-w64-mingw32/8.2.1/../../../../x86_64-w64-mingw32/lib/../lib/libws2_32.a(dmgss00168.o)
 .idata$7       0x0000000061552148        0x4 C:/msys64/mingw64/bin/../lib/gcc/x86_64-w64-mingw32/8.2.1/../../../../x86_64-w64-mingw32/lib/../lib/libws2_32.a(dmgss00169.o)
 .idata$7       0x000000006155214c        0x4 C:/msys64/mingw64/bin/../lib/gcc/x86_64-w64-mingw32/8.2.1/../../../../x86_64-w64-mingw32/lib/../lib/libws2_32.a(dmgss00170.o)
 .idata$7       0x0000000061552150        0x4 C:/msys64/mingw64/bin/../lib/gcc/x86_64-w64-mingw32/8.2.1/../../../../x86_64-w64-mingw32/lib/../lib/libws2_32.a(dmgss00171.o)
 .idata$7       0x0000000061552154        0x4 C:/msys64/mingw64/bin/../lib/gcc/x86_64-w64-mingw32/8.2.1/../../../../x86_64-w64-mingw32/lib/../lib/libws2_32.a(dmgss00176.o)
 .idata$7       0x0000000061552158        0x4 C:/msys64/mingw64/bin/../lib/gcc/x86_64-w64-mingw32/8.2.1/../../../../x86_64-w64-mingw32/lib/../lib/libws2_32.a(dmgss00177.o)
 .idata$7       0x000000006155215c        0x4 C:/msys64/mingw64/bin/../lib/gcc/x86_64-w64-mingw32/8.2.1/../../../../x86_64-w64-mingw32/lib/../lib/libws2_32.a(dmgss00178.o)
 .idata$7       0x0000000061552160        0x4 C:/msys64/mingw64/bin/../lib/gcc/x86_64-w64-mingw32/8.2.1/../../../../x86_64-w64-mingw32/lib/../lib/libws2_32.a(dmgss00181.o)
 .idata$7       0x0000000061552164        0x4 C:/msys64/mingw64/bin/../lib/gcc/x86_64-w64-mingw32/8.2.1/../../../../x86_64-w64-mingw32/lib/../lib/libws2_32.a(dmgss00184.o)
 .idata$7       0x0000000061552168        0x4 C:/msys64/mingw64/bin/../lib/gcc/x86_64-w64-mingw32/8.2.1/../../../../x86_64-w64-mingw32/lib/../lib/libws2_32.a(dmgss00185.o)
 .idata$7       0x000000006155216c        0x4 C:/msys64/mingw64/bin/../lib/gcc/x86_64-w64-mingw32/8.2.1/../../../../x86_64-w64-mingw32/lib/../lib/libws2_32.a(dmgss00188.o)
 .idata$7       0x0000000061552170        0x4 C:/msys64/mingw64/bin/../lib/gcc/x86_64-w64-mingw32/8.2.1/../../../../x86_64-w64-mingw32/lib/../lib/libws2_32.a(dmgss00189.o)
 .idata$7       0x0000000061552174        0x4 C:/msys64/mingw64/bin/../lib/gcc/x86_64-w64-mingw32/8.2.1/../../../../x86_64-w64-mingw32/lib/../lib/libws2_32.a(dmgss00190.o)
 .idata$7       0x0000000061552178        0x4 C:/msys64/mingw64/bin/../lib/gcc/x86_64-w64-mingw32/8.2.1/../../../../x86_64-w64-mingw32/lib/../lib/libws2_32.a(dmgss00191.o)
 .idata$7       0x000000006155217c        0x4 C:/msys64/mingw64/bin/../lib/gcc/x86_64-w64-mingw32/8.2.1/../../../../x86_64-w64-mingw32/lib/../lib/libws2_32.a(dmgss00192.o)
 .idata$7       0x0000000061552180        0x4 C:/msys64/mingw64/bin/../lib/gcc/x86_64-w64-mingw32/8.2.1/../../../../x86_64-w64-mingw32/lib/../lib/libws2_32.a(dmgss00193.o)
 .idata$7       0x0000000061552184        0x4 C:/msys64/mingw64/bin/../lib/gcc/x86_64-w64-mingw32/8.2.1/../../../../x86_64-w64-mingw32/lib/../lib/libws2_32.a(dmgss00194.o)
 .idata$7       0x0000000061552188        0x4 C:/msys64/mingw64/bin/../lib/gcc/x86_64-w64-mingw32/8.2.1/../../../../x86_64-w64-mingw32/lib/../lib/libws2_32.a(dmgss00195.o)
 .idata$7       0x000000006155218c        0xc C:/msys64/mingw64/bin/../lib/gcc/x86_64-w64-mingw32/8.2.1/../../../../x86_64-w64-mingw32/lib/../lib/libws2_32.a(dmgst.o)
                0x000000006155218c                __lib64_libws2_32_a_iname

.CRT            0x0000000061553000      0x200
                0x0000000061553000                ___crt_xc_start__ = .
 *(SORT(.CRT$XC*))
 .CRT$XCA       0x0000000061553000        0x8 C:/msys64/mingw64/bin/../lib/gcc/x86_64-w64-mingw32/8.2.1/../../../../x86_64-w64-mingw32/lib/../lib/libmingw32.a(lib64_libmingw32_a-cinitexe.o)
                0x0000000061553000                __xc_a
 .CRT$XCZ       0x0000000061553008        0x8 C:/msys64/mingw64/bin/../lib/gcc/x86_64-w64-mingw32/8.2.1/../../../../x86_64-w64-mingw32/lib/../lib/libmingw32.a(lib64_libmingw32_a-cinitexe.o)
                0x0000000061553008                __xc_z
                0x0000000061553010                ___crt_xc_end__ = .
                0x0000000061553010                ___crt_xi_start__ = .
 *(SORT(.CRT$XI*))
 .CRT$XIA       0x0000000061553010        0x8 C:/msys64/mingw64/bin/../lib/gcc/x86_64-w64-mingw32/8.2.1/../../../../x86_64-w64-mingw32/lib/../lib/libmingw32.a(lib64_libmingw32_a-cinitexe.o)
                0x0000000061553010                __xi_a
 .CRT$XIAA      0x0000000061553018        0x8 C:/msys64/mingw64/bin/../lib/gcc/x86_64-w64-mingw32/8.2.1/../../../../x86_64-w64-mingw32/lib/../lib/dllcrt2.o
                0x0000000061553018                pcinit
 .CRT$XIZ       0x0000000061553020        0x8 C:/msys64/mingw64/bin/../lib/gcc/x86_64-w64-mingw32/8.2.1/../../../../x86_64-w64-mingw32/lib/../lib/libmingw32.a(lib64_libmingw32_a-cinitexe.o)
                0x0000000061553020                __xi_z
                0x0000000061553028                ___crt_xi_end__ = .
                0x0000000061553028                ___crt_xl_start__ = .
 *(SORT(.CRT$XL*))
 .CRT$XLA       0x0000000061553028        0x8 C:/msys64/mingw64/bin/../lib/gcc/x86_64-w64-mingw32/8.2.1/../../../../x86_64-w64-mingw32/lib/../lib/libmingw32.a(lib64_libmingw32_a-tlssup.o)
                0x0000000061553028                __xl_a
 .CRT$XLC       0x0000000061553030        0x8 C:/msys64/mingw64/bin/../lib/gcc/x86_64-w64-mingw32/8.2.1/../../../../x86_64-w64-mingw32/lib/../lib/libmingw32.a(lib64_libmingw32_a-tlssup.o)
                0x0000000061553030                __xl_c
 .CRT$XLD       0x0000000061553038        0x8 C:/msys64/mingw64/bin/../lib/gcc/x86_64-w64-mingw32/8.2.1/../../../../x86_64-w64-mingw32/lib/../lib/libmingw32.a(lib64_libmingw32_a-tlssup.o)
                0x0000000061553038                __xl_d
 .CRT$XLZ       0x0000000061553040        0x8 C:/msys64/mingw64/bin/../lib/gcc/x86_64-w64-mingw32/8.2.1/../../../../x86_64-w64-mingw32/lib/../lib/libmingw32.a(lib64_libmingw32_a-tlssup.o)
                0x0000000061553040                __xl_z
                0x0000000061553048                ___crt_xp_start__ = .
 *(SORT(.CRT$XP*))
                0x0000000061553048                ___crt_xp_end__ = .
                0x0000000061553048                ___crt_xt_start__ = .
 *(SORT(.CRT$XT*))
                0x0000000061553048                ___crt_xt_end__ = .
 .CRT$XDA       0x0000000061553048        0x8 C:/msys64/mingw64/bin/../lib/gcc/x86_64-w64-mingw32/8.2.1/../../../../x86_64-w64-mingw32/lib/../lib/libmingw32.a(lib64_libmingw32_a-tlssup.o)
 .CRT$XDZ       0x0000000061553050        0x8 C:/msys64/mingw64/bin/../lib/gcc/x86_64-w64-mingw32/8.2.1/../../../../x86_64-w64-mingw32/lib/../lib/libmingw32.a(lib64_libmingw32_a-tlssup.o)

.tls            0x0000000061554000      0x200
                0x0000000061554000                ___tls_start__ = .
 *(.tls$AAA)
 .tls$AAA       0x0000000061554000        0x8 C:/msys64/mingw64/bin/../lib/gcc/x86_64-w64-mingw32/8.2.1/../../../../x86_64-w64-mingw32/lib/../lib/libmingw32.a(lib64_libmingw32_a-tlssup.o)
                0x0000000061554000                _tls_start
 *(.tls)
 *fill*         0x0000000061554008       0x18 
 .tls           0x0000000061554020       0x40 C:/msys64/mingw64/bin/../lib/gcc/x86_64-w64-mingw32/8.2.1/../../../../x86_64-w64-mingw32/lib/../lib/libmingw32.a(lib64_libmingw32_a-tlssup.o)
                0x0000000061554020                _tls_used
 *(.tls$)
 *(SORT(.tls$*))
 .tls$ZZZ       0x0000000061554060        0x8 C:/msys64/mingw64/bin/../lib/gcc/x86_64-w64-mingw32/8.2.1/../../../../x86_64-w64-mingw32/lib/../lib/libmingw32.a(lib64_libmingw32_a-tlssup.o)
                0x0000000061554060                _tls_end
 *(.tls$ZZZ)
                0x0000000061554068                ___tls_end__ = .

.endjunk        0x0000000061555000        0x0
                [!provide]                        PROVIDE (end, .)
                [!provide]                        PROVIDE (_end, .)
                0x0000000061555000                __end__ = .

.rsrc
 *(.rsrc)
 *(.rsrc$*)

.reloc          0x0000000061555000     0x1400
 *(.reloc)
 .reloc         0x0000000061555000     0x1360 dll stuff

.stab
 *(.stab)

.stabstr
 *(.stabstr)

.debug_aranges  0x0000000061557000     0x1400
 *(.debug_aranges)
 .debug_aranges
                0x0000000061557000       0x30 C:/msys64/mingw64/bin/../lib/gcc/x86_64-w64-mingw32/8.2.1/../../../../x86_64-w64-mingw32/lib/../lib/dllcrt2.o
 .debug_aranges
                0x0000000061557030       0x30 C:\msys64\tmp\ccfy01SD.o
 .debug_aranges
                0x0000000061557060       0x30 C:\msys64\tmp\ccWMuz0v.o
 .debug_aranges
                0x0000000061557090       0x30 C:\msys64\tmp\ccFOXHzz.o
 .debug_aranges
                0x00000000615570c0       0x30 C:\msys64\tmp\ccLjWXKz.o
 .debug_aranges
                0x00000000615570f0       0x30 C:\msys64\tmp\ccz1diiN.o
 .debug_aranges
                0x0000000061557120       0x30 C:\msys64\tmp\ccVizNw9.o
 .debug_aranges
                0x0000000061557150       0x30 C:\msys64\tmp\ccjhsTYI.o
 .debug_aranges
                0x0000000061557180       0x30 C:\msys64\tmp\ccLt5nLD.o
 .debug_aranges
                0x00000000615571b0       0x30 C:\msys64\tmp\ccuoZVRF.o
 .debug_aranges
                0x00000000615571e0       0x30 C:\msys64\tmp\cctFmZYO.o
 .debug_aranges
                0x0000000061557210       0x30 C:\msys64\tmp\ccuduyC5.o
 .debug_aranges
                0x0000000061557240       0x30 C:\msys64\tmp\ccJuBzPw.o
 .debug_aranges
                0x0000000061557270       0x30 C:\msys64\tmp\ccTqPSxT.o
 .debug_aranges
                0x00000000615572a0       0x30 C:\msys64\tmp\ccXRde14.o
 .debug_aranges
                0x00000000615572d0       0x30 C:\msys64\tmp\ccpSIAqr.o
 .debug_aranges
                0x0000000061557300       0x30 C:\msys64\tmp\ccZkAuiV.o
 .debug_aranges
                0x0000000061557330       0x30 C:\msys64\tmp\ccJabTGs.o
 .debug_aranges
                0x0000000061557360       0x30 C:\msys64\tmp\ccQHA7kH.o
 .debug_aranges
                0x0000000061557390       0x30 C:\msys64\tmp\ccDKFcP3.o
 .debug_aranges
                0x00000000615573c0       0x30 C:\msys64\tmp\ccRApjM5.o
 .debug_aranges
                0x00000000615573f0       0x30 C:\msys64\tmp\cc5MSZGd.o
 .debug_aranges
                0x0000000061557420       0x30 C:\msys64\tmp\ccxqqLTc.o
 .debug_aranges
                0x0000000061557450       0x30 C:\msys64\tmp\ccenaSVZ.o
 .debug_aranges
                0x0000000061557480       0x30 C:\msys64\tmp\ccSZ239v.o
 .debug_aranges
                0x00000000615574b0       0x30 C:\msys64\tmp\ccvj8G4H.o
 .debug_aranges
                0x00000000615574e0       0x30 C:\msys64\tmp\ccldb7oK.o
 .debug_aranges
                0x0000000061557510       0x30 C:\msys64\tmp\cc1vz69F.o
 .debug_aranges
                0x0000000061557540       0x30 C:\msys64\tmp\ccXkOUMF.o
 .debug_aranges
                0x0000000061557570       0x30 C:\msys64\tmp\cc7I1SCN.o
 .debug_aranges
                0x00000000615575a0       0x30 C:\msys64\tmp\ccaJ2lTQ.o
 .debug_aranges
                0x00000000615575d0       0x30 C:\msys64\tmp\ccTYAR93.o
 .debug_aranges
                0x0000000061557600       0x30 C:\msys64\tmp\cc2LD5lo.o
 .debug_aranges
                0x0000000061557630       0x30 C:\msys64\tmp\cctiLsmQ.o
 .debug_aranges
                0x0000000061557660       0x30 C:\msys64\tmp\cckEQkSt.o
 .debug_aranges
                0x0000000061557690       0x30 C:\msys64\tmp\ccxxh8wg.o
 .debug_aranges
                0x00000000615576c0       0x30 C:\msys64\tmp\ccoLUxS8.o
 .debug_aranges
                0x00000000615576f0       0x30 C:\msys64\tmp\cc5FaVq8.o
 .debug_aranges
                0x0000000061557720       0x30 C:\msys64\tmp\ccg4nTgg.o
 .debug_aranges
                0x0000000061557750       0x30 C:\msys64\tmp\ccmZReTk.o
 .debug_aranges
                0x0000000061557780       0x30 C:\msys64\tmp\ccA4uJAu.o
 .debug_aranges
                0x00000000615577b0       0x30 C:\msys64\tmp\ccS3faXP.o
 .debug_aranges
                0x00000000615577e0       0x30 C:\msys64\tmp\ccoUgfsm.o
 .debug_aranges
                0x0000000061557810       0x30 C:\msys64\tmp\ccUcMoTZ.o
 .debug_aranges
                0x0000000061557840       0x30 C:\msys64\tmp\ccidGW4M.o
 .debug_aranges
                0x0000000061557870       0x30 C:\msys64\tmp\ccYk3DtG.o
 .debug_aranges
                0x00000000615578a0       0x30 C:\msys64\tmp\ccQIpGaD.o
 .debug_aranges
                0x00000000615578d0       0x30 C:/msys64/mingw64/bin/../lib/gcc/x86_64-w64-mingw32/8.2.1/../../../../x86_64-w64-mingw32/lib/../lib/libws2_32.a(lib64_libws2_32_a-gai_strerrorA.o)
 .debug_aranges
                0x0000000061557900       0x30 C:/msys64/mingw64/bin/../lib/gcc/x86_64-w64-mingw32/8.2.1/../../../../x86_64-w64-mingw32/lib/../lib/libws2_32.a(lib64_libws2_32_a-gai_strerrorW.o)
 .debug_aranges
                0x0000000061557930       0x30 C:/msys64/mingw64/bin/../lib/gcc/x86_64-w64-mingw32/8.2.1/../../../../x86_64-w64-mingw32/lib/../lib/libmingw32.a(lib64_libmingw32_a-atonexit.o)
 .debug_aranges
                0x0000000061557960       0x30 C:/msys64/mingw64/bin/../lib/gcc/x86_64-w64-mingw32/8.2.1/../../../../x86_64-w64-mingw32/lib/../lib/libmingw32.a(lib64_libmingw32_a-gccmain.o)
 .debug_aranges
                0x0000000061557990       0x20 C:/msys64/mingw64/bin/../lib/gcc/x86_64-w64-mingw32/8.2.1/../../../../x86_64-w64-mingw32/lib/../lib/libmingw32.a(lib64_libmingw32_a-natstart.o)
 .debug_aranges
                0x00000000615579b0       0x30 C:/msys64/mingw64/bin/../lib/gcc/x86_64-w64-mingw32/8.2.1/../../../../x86_64-w64-mingw32/lib/../lib/libmingw32.a(lib64_libmingw32_a-gs_support.o)
 .debug_aranges
                0x00000000615579e0       0x30 C:/msys64/mingw64/bin/../lib/gcc/x86_64-w64-mingw32/8.2.1/../../../../x86_64-w64-mingw32/lib/../lib/libmingw32.a(lib64_libmingw32_a-tlssup.o)
 .debug_aranges
                0x0000000061557a10       0x20 C:/msys64/mingw64/bin/../lib/gcc/x86_64-w64-mingw32/8.2.1/../../../../x86_64-w64-mingw32/lib/../lib/libmingw32.a(lib64_libmingw32_a-cinitexe.o)
 .debug_aranges
                0x0000000061557a30       0x30 C:/msys64/mingw64/bin/../lib/gcc/x86_64-w64-mingw32/8.2.1/../../../../x86_64-w64-mingw32/lib/../lib/libmingw32.a(lib64_libmingw32_a-mingw_helpers.o)
 .debug_aranges
                0x0000000061557a60       0x40 C:/msys64/mingw64/bin/../lib/gcc/x86_64-w64-mingw32/8.2.1/../../../../x86_64-w64-mingw32/lib/../lib/libmingw32.a(lib64_libmingw32_a-pseudo-reloc.o)
 .debug_aranges
                0x0000000061557aa0       0x30 C:/msys64/mingw64/bin/../lib/gcc/x86_64-w64-mingw32/8.2.1/../../../../x86_64-w64-mingw32/lib/../lib/libmingw32.a(lib64_libmingw32_a-crt_handler.o)
 .debug_aranges
                0x0000000061557ad0       0x30 C:/msys64/mingw64/bin/../lib/gcc/x86_64-w64-mingw32/8.2.1/../../../../x86_64-w64-mingw32/lib/../lib/libmingw32.a(lib64_libmingw32_a-tlsthrd.o)
 .debug_aranges
                0x0000000061557b00       0x20 C:/msys64/mingw64/bin/../lib/gcc/x86_64-w64-mingw32/8.2.1/../../../../x86_64-w64-mingw32/lib/../lib/libmingw32.a(lib64_libmingw32_a-tlsmcrt.o)
 .debug_aranges
                0x0000000061557b20       0x20 C:/msys64/mingw64/bin/../lib/gcc/x86_64-w64-mingw32/8.2.1/../../../../x86_64-w64-mingw32/lib/../lib/libmingw32.a(lib64_libmingw32_a-pseudo-reloc-list.o)
 .debug_aranges
                0x0000000061557b40       0x30 C:/msys64/mingw64/bin/../lib/gcc/x86_64-w64-mingw32/8.2.1/../../../../x86_64-w64-mingw32/lib/../lib/libmingw32.a(lib64_libmingw32_a-pesect.o)
 .debug_aranges
                0x0000000061557b70       0x30 C:/msys64/mingw64/bin/../lib/gcc/x86_64-w64-mingw32/8.2.1/../../../../x86_64-w64-mingw32/lib/../lib/libmingw32.a(lib64_libmingw32_a-CRT_fp10.o)
 .debug_aranges
                0x0000000061557ba0       0x30 C:/msys64/mingw64/bin/../lib/gcc/x86_64-w64-mingw32/8.2.1/../../../../x86_64-w64-mingw32/lib/../lib/libmingwex.a(lib64_libmingwex_a-dllentry.o)
 .debug_aranges
                0x0000000061557bd0       0x30 C:/msys64/mingw64/bin/../lib/gcc/x86_64-w64-mingw32/8.2.1/../../../../x86_64-w64-mingw32/lib/../lib/libmingwex.a(lib64_libmingwex_a-dllmain.o)
 .debug_aranges
                0x0000000061557c00       0x30 C:/msys64/mingw64/bin/../lib/gcc/x86_64-w64-mingw32/8.2.1/../../../../x86_64-w64-mingw32/lib/../lib/libmingwex.a(lib64_libmingwex_a-strtodnrp.o)
 .debug_aranges
                0x0000000061557c30       0x30 C:/msys64/mingw64/bin/../lib/gcc/x86_64-w64-mingw32/8.2.1/../../../../x86_64-w64-mingw32/lib/../lib/libmingwex.a(lib64_libmingwex_a-fpclassify.o)
 .debug_aranges
                0x0000000061557c60       0x30 C:/msys64/mingw64/bin/../lib/gcc/x86_64-w64-mingw32/8.2.1/../../../../x86_64-w64-mingw32/lib/../lib/libmingwex.a(lib64_libmingwex_a-isnan.o)
 .debug_aranges
                0x0000000061557c90       0x30 C:/msys64/mingw64/bin/../lib/gcc/x86_64-w64-mingw32/8.2.1/../../../../x86_64-w64-mingw32/lib/../lib/libmingwex.a(lib64_libmingwex_a-modf.o)
 .debug_aranges
                0x0000000061557cc0       0x30 C:/msys64/mingw64/bin/../lib/gcc/x86_64-w64-mingw32/8.2.1/../../../../x86_64-w64-mingw32/lib/../lib/libmingwex.a(lib64_libmingwex_a-powf.o)
 .debug_aranges
                0x0000000061557cf0       0x30 C:/msys64/mingw64/bin/../lib/gcc/x86_64-w64-mingw32/8.2.1/../../../../x86_64-w64-mingw32/lib/../lib/libmingwex.a(lib64_libmingwex_a-sqrt.o)
 .debug_aranges
                0x0000000061557d20       0x30 C:/msys64/mingw64/bin/../lib/gcc/x86_64-w64-mingw32/8.2.1/../../../../x86_64-w64-mingw32/lib/../lib/libmingwex.a(lib64_libmingwex_a-difftime64.o)
 .debug_aranges
                0x0000000061557d50       0x30 C:/msys64/mingw64/bin/../lib/gcc/x86_64-w64-mingw32/8.2.1/../../../../x86_64-w64-mingw32/lib/../lib/libmingwex.a(lib64_libmingwex_a-gettimeofday.o)
 .debug_aranges
                0x0000000061557d80       0x30 C:/msys64/mingw64/bin/../lib/gcc/x86_64-w64-mingw32/8.2.1/../../../../x86_64-w64-mingw32/lib/../lib/libmingwex.a(lib64_libmingwex_a-strtoimax.o)
 .debug_aranges
                0x0000000061557db0       0x30 C:/msys64/mingw64/bin/../lib/gcc/x86_64-w64-mingw32/8.2.1/../../../../x86_64-w64-mingw32/lib/../lib/libmingwex.a(lib64_libmingwex_a-strtoumax.o)
 .debug_aranges
                0x0000000061557de0       0x30 C:/msys64/mingw64/bin/../lib/gcc/x86_64-w64-mingw32/8.2.1/../../../../x86_64-w64-mingw32/lib/../lib/libmingwex.a(lib64_libmingwex_a-wassert.o)
 .debug_aranges
                0x0000000061557e10       0x30 C:/msys64/mingw64/bin/../lib/gcc/x86_64-w64-mingw32/8.2.1/../../../../x86_64-w64-mingw32/lib/../lib/libmingwex.a(lib64_libmingwex_a-atoll.o)
 .debug_aranges
                0x0000000061557e40       0x30 C:/msys64/mingw64/bin/../lib/gcc/x86_64-w64-mingw32/8.2.1/../../../../x86_64-w64-mingw32/lib/../lib/libmingwex.a(lib64_libmingwex_a-fseeko64.o)
 .debug_aranges
                0x0000000061557e70       0x30 C:/msys64/mingw64/bin/../lib/gcc/x86_64-w64-mingw32/8.2.1/../../../../x86_64-w64-mingw32/lib/../lib/libmingwex.a(lib64_libmingwex_a-ftello64.o)
 .debug_aranges
                0x0000000061557ea0       0x30 C:/msys64/mingw64/bin/../lib/gcc/x86_64-w64-mingw32/8.2.1/../../../../x86_64-w64-mingw32/lib/../lib/libmingwex.a(lib64_libmingwex_a-vsnprintf.o)
 .debug_aranges
                0x0000000061557ed0       0x30 C:/msys64/mingw64/bin/../lib/gcc/x86_64-w64-mingw32/8.2.1/../../../../x86_64-w64-mingw32/lib/../lib/libmingwex.a(lib64_libmingwex_a-atan2.o)
 .debug_aranges
                0x0000000061557f00       0x30 C:/msys64/mingw64/bin/../lib/gcc/x86_64-w64-mingw32/8.2.1/../../../../x86_64-w64-mingw32/lib/../lib/libmingwex.a(lib64_libmingwex_a-cos.o)
 .debug_aranges
                0x0000000061557f30       0x30 C:/msys64/mingw64/bin/../lib/gcc/x86_64-w64-mingw32/8.2.1/../../../../x86_64-w64-mingw32/lib/../lib/libmingwex.a(lib64_libmingwex_a-cosl_internal.o)
 .debug_aranges
                0x0000000061557f60       0x30 C:/msys64/mingw64/bin/../lib/gcc/x86_64-w64-mingw32/8.2.1/../../../../x86_64-w64-mingw32/lib/../lib/libmingwex.a(lib64_libmingwex_a-exp.o)
 .debug_aranges
                0x0000000061557f90       0x30 C:/msys64/mingw64/bin/../lib/gcc/x86_64-w64-mingw32/8.2.1/../../../../x86_64-w64-mingw32/lib/../lib/libmingwex.a(lib64_libmingwex_a-floor.o)
 .debug_aranges
                0x0000000061557fc0       0x30 C:/msys64/mingw64/bin/../lib/gcc/x86_64-w64-mingw32/8.2.1/../../../../x86_64-w64-mingw32/lib/../lib/libmingwex.a(lib64_libmingwex_a-fmod.o)
 .debug_aranges
                0x0000000061557ff0       0x30 C:/msys64/mingw64/bin/../lib/gcc/x86_64-w64-mingw32/8.2.1/../../../../x86_64-w64-mingw32/lib/../lib/libmingwex.a(lib64_libmingwex_a-ldexp.o)
 .debug_aranges
                0x0000000061558020       0x30 C:/msys64/mingw64/bin/../lib/gcc/x86_64-w64-mingw32/8.2.1/../../../../x86_64-w64-mingw32/lib/../lib/libmingwex.a(lib64_libmingwex_a-log.o)
 .debug_aranges
                0x0000000061558050       0x30 C:/msys64/mingw64/bin/../lib/gcc/x86_64-w64-mingw32/8.2.1/../../../../x86_64-w64-mingw32/lib/../lib/libmingwex.a(lib64_libmingwex_a-pow.o)
 .debug_aranges
                0x0000000061558080       0x30 C:/msys64/mingw64/bin/../lib/gcc/x86_64-w64-mingw32/8.2.1/../../../../x86_64-w64-mingw32/lib/../lib/libmingwex.a(lib64_libmingwex_a-sin.o)
 .debug_aranges
                0x00000000615580b0       0x30 C:/msys64/mingw64/bin/../lib/gcc/x86_64-w64-mingw32/8.2.1/../../../../x86_64-w64-mingw32/lib/../lib/libmingwex.a(lib64_libmingwex_a-sinl_internal.o)
 .debug_aranges
                0x00000000615580e0       0x30 C:/msys64/mingw64/bin/../lib/gcc/x86_64-w64-mingw32/8.2.1/../../../../x86_64-w64-mingw32/lib/../lib/libmingwex.a(lib64_libmingwex_a-strtodg.o)
 .debug_aranges
                0x0000000061558110       0x30 C:/msys64/mingw64/bin/../lib/gcc/x86_64-w64-mingw32/8.2.1/../../../../x86_64-w64-mingw32/lib/../lib/libmingwex.a(lib64_libmingwex_a-sum.o)
 .debug_aranges
                0x0000000061558140       0x30 C:/msys64/mingw64/bin/../lib/gcc/x86_64-w64-mingw32/8.2.1/../../../../x86_64-w64-mingw32/lib/../lib/libmingwex.a(lib64_libmingwex_a-powi.o)
 .debug_aranges
                0x0000000061558170       0x30 C:/msys64/mingw64/bin/../lib/gcc/x86_64-w64-mingw32/8.2.1/../../../../x86_64-w64-mingw32/lib/../lib/libmingwex.a(lib64_libmingwex_a-exp2l.o)
 .debug_aranges
                0x00000000615581a0       0x30 C:/msys64/mingw64/bin/../lib/gcc/x86_64-w64-mingw32/8.2.1/../../../../x86_64-w64-mingw32/lib/../lib/libmingwex.a(lib64_libmingwex_a-internal_logl.o)
 .debug_aranges
                0x00000000615581d0       0x30 C:/msys64/mingw64/bin/../lib/gcc/x86_64-w64-mingw32/8.2.1/../../../../x86_64-w64-mingw32/lib/../lib/libmingwex.a(lib64_libmingwex_a-log2l.o)
 .debug_aranges
                0x0000000061558200       0x30 C:/msys64/mingw64/bin/../lib/gcc/x86_64-w64-mingw32/8.2.1/../../../../x86_64-w64-mingw32/lib/../lib/libmingwex.a(lib64_libmingwex_a-gethex.o)
 .debug_aranges
                0x0000000061558230       0x30 C:/msys64/mingw64/bin/../lib/gcc/x86_64-w64-mingw32/8.2.1/../../../../x86_64-w64-mingw32/lib/../lib/libmingwex.a(lib64_libmingwex_a-gmisc.o)
 .debug_aranges
                0x0000000061558260       0x30 C:/msys64/mingw64/bin/../lib/gcc/x86_64-w64-mingw32/8.2.1/../../../../x86_64-w64-mingw32/lib/../lib/libmingwex.a(lib64_libmingwex_a-hd_init.o)
 .debug_aranges
                0x0000000061558290       0x30 C:/msys64/mingw64/bin/../lib/gcc/x86_64-w64-mingw32/8.2.1/../../../../x86_64-w64-mingw32/lib/../lib/libmingwex.a(lib64_libmingwex_a-hexnan.o)
 .debug_aranges
                0x00000000615582c0       0x30 C:/msys64/mingw64/bin/../lib/gcc/x86_64-w64-mingw32/8.2.1/../../../../x86_64-w64-mingw32/lib/../lib/libmingwex.a(lib64_libmingwex_a-misc.o)
 .debug_aranges
                0x00000000615582f0       0x30 C:/msys64/mingw64/bin/../lib/gcc/x86_64-w64-mingw32/8.2.1/../../../../x86_64-w64-mingw32/lib/../lib/libmingwex.a(lib64_libmingwex_a-smisc.o)
 .debug_aranges
                0x0000000061558320       0x30 C:/msys64/mingw64/bin/../lib/gcc/x86_64-w64-mingw32/8.2.1/../../../../x86_64-w64-mingw32/lib/../lib/libmingw32.a(lib64_libmingw32_a-merr.o)

.zdebug_aranges
 *(.zdebug_aranges)

.debug_pubnames
 *(.debug_pubnames)

.zdebug_pubnames
 *(.zdebug_pubnames)

.debug_pubtypes
 *(.debug_pubtypes)

.zdebug_pubtypes
 *(.zdebug_pubtypes)

.debug_info     0x0000000061559000   0x120c00
 *(.debug_info .gnu.linkonce.wi.*)
 .debug_info    0x0000000061559000     0x657b C:/msys64/mingw64/bin/../lib/gcc/x86_64-w64-mingw32/8.2.1/../../../../x86_64-w64-mingw32/lib/../lib/dllcrt2.o
 .debug_info    0x000000006155f57b     0x88c8 C:\msys64\tmp\ccfy01SD.o
 .debug_info    0x0000000061567e43     0x10ff C:\msys64\tmp\ccWMuz0v.o
 .debug_info    0x0000000061568f42     0x1117 C:\msys64\tmp\ccFOXHzz.o
 .debug_info    0x000000006156a059     0x1777 C:\msys64\tmp\ccLjWXKz.o
 .debug_info    0x000000006156b7d0     0x26e5 C:\msys64\tmp\ccz1diiN.o
 .debug_info    0x000000006156deb5     0x127f C:\msys64\tmp\ccVizNw9.o
 .debug_info    0x000000006156f134     0x35d0 C:\msys64\tmp\ccjhsTYI.o
 .debug_info    0x0000000061572704     0x3e5d C:\msys64\tmp\ccLt5nLD.o
 .debug_info    0x0000000061576561      0xfaf C:\msys64\tmp\ccuoZVRF.o
 .debug_info    0x0000000061577510      0x9bd C:\msys64\tmp\cctFmZYO.o
 .debug_info    0x0000000061577ecd     0x1ed6 C:\msys64\tmp\ccuduyC5.o
 .debug_info    0x0000000061579da3      0x721 C:\msys64\tmp\ccJuBzPw.o
 .debug_info    0x000000006157a4c4     0x952a C:\msys64\tmp\ccTqPSxT.o
 .debug_info    0x00000000615839ee    0x5a56a C:\msys64\tmp\ccXRde14.o
 .debug_info    0x00000000615ddf58      0x63a C:\msys64\tmp\ccpSIAqr.o
 .debug_info    0x00000000615de592      0xafc C:\msys64\tmp\ccZkAuiV.o
 .debug_info    0x00000000615df08e      0x446 C:\msys64\tmp\ccJabTGs.o
 .debug_info    0x00000000615df4d4     0x6137 C:\msys64\tmp\ccQHA7kH.o
 .debug_info    0x00000000615e560b      0x3c4 C:\msys64\tmp\ccDKFcP3.o
 .debug_info    0x00000000615e59cf     0x4eaf C:\msys64\tmp\ccRApjM5.o
 .debug_info    0x00000000615ea87e      0xe22 C:\msys64\tmp\cc5MSZGd.o
 .debug_info    0x00000000615eb6a0     0x5d00 C:\msys64\tmp\ccxqqLTc.o
 .debug_info    0x00000000615f13a0     0x5292 C:\msys64\tmp\ccenaSVZ.o
 .debug_info    0x00000000615f6632     0x5b98 C:\msys64\tmp\ccSZ239v.o
 .debug_info    0x00000000615fc1ca     0x5170 C:\msys64\tmp\ccvj8G4H.o
 .debug_info    0x000000006160133a     0x5b23 C:\msys64\tmp\ccldb7oK.o
 .debug_info    0x0000000061606e5d     0x5bdd C:\msys64\tmp\cc1vz69F.o
 .debug_info    0x000000006160ca3a      0x5ae C:\msys64\tmp\ccXkOUMF.o
 .debug_info    0x000000006160cfe8      0xa24 C:\msys64\tmp\cc7I1SCN.o
 .debug_info    0x000000006160da0c     0x1014 C:\msys64\tmp\ccaJ2lTQ.o
 .debug_info    0x000000006160ea20      0x8ba C:\msys64\tmp\ccTYAR93.o
 .debug_info    0x000000006160f2da      0xe95 C:\msys64\tmp\cc2LD5lo.o
 .debug_info    0x000000006161016f     0x10da C:\msys64\tmp\cctiLsmQ.o
 .debug_info    0x0000000061611249     0x20df C:\msys64\tmp\cckEQkSt.o
 .debug_info    0x0000000061613328      0xcbe C:\msys64\tmp\ccxxh8wg.o
 .debug_info    0x0000000061613fe6     0x1051 C:\msys64\tmp\ccoLUxS8.o
 .debug_info    0x0000000061615037     0x11ef C:\msys64\tmp\cc5FaVq8.o
 .debug_info    0x0000000061616226      0x4c0 C:\msys64\tmp\ccg4nTgg.o
 .debug_info    0x00000000616166e6      0x40d C:\msys64\tmp\ccmZReTk.o
 .debug_info    0x0000000061616af3     0x122d C:\msys64\tmp\ccA4uJAu.o
 .debug_info    0x0000000061617d20     0x2976 C:\msys64\tmp\ccS3faXP.o
 .debug_info    0x000000006161a696      0x703 C:\msys64\tmp\ccoUgfsm.o
 .debug_info    0x000000006161ad99      0xd7d C:\msys64\tmp\ccUcMoTZ.o
 .debug_info    0x000000006161bb16      0x9cc C:\msys64\tmp\ccidGW4M.o
 .debug_info    0x000000006161c4e2      0x453 C:\msys64\tmp\ccYk3DtG.o
 .debug_info    0x000000006161c935      0x4f7 C:\msys64\tmp\ccQIpGaD.o
 .debug_info    0x000000006161ce2c     0x1f76 C:/msys64/mingw64/bin/../lib/gcc/x86_64-w64-mingw32/8.2.1/../../../../x86_64-w64-mingw32/lib/../lib/libws2_32.a(lib64_libws2_32_a-gai_strerrorA.o)
 .debug_info    0x000000006161eda2     0x1fb8 C:/msys64/mingw64/bin/../lib/gcc/x86_64-w64-mingw32/8.2.1/../../../../x86_64-w64-mingw32/lib/../lib/libws2_32.a(lib64_libws2_32_a-gai_strerrorW.o)
 .debug_info    0x0000000061620d5a     0x5354 C:/msys64/mingw64/bin/../lib/gcc/x86_64-w64-mingw32/8.2.1/../../../../x86_64-w64-mingw32/lib/../lib/libmingw32.a(lib64_libmingw32_a-atonexit.o)
 .debug_info    0x00000000616260ae     0x4d88 C:/msys64/mingw64/bin/../lib/gcc/x86_64-w64-mingw32/8.2.1/../../../../x86_64-w64-mingw32/lib/../lib/libmingw32.a(lib64_libmingw32_a-gccmain.o)
 .debug_info    0x000000006162ae36     0x5144 C:/msys64/mingw64/bin/../lib/gcc/x86_64-w64-mingw32/8.2.1/../../../../x86_64-w64-mingw32/lib/../lib/libmingw32.a(lib64_libmingw32_a-natstart.o)
 .debug_info    0x000000006162ff7a     0x2c1f C:/msys64/mingw64/bin/../lib/gcc/x86_64-w64-mingw32/8.2.1/../../../../x86_64-w64-mingw32/lib/../lib/libmingw32.a(lib64_libmingw32_a-gs_support.o)
 .debug_info    0x0000000061632b99     0x2347 C:/msys64/mingw64/bin/../lib/gcc/x86_64-w64-mingw32/8.2.1/../../../../x86_64-w64-mingw32/lib/../lib/libmingw32.a(lib64_libmingw32_a-tlssup.o)
 .debug_info    0x0000000061634ee0      0x1f9 C:/msys64/mingw64/bin/../lib/gcc/x86_64-w64-mingw32/8.2.1/../../../../x86_64-w64-mingw32/lib/../lib/libmingw32.a(lib64_libmingw32_a-cinitexe.o)
 .debug_info    0x00000000616350d9     0x53fc C:/msys64/mingw64/bin/../lib/gcc/x86_64-w64-mingw32/8.2.1/../../../../x86_64-w64-mingw32/lib/../lib/libmingw32.a(lib64_libmingw32_a-mingw_helpers.o)
 .debug_info    0x000000006163a4d5     0x5d25 C:/msys64/mingw64/bin/../lib/gcc/x86_64-w64-mingw32/8.2.1/../../../../x86_64-w64-mingw32/lib/../lib/libmingw32.a(lib64_libmingw32_a-pseudo-reloc.o)
 .debug_info    0x00000000616401fa     0x5ea3 C:/msys64/mingw64/bin/../lib/gcc/x86_64-w64-mingw32/8.2.1/../../../../x86_64-w64-mingw32/lib/../lib/libmingw32.a(lib64_libmingw32_a-crt_handler.o)
 .debug_info    0x000000006164609d     0x25f7 C:/msys64/mingw64/bin/../lib/gcc/x86_64-w64-mingw32/8.2.1/../../../../x86_64-w64-mingw32/lib/../lib/libmingw32.a(lib64_libmingw32_a-tlsthrd.o)
 .debug_info    0x0000000061648694      0x102 C:/msys64/mingw64/bin/../lib/gcc/x86_64-w64-mingw32/8.2.1/../../../../x86_64-w64-mingw32/lib/../lib/libmingw32.a(lib64_libmingw32_a-tlsmcrt.o)
 .debug_info    0x0000000061648796      0x156 C:/msys64/mingw64/bin/../lib/gcc/x86_64-w64-mingw32/8.2.1/../../../../x86_64-w64-mingw32/lib/../lib/libmingw32.a(lib64_libmingw32_a-pseudo-reloc-list.o)
 .debug_info    0x00000000616488ec     0x5af3 C:/msys64/mingw64/bin/../lib/gcc/x86_64-w64-mingw32/8.2.1/../../../../x86_64-w64-mingw32/lib/../lib/libmingw32.a(lib64_libmingw32_a-pesect.o)
 .debug_info    0x000000006164e3df      0x111 C:/msys64/mingw64/bin/../lib/gcc/x86_64-w64-mingw32/8.2.1/../../../../x86_64-w64-mingw32/lib/../lib/libmingw32.a(lib64_libmingw32_a-CRT_fp10.o)
 .debug_info    0x000000006164e4f0     0x4a4a C:/msys64/mingw64/bin/../lib/gcc/x86_64-w64-mingw32/8.2.1/../../../../x86_64-w64-mingw32/lib/../lib/libmingwex.a(lib64_libmingwex_a-dllentry.o)
 .debug_info    0x0000000061652f3a     0x4a43 C:/msys64/mingw64/bin/../lib/gcc/x86_64-w64-mingw32/8.2.1/../../../../x86_64-w64-mingw32/lib/../lib/libmingwex.a(lib64_libmingwex_a-dllmain.o)
 .debug_info    0x000000006165797d      0x68b C:/msys64/mingw64/bin/../lib/gcc/x86_64-w64-mingw32/8.2.1/../../../../x86_64-w64-mingw32/lib/../lib/libmingwex.a(lib64_libmingwex_a-strtodnrp.o)
 .debug_info    0x0000000061658008      0x26d C:/msys64/mingw64/bin/../lib/gcc/x86_64-w64-mingw32/8.2.1/../../../../x86_64-w64-mingw32/lib/../lib/libmingwex.a(lib64_libmingwex_a-fpclassify.o)
 .debug_info    0x0000000061658275      0x263 C:/msys64/mingw64/bin/../lib/gcc/x86_64-w64-mingw32/8.2.1/../../../../x86_64-w64-mingw32/lib/../lib/libmingwex.a(lib64_libmingwex_a-isnan.o)
 .debug_info    0x00000000616584d8      0x410 C:/msys64/mingw64/bin/../lib/gcc/x86_64-w64-mingw32/8.2.1/../../../../x86_64-w64-mingw32/lib/../lib/libmingwex.a(lib64_libmingwex_a-modf.o)
 .debug_info    0x00000000616588e8      0x229 C:/msys64/mingw64/bin/../lib/gcc/x86_64-w64-mingw32/8.2.1/../../../../x86_64-w64-mingw32/lib/../lib/libmingwex.a(lib64_libmingwex_a-powf.o)
 .debug_info    0x0000000061658b11      0x4ee C:/msys64/mingw64/bin/../lib/gcc/x86_64-w64-mingw32/8.2.1/../../../../x86_64-w64-mingw32/lib/../lib/libmingwex.a(lib64_libmingwex_a-sqrt.o)
 .debug_info    0x0000000061658fff      0x27b C:/msys64/mingw64/bin/../lib/gcc/x86_64-w64-mingw32/8.2.1/../../../../x86_64-w64-mingw32/lib/../lib/libmingwex.a(lib64_libmingwex_a-difftime64.o)
 .debug_info    0x000000006165927a     0x4ee3 C:/msys64/mingw64/bin/../lib/gcc/x86_64-w64-mingw32/8.2.1/../../../../x86_64-w64-mingw32/lib/../lib/libmingwex.a(lib64_libmingwex_a-gettimeofday.o)
 .debug_info    0x000000006165e15d      0xa11 C:/msys64/mingw64/bin/../lib/gcc/x86_64-w64-mingw32/8.2.1/../../../../x86_64-w64-mingw32/lib/../lib/libmingwex.a(lib64_libmingwex_a-strtoimax.o)
 .debug_info    0x000000006165eb6e      0xa0e C:/msys64/mingw64/bin/../lib/gcc/x86_64-w64-mingw32/8.2.1/../../../../x86_64-w64-mingw32/lib/../lib/libmingwex.a(lib64_libmingwex_a-strtoumax.o)
 .debug_info    0x000000006165f57c     0x4d18 C:/msys64/mingw64/bin/../lib/gcc/x86_64-w64-mingw32/8.2.1/../../../../x86_64-w64-mingw32/lib/../lib/libmingwex.a(lib64_libmingwex_a-wassert.o)
 .debug_info    0x0000000061664294      0x3b4 C:/msys64/mingw64/bin/../lib/gcc/x86_64-w64-mingw32/8.2.1/../../../../x86_64-w64-mingw32/lib/../lib/libmingwex.a(lib64_libmingwex_a-atoll.o)
 .debug_info    0x0000000061664648     0x56d3 C:/msys64/mingw64/bin/../lib/gcc/x86_64-w64-mingw32/8.2.1/../../../../x86_64-w64-mingw32/lib/../lib/libmingwex.a(lib64_libmingwex_a-fseeko64.o)
 .debug_info    0x0000000061669d1b      0x2b5 C:/msys64/mingw64/bin/../lib/gcc/x86_64-w64-mingw32/8.2.1/../../../../x86_64-w64-mingw32/lib/../lib/libmingwex.a(lib64_libmingwex_a-ftello64.o)
 .debug_info    0x0000000061669fd0      0x26e C:/msys64/mingw64/bin/../lib/gcc/x86_64-w64-mingw32/8.2.1/../../../../x86_64-w64-mingw32/lib/../lib/libmingwex.a(lib64_libmingwex_a-vsnprintf.o)
 .debug_info    0x000000006166a23e      0x204 C:/msys64/mingw64/bin/../lib/gcc/x86_64-w64-mingw32/8.2.1/../../../../x86_64-w64-mingw32/lib/../lib/libmingwex.a(lib64_libmingwex_a-atan2.o)
 .debug_info    0x000000006166a442      0x4e2 C:/msys64/mingw64/bin/../lib/gcc/x86_64-w64-mingw32/8.2.1/../../../../x86_64-w64-mingw32/lib/../lib/libmingwex.a(lib64_libmingwex_a-cos.o)
 .debug_info    0x000000006166a924       0x2e C:/msys64/mingw64/bin/../lib/gcc/x86_64-w64-mingw32/8.2.1/../../../../x86_64-w64-mingw32/lib/../lib/libmingwex.a(lib64_libmingwex_a-cosl_internal.o)
 .debug_info    0x000000006166a952      0x5eb C:/msys64/mingw64/bin/../lib/gcc/x86_64-w64-mingw32/8.2.1/../../../../x86_64-w64-mingw32/lib/../lib/libmingwex.a(lib64_libmingwex_a-exp.o)
 .debug_info    0x000000006166af3d       0x2e C:/msys64/mingw64/bin/../lib/gcc/x86_64-w64-mingw32/8.2.1/../../../../x86_64-w64-mingw32/lib/../lib/libmingwex.a(lib64_libmingwex_a-floor.o)
 .debug_info    0x000000006166af6b      0x12f C:/msys64/mingw64/bin/../lib/gcc/x86_64-w64-mingw32/8.2.1/../../../../x86_64-w64-mingw32/lib/../lib/libmingwex.a(lib64_libmingwex_a-fmod.o)
 .debug_info    0x000000006166b09a      0x487 C:/msys64/mingw64/bin/../lib/gcc/x86_64-w64-mingw32/8.2.1/../../../../x86_64-w64-mingw32/lib/../lib/libmingwex.a(lib64_libmingwex_a-ldexp.o)
 .debug_info    0x000000006166b521      0x510 C:/msys64/mingw64/bin/../lib/gcc/x86_64-w64-mingw32/8.2.1/../../../../x86_64-w64-mingw32/lib/../lib/libmingwex.a(lib64_libmingwex_a-log.o)
 .debug_info    0x000000006166ba31      0x841 C:/msys64/mingw64/bin/../lib/gcc/x86_64-w64-mingw32/8.2.1/../../../../x86_64-w64-mingw32/lib/../lib/libmingwex.a(lib64_libmingwex_a-pow.o)
 .debug_info    0x000000006166c272      0x4e2 C:/msys64/mingw64/bin/../lib/gcc/x86_64-w64-mingw32/8.2.1/../../../../x86_64-w64-mingw32/lib/../lib/libmingwex.a(lib64_libmingwex_a-sin.o)
 .debug_info    0x000000006166c754       0x2e C:/msys64/mingw64/bin/../lib/gcc/x86_64-w64-mingw32/8.2.1/../../../../x86_64-w64-mingw32/lib/../lib/libmingwex.a(lib64_libmingwex_a-sinl_internal.o)
 .debug_info    0x000000006166c782     0x1b90 C:/msys64/mingw64/bin/../lib/gcc/x86_64-w64-mingw32/8.2.1/../../../../x86_64-w64-mingw32/lib/../lib/libmingwex.a(lib64_libmingwex_a-strtodg.o)
 .debug_info    0x000000006166e312      0x5cc C:/msys64/mingw64/bin/../lib/gcc/x86_64-w64-mingw32/8.2.1/../../../../x86_64-w64-mingw32/lib/../lib/libmingwex.a(lib64_libmingwex_a-sum.o)
 .debug_info    0x000000006166e8de      0x4d3 C:/msys64/mingw64/bin/../lib/gcc/x86_64-w64-mingw32/8.2.1/../../../../x86_64-w64-mingw32/lib/../lib/libmingwex.a(lib64_libmingwex_a-powi.o)
 .debug_info    0x000000006166edb1       0x2e C:/msys64/mingw64/bin/../lib/gcc/x86_64-w64-mingw32/8.2.1/../../../../x86_64-w64-mingw32/lib/../lib/libmingwex.a(lib64_libmingwex_a-exp2l.o)
 .debug_info    0x000000006166eddf       0x2e C:/msys64/mingw64/bin/../lib/gcc/x86_64-w64-mingw32/8.2.1/../../../../x86_64-w64-mingw32/lib/../lib/libmingwex.a(lib64_libmingwex_a-internal_logl.o)
 .debug_info    0x000000006166ee0d       0x2e C:/msys64/mingw64/bin/../lib/gcc/x86_64-w64-mingw32/8.2.1/../../../../x86_64-w64-mingw32/lib/../lib/libmingwex.a(lib64_libmingwex_a-log2l.o)
 .debug_info    0x000000006166ee3b      0xb48 C:/msys64/mingw64/bin/../lib/gcc/x86_64-w64-mingw32/8.2.1/../../../../x86_64-w64-mingw32/lib/../lib/libmingwex.a(lib64_libmingwex_a-gethex.o)
 .debug_info    0x000000006166f983      0x5f0 C:/msys64/mingw64/bin/../lib/gcc/x86_64-w64-mingw32/8.2.1/../../../../x86_64-w64-mingw32/lib/../lib/libmingwex.a(lib64_libmingwex_a-gmisc.o)
 .debug_info    0x000000006166ff73      0x592 C:/msys64/mingw64/bin/../lib/gcc/x86_64-w64-mingw32/8.2.1/../../../../x86_64-w64-mingw32/lib/../lib/libmingwex.a(lib64_libmingwex_a-hd_init.o)
 .debug_info    0x0000000061670505      0x777 C:/msys64/mingw64/bin/../lib/gcc/x86_64-w64-mingw32/8.2.1/../../../../x86_64-w64-mingw32/lib/../lib/libmingwex.a(lib64_libmingwex_a-hexnan.o)
 .debug_info    0x0000000061670c7c     0x326b C:/msys64/mingw64/bin/../lib/gcc/x86_64-w64-mingw32/8.2.1/../../../../x86_64-w64-mingw32/lib/../lib/libmingwex.a(lib64_libmingwex_a-misc.o)
 .debug_info    0x0000000061673ee7      0x82a C:/msys64/mingw64/bin/../lib/gcc/x86_64-w64-mingw32/8.2.1/../../../../x86_64-w64-mingw32/lib/../lib/libmingwex.a(lib64_libmingwex_a-smisc.o)
 .debug_info    0x0000000061674711     0x5393 C:/msys64/mingw64/bin/../lib/gcc/x86_64-w64-mingw32/8.2.1/../../../../x86_64-w64-mingw32/lib/../lib/libmingw32.a(lib64_libmingw32_a-merr.o)

.zdebug_info
 *(.zdebug_info .zdebug.gnu.linkonce.wi.*)

.debug_abbrev   0x000000006167a000     0xc600
 *(.debug_abbrev)
 .debug_abbrev  0x000000006167a000      0x481 C:/msys64/mingw64/bin/../lib/gcc/x86_64-w64-mingw32/8.2.1/../../../../x86_64-w64-mingw32/lib/../lib/dllcrt2.o
 .debug_abbrev  0x000000006167a481      0x414 C:\msys64\tmp\ccfy01SD.o
 .debug_abbrev  0x000000006167a895      0x237 C:\msys64\tmp\ccWMuz0v.o
 .debug_abbrev  0x000000006167aacc      0x237 C:\msys64\tmp\ccFOXHzz.o
 .debug_abbrev  0x000000006167ad03      0x268 C:\msys64\tmp\ccLjWXKz.o
 .debug_abbrev  0x000000006167af6b      0x2a8 C:\msys64\tmp\ccz1diiN.o
 .debug_abbrev  0x000000006167b213      0x282 C:\msys64\tmp\ccVizNw9.o
 .debug_abbrev  0x000000006167b495      0x26e C:\msys64\tmp\ccjhsTYI.o
 .debug_abbrev  0x000000006167b703      0x373 C:\msys64\tmp\ccLt5nLD.o
 .debug_abbrev  0x000000006167ba76      0x309 C:\msys64\tmp\ccuoZVRF.o
 .debug_abbrev  0x000000006167bd7f      0x1e2 C:\msys64\tmp\cctFmZYO.o
 .debug_abbrev  0x000000006167bf61      0x2ff C:\msys64\tmp\ccuduyC5.o
 .debug_abbrev  0x000000006167c260      0x1bc C:\msys64\tmp\ccJuBzPw.o
 .debug_abbrev  0x000000006167c41c      0x3e4 C:\msys64\tmp\ccTqPSxT.o
 .debug_abbrev  0x000000006167c800      0x7d7 C:\msys64\tmp\ccXRde14.o
 .debug_abbrev  0x000000006167cfd7      0x15c C:\msys64\tmp\ccpSIAqr.o
 .debug_abbrev  0x000000006167d133      0x26b C:\msys64\tmp\ccZkAuiV.o
 .debug_abbrev  0x000000006167d39e      0x14d C:\msys64\tmp\ccJabTGs.o
 .debug_abbrev  0x000000006167d4eb      0x37e C:\msys64\tmp\ccQHA7kH.o
 .debug_abbrev  0x000000006167d869      0x108 C:\msys64\tmp\ccDKFcP3.o
 .debug_abbrev  0x000000006167d971      0x234 C:\msys64\tmp\ccRApjM5.o
 .debug_abbrev  0x000000006167dba5      0x22e C:\msys64\tmp\cc5MSZGd.o
 .debug_abbrev  0x000000006167ddd3      0x289 C:\msys64\tmp\ccxqqLTc.o
 .debug_abbrev  0x000000006167e05c      0x275 C:\msys64\tmp\ccenaSVZ.o
 .debug_abbrev  0x000000006167e2d1      0x2ea C:\msys64\tmp\ccSZ239v.o
 .debug_abbrev  0x000000006167e5bb      0x27b C:\msys64\tmp\ccvj8G4H.o
 .debug_abbrev  0x000000006167e836      0x2b7 C:\msys64\tmp\ccldb7oK.o
 .debug_abbrev  0x000000006167eaed      0x328 C:\msys64\tmp\cc1vz69F.o
 .debug_abbrev  0x000000006167ee15      0x13c C:\msys64\tmp\ccXkOUMF.o
 .debug_abbrev  0x000000006167ef51      0x1bd C:\msys64\tmp\cc7I1SCN.o
 .debug_abbrev  0x000000006167f10e      0x24f C:\msys64\tmp\ccaJ2lTQ.o
 .debug_abbrev  0x000000006167f35d      0x1ba C:\msys64\tmp\ccTYAR93.o
 .debug_abbrev  0x000000006167f517      0x224 C:\msys64\tmp\cc2LD5lo.o
 .debug_abbrev  0x000000006167f73b      0x2af C:\msys64\tmp\cctiLsmQ.o
 .debug_abbrev  0x000000006167f9ea      0x33f C:\msys64\tmp\cckEQkSt.o
 .debug_abbrev  0x000000006167fd29      0x223 C:\msys64\tmp\ccxxh8wg.o
 .debug_abbrev  0x000000006167ff4c      0x1ff C:\msys64\tmp\ccoLUxS8.o
 .debug_abbrev  0x000000006168014b      0x267 C:\msys64\tmp\cc5FaVq8.o
 .debug_abbrev  0x00000000616803b2      0x124 C:\msys64\tmp\ccg4nTgg.o
 .debug_abbrev  0x00000000616804d6      0x100 C:\msys64\tmp\ccmZReTk.o
 .debug_abbrev  0x00000000616805d6      0x25c C:\msys64\tmp\ccA4uJAu.o
 .debug_abbrev  0x0000000061680832      0x33e C:\msys64\tmp\ccS3faXP.o
 .debug_abbrev  0x0000000061680b70      0x179 C:\msys64\tmp\ccoUgfsm.o
 .debug_abbrev  0x0000000061680ce9      0x213 C:\msys64\tmp\ccUcMoTZ.o
 .debug_abbrev  0x0000000061680efc      0x1ae C:\msys64\tmp\ccidGW4M.o
 .debug_abbrev  0x00000000616810aa       0xd2 C:\msys64\tmp\ccYk3DtG.o
 .debug_abbrev  0x000000006168117c       0xfd C:\msys64\tmp\ccQIpGaD.o
 .debug_abbrev  0x0000000061681279      0x1a3 C:/msys64/mingw64/bin/../lib/gcc/x86_64-w64-mingw32/8.2.1/../../../../x86_64-w64-mingw32/lib/../lib/libws2_32.a(lib64_libws2_32_a-gai_strerrorA.o)
 .debug_abbrev  0x000000006168141c      0x1a3 C:/msys64/mingw64/bin/../lib/gcc/x86_64-w64-mingw32/8.2.1/../../../../x86_64-w64-mingw32/lib/../lib/libws2_32.a(lib64_libws2_32_a-gai_strerrorW.o)
 .debug_abbrev  0x00000000616815bf      0x28b C:/msys64/mingw64/bin/../lib/gcc/x86_64-w64-mingw32/8.2.1/../../../../x86_64-w64-mingw32/lib/../lib/libmingw32.a(lib64_libmingw32_a-atonexit.o)
 .debug_abbrev  0x000000006168184a      0x1e2 C:/msys64/mingw64/bin/../lib/gcc/x86_64-w64-mingw32/8.2.1/../../../../x86_64-w64-mingw32/lib/../lib/libmingw32.a(lib64_libmingw32_a-gccmain.o)
 .debug_abbrev  0x0000000061681a2c      0x1a7 C:/msys64/mingw64/bin/../lib/gcc/x86_64-w64-mingw32/8.2.1/../../../../x86_64-w64-mingw32/lib/../lib/libmingw32.a(lib64_libmingw32_a-natstart.o)
 .debug_abbrev  0x0000000061681bd3      0x2dd C:/msys64/mingw64/bin/../lib/gcc/x86_64-w64-mingw32/8.2.1/../../../../x86_64-w64-mingw32/lib/../lib/libmingw32.a(lib64_libmingw32_a-gs_support.o)
 .debug_abbrev  0x0000000061681eb0      0x21f C:/msys64/mingw64/bin/../lib/gcc/x86_64-w64-mingw32/8.2.1/../../../../x86_64-w64-mingw32/lib/../lib/libmingw32.a(lib64_libmingw32_a-tlssup.o)
 .debug_abbrev  0x00000000616820cf       0x5b C:/msys64/mingw64/bin/../lib/gcc/x86_64-w64-mingw32/8.2.1/../../../../x86_64-w64-mingw32/lib/../lib/libmingw32.a(lib64_libmingw32_a-cinitexe.o)
 .debug_abbrev  0x000000006168212a      0x1fd C:/msys64/mingw64/bin/../lib/gcc/x86_64-w64-mingw32/8.2.1/../../../../x86_64-w64-mingw32/lib/../lib/libmingw32.a(lib64_libmingw32_a-mingw_helpers.o)
 .debug_abbrev  0x0000000061682327      0x395 C:/msys64/mingw64/bin/../lib/gcc/x86_64-w64-mingw32/8.2.1/../../../../x86_64-w64-mingw32/lib/../lib/libmingw32.a(lib64_libmingw32_a-pseudo-reloc.o)
 .debug_abbrev  0x00000000616826bc      0x312 C:/msys64/mingw64/bin/../lib/gcc/x86_64-w64-mingw32/8.2.1/../../../../x86_64-w64-mingw32/lib/../lib/libmingw32.a(lib64_libmingw32_a-crt_handler.o)
 .debug_abbrev  0x00000000616829ce      0x25f C:/msys64/mingw64/bin/../lib/gcc/x86_64-w64-mingw32/8.2.1/../../../../x86_64-w64-mingw32/lib/../lib/libmingw32.a(lib64_libmingw32_a-tlsthrd.o)
 .debug_abbrev  0x0000000061682c2d       0x2c C:/msys64/mingw64/bin/../lib/gcc/x86_64-w64-mingw32/8.2.1/../../../../x86_64-w64-mingw32/lib/../lib/libmingw32.a(lib64_libmingw32_a-tlsmcrt.o)
 .debug_abbrev  0x0000000061682c59       0x2c C:/msys64/mingw64/bin/../lib/gcc/x86_64-w64-mingw32/8.2.1/../../../../x86_64-w64-mingw32/lib/../lib/libmingw32.a(lib64_libmingw32_a-pseudo-reloc-list.o)
 .debug_abbrev  0x0000000061682c85      0x2c0 C:/msys64/mingw64/bin/../lib/gcc/x86_64-w64-mingw32/8.2.1/../../../../x86_64-w64-mingw32/lib/../lib/libmingw32.a(lib64_libmingw32_a-pesect.o)
 .debug_abbrev  0x0000000061682f45       0x2c C:/msys64/mingw64/bin/../lib/gcc/x86_64-w64-mingw32/8.2.1/../../../../x86_64-w64-mingw32/lib/../lib/libmingw32.a(lib64_libmingw32_a-CRT_fp10.o)
 .debug_abbrev  0x0000000061682f71      0x14c C:/msys64/mingw64/bin/../lib/gcc/x86_64-w64-mingw32/8.2.1/../../../../x86_64-w64-mingw32/lib/../lib/libmingwex.a(lib64_libmingwex_a-dllentry.o)
 .debug_abbrev  0x00000000616830bd      0x14c C:/msys64/mingw64/bin/../lib/gcc/x86_64-w64-mingw32/8.2.1/../../../../x86_64-w64-mingw32/lib/../lib/libmingwex.a(lib64_libmingwex_a-dllmain.o)
 .debug_abbrev  0x0000000061683209      0x138 C:/msys64/mingw64/bin/../lib/gcc/x86_64-w64-mingw32/8.2.1/../../../../x86_64-w64-mingw32/lib/../lib/libmingwex.a(lib64_libmingwex_a-strtodnrp.o)
 .debug_abbrev  0x0000000061683341       0xe3 C:/msys64/mingw64/bin/../lib/gcc/x86_64-w64-mingw32/8.2.1/../../../../x86_64-w64-mingw32/lib/../lib/libmingwex.a(lib64_libmingwex_a-fpclassify.o)
 .debug_abbrev  0x0000000061683424       0xe3 C:/msys64/mingw64/bin/../lib/gcc/x86_64-w64-mingw32/8.2.1/../../../../x86_64-w64-mingw32/lib/../lib/libmingwex.a(lib64_libmingwex_a-isnan.o)
 .debug_abbrev  0x0000000061683507      0x143 C:/msys64/mingw64/bin/../lib/gcc/x86_64-w64-mingw32/8.2.1/../../../../x86_64-w64-mingw32/lib/../lib/libmingwex.a(lib64_libmingwex_a-modf.o)
 .debug_abbrev  0x000000006168364a       0x9d C:/msys64/mingw64/bin/../lib/gcc/x86_64-w64-mingw32/8.2.1/../../../../x86_64-w64-mingw32/lib/../lib/libmingwex.a(lib64_libmingwex_a-powf.o)
 .debug_abbrev  0x00000000616836e7      0x19c C:/msys64/mingw64/bin/../lib/gcc/x86_64-w64-mingw32/8.2.1/../../../../x86_64-w64-mingw32/lib/../lib/libmingwex.a(lib64_libmingwex_a-sqrt.o)
 .debug_abbrev  0x0000000061683883       0xb2 C:/msys64/mingw64/bin/../lib/gcc/x86_64-w64-mingw32/8.2.1/../../../../x86_64-w64-mingw32/lib/../lib/libmingwex.a(lib64_libmingwex_a-difftime64.o)
 .debug_abbrev  0x0000000061683935      0x252 C:/msys64/mingw64/bin/../lib/gcc/x86_64-w64-mingw32/8.2.1/../../../../x86_64-w64-mingw32/lib/../lib/libmingwex.a(lib64_libmingwex_a-gettimeofday.o)
 .debug_abbrev  0x0000000061683b87      0x19f C:/msys64/mingw64/bin/../lib/gcc/x86_64-w64-mingw32/8.2.1/../../../../x86_64-w64-mingw32/lib/../lib/libmingwex.a(lib64_libmingwex_a-strtoimax.o)
 .debug_abbrev  0x0000000061683d26      0x19f C:/msys64/mingw64/bin/../lib/gcc/x86_64-w64-mingw32/8.2.1/../../../../x86_64-w64-mingw32/lib/../lib/libmingwex.a(lib64_libmingwex_a-strtoumax.o)
 .debug_abbrev  0x0000000061683ec5      0x1ed C:/msys64/mingw64/bin/../lib/gcc/x86_64-w64-mingw32/8.2.1/../../../../x86_64-w64-mingw32/lib/../lib/libmingwex.a(lib64_libmingwex_a-wassert.o)
 .debug_abbrev  0x00000000616840b2       0xc6 C:/msys64/mingw64/bin/../lib/gcc/x86_64-w64-mingw32/8.2.1/../../../../x86_64-w64-mingw32/lib/../lib/libmingwex.a(lib64_libmingwex_a-atoll.o)
 .debug_abbrev  0x0000000061684178      0x2ae C:/msys64/mingw64/bin/../lib/gcc/x86_64-w64-mingw32/8.2.1/../../../../x86_64-w64-mingw32/lib/../lib/libmingwex.a(lib64_libmingwex_a-fseeko64.o)
 .debug_abbrev  0x0000000061684426       0xb5 C:/msys64/mingw64/bin/../lib/gcc/x86_64-w64-mingw32/8.2.1/../../../../x86_64-w64-mingw32/lib/../lib/libmingwex.a(lib64_libmingwex_a-ftello64.o)
 .debug_abbrev  0x00000000616844db       0x9d C:/msys64/mingw64/bin/../lib/gcc/x86_64-w64-mingw32/8.2.1/../../../../x86_64-w64-mingw32/lib/../lib/libmingwex.a(lib64_libmingwex_a-vsnprintf.o)
 .debug_abbrev  0x0000000061684578       0x91 C:/msys64/mingw64/bin/../lib/gcc/x86_64-w64-mingw32/8.2.1/../../../../x86_64-w64-mingw32/lib/../lib/libmingwex.a(lib64_libmingwex_a-atan2.o)
 .debug_abbrev  0x0000000061684609      0x18d C:/msys64/mingw64/bin/../lib/gcc/x86_64-w64-mingw32/8.2.1/../../../../x86_64-w64-mingw32/lib/../lib/libmingwex.a(lib64_libmingwex_a-cos.o)
 .debug_abbrev  0x0000000061684796       0x14 C:/msys64/mingw64/bin/../lib/gcc/x86_64-w64-mingw32/8.2.1/../../../../x86_64-w64-mingw32/lib/../lib/libmingwex.a(lib64_libmingwex_a-cosl_internal.o)
 .debug_abbrev  0x00000000616847aa      0x1ee C:/msys64/mingw64/bin/../lib/gcc/x86_64-w64-mingw32/8.2.1/../../../../x86_64-w64-mingw32/lib/../lib/libmingwex.a(lib64_libmingwex_a-exp.o)
 .debug_abbrev  0x0000000061684998       0x14 C:/msys64/mingw64/bin/../lib/gcc/x86_64-w64-mingw32/8.2.1/../../../../x86_64-w64-mingw32/lib/../lib/libmingwex.a(lib64_libmingwex_a-floor.o)
 .debug_abbrev  0x00000000616849ac       0x66 C:/msys64/mingw64/bin/../lib/gcc/x86_64-w64-mingw32/8.2.1/../../../../x86_64-w64-mingw32/lib/../lib/libmingwex.a(lib64_libmingwex_a-fmod.o)
 .debug_abbrev  0x0000000061684a12      0x15c C:/msys64/mingw64/bin/../lib/gcc/x86_64-w64-mingw32/8.2.1/../../../../x86_64-w64-mingw32/lib/../lib/libmingwex.a(lib64_libmingwex_a-ldexp.o)
 .debug_abbrev  0x0000000061684b6e      0x18d C:/msys64/mingw64/bin/../lib/gcc/x86_64-w64-mingw32/8.2.1/../../../../x86_64-w64-mingw32/lib/../lib/libmingwex.a(lib64_libmingwex_a-log.o)
 .debug_abbrev  0x0000000061684cfb      0x1fe C:/msys64/mingw64/bin/../lib/gcc/x86_64-w64-mingw32/8.2.1/../../../../x86_64-w64-mingw32/lib/../lib/libmingwex.a(lib64_libmingwex_a-pow.o)
 .debug_abbrev  0x0000000061684ef9      0x18d C:/msys64/mingw64/bin/../lib/gcc/x86_64-w64-mingw32/8.2.1/../../../../x86_64-w64-mingw32/lib/../lib/libmingwex.a(lib64_libmingwex_a-sin.o)
 .debug_abbrev  0x0000000061685086       0x14 C:/msys64/mingw64/bin/../lib/gcc/x86_64-w64-mingw32/8.2.1/../../../../x86_64-w64-mingw32/lib/../lib/libmingwex.a(lib64_libmingwex_a-sinl_internal.o)
 .debug_abbrev  0x000000006168509a      0x36b C:/msys64/mingw64/bin/../lib/gcc/x86_64-w64-mingw32/8.2.1/../../../../x86_64-w64-mingw32/lib/../lib/libmingwex.a(lib64_libmingwex_a-strtodg.o)
 .debug_abbrev  0x0000000061685405      0x122 C:/msys64/mingw64/bin/../lib/gcc/x86_64-w64-mingw32/8.2.1/../../../../x86_64-w64-mingw32/lib/../lib/libmingwex.a(lib64_libmingwex_a-sum.o)
 .debug_abbrev  0x0000000061685527      0x198 C:/msys64/mingw64/bin/../lib/gcc/x86_64-w64-mingw32/8.2.1/../../../../x86_64-w64-mingw32/lib/../lib/libmingwex.a(lib64_libmingwex_a-powi.o)
 .debug_abbrev  0x00000000616856bf       0x14 C:/msys64/mingw64/bin/../lib/gcc/x86_64-w64-mingw32/8.2.1/../../../../x86_64-w64-mingw32/lib/../lib/libmingwex.a(lib64_libmingwex_a-exp2l.o)
 .debug_abbrev  0x00000000616856d3       0x14 C:/msys64/mingw64/bin/../lib/gcc/x86_64-w64-mingw32/8.2.1/../../../../x86_64-w64-mingw32/lib/../lib/libmingwex.a(lib64_libmingwex_a-internal_logl.o)
 .debug_abbrev  0x00000000616856e7       0x14 C:/msys64/mingw64/bin/../lib/gcc/x86_64-w64-mingw32/8.2.1/../../../../x86_64-w64-mingw32/lib/../lib/libmingwex.a(lib64_libmingwex_a-log2l.o)
 .debug_abbrev  0x00000000616856fb      0x1c8 C:/msys64/mingw64/bin/../lib/gcc/x86_64-w64-mingw32/8.2.1/../../../../x86_64-w64-mingw32/lib/../lib/libmingwex.a(lib64_libmingwex_a-gethex.o)
 .debug_abbrev  0x00000000616858c3      0x165 C:/msys64/mingw64/bin/../lib/gcc/x86_64-w64-mingw32/8.2.1/../../../../x86_64-w64-mingw32/lib/../lib/libmingwex.a(lib64_libmingwex_a-gmisc.o)
 .debug_abbrev  0x0000000061685a28      0x11b C:/msys64/mingw64/bin/../lib/gcc/x86_64-w64-mingw32/8.2.1/../../../../x86_64-w64-mingw32/lib/../lib/libmingwex.a(lib64_libmingwex_a-hd_init.o)
 .debug_abbrev  0x0000000061685b43      0x15a C:/msys64/mingw64/bin/../lib/gcc/x86_64-w64-mingw32/8.2.1/../../../../x86_64-w64-mingw32/lib/../lib/libmingwex.a(lib64_libmingwex_a-hexnan.o)
 .debug_abbrev  0x0000000061685c9d      0x3ea C:/msys64/mingw64/bin/../lib/gcc/x86_64-w64-mingw32/8.2.1/../../../../x86_64-w64-mingw32/lib/../lib/libmingwex.a(lib64_libmingwex_a-misc.o)
 .debug_abbrev  0x0000000061686087      0x16e C:/msys64/mingw64/bin/../lib/gcc/x86_64-w64-mingw32/8.2.1/../../../../x86_64-w64-mingw32/lib/../lib/libmingwex.a(lib64_libmingwex_a-smisc.o)
 .debug_abbrev  0x00000000616861f5      0x276 C:/msys64/mingw64/bin/../lib/gcc/x86_64-w64-mingw32/8.2.1/../../../../x86_64-w64-mingw32/lib/../lib/libmingw32.a(lib64_libmingw32_a-merr.o)

.zdebug_abbrev
 *(.zdebug_abbrev)

.debug_line     0x0000000061687000    0x55000
 *(.debug_line)
 .debug_line    0x0000000061687000      0x402 C:/msys64/mingw64/bin/../lib/gcc/x86_64-w64-mingw32/8.2.1/../../../../x86_64-w64-mingw32/lib/../lib/dllcrt2.o
 .debug_line    0x0000000061687402     0x1d03 C:\msys64\tmp\ccfy01SD.o
 .debug_line    0x0000000061689105      0x43a C:\msys64\tmp\ccWMuz0v.o
 .debug_line    0x000000006168953f      0x445 C:\msys64\tmp\ccFOXHzz.o
 .debug_line    0x0000000061689984      0x763 C:\msys64\tmp\ccLjWXKz.o
 .debug_line    0x000000006168a0e7      0xcd4 C:\msys64\tmp\ccz1diiN.o
 .debug_line    0x000000006168adbb      0x5c1 C:\msys64\tmp\ccVizNw9.o
 .debug_line    0x000000006168b37c     0x1216 C:\msys64\tmp\ccjhsTYI.o
 .debug_line    0x000000006168c592     0x241b C:\msys64\tmp\ccLt5nLD.o
 .debug_line    0x000000006168e9ad      0x50c C:\msys64\tmp\ccuoZVRF.o
 .debug_line    0x000000006168eeb9      0x317 C:\msys64\tmp\cctFmZYO.o
 .debug_line    0x000000006168f1d0      0xc29 C:\msys64\tmp\ccuduyC5.o
 .debug_line    0x000000006168fdf9      0x255 C:\msys64\tmp\ccJuBzPw.o
 .debug_line    0x000000006169004e     0x4630 C:\msys64\tmp\ccTqPSxT.o
 .debug_line    0x000000006169467e    0x35aac C:\msys64\tmp\ccXRde14.o
 .debug_line    0x00000000616ca12a      0x1b5 C:\msys64\tmp\ccpSIAqr.o
 .debug_line    0x00000000616ca2df      0x462 C:\msys64\tmp\ccZkAuiV.o
 .debug_line    0x00000000616ca741      0x153 C:\msys64\tmp\ccJabTGs.o
 .debug_line    0x00000000616ca894      0x8c9 C:\msys64\tmp\ccQHA7kH.o
 .debug_line    0x00000000616cb15d       0xd3 C:\msys64\tmp\ccDKFcP3.o
 .debug_line    0x00000000616cb230      0x2ab C:\msys64\tmp\ccRApjM5.o
 .debug_line    0x00000000616cb4db      0x9de C:\msys64\tmp\cc5MSZGd.o
 .debug_line    0x00000000616cbeb9      0x643 C:\msys64\tmp\ccxqqLTc.o
 .debug_line    0x00000000616cc4fc      0x518 C:\msys64\tmp\ccenaSVZ.o
 .debug_line    0x00000000616cca14      0x5a8 C:\msys64\tmp\ccSZ239v.o
 .debug_line    0x00000000616ccfbc      0x414 C:\msys64\tmp\ccvj8G4H.o
 .debug_line    0x00000000616cd3d0      0x69a C:\msys64\tmp\ccldb7oK.o
 .debug_line    0x00000000616cda6a      0x873 C:\msys64\tmp\cc1vz69F.o
 .debug_line    0x00000000616ce2dd      0x147 C:\msys64\tmp\ccXkOUMF.o
 .debug_line    0x00000000616ce424      0x275 C:\msys64\tmp\cc7I1SCN.o
 .debug_line    0x00000000616ce699      0x411 C:\msys64\tmp\ccaJ2lTQ.o
 .debug_line    0x00000000616ceaaa      0x5a8 C:\msys64\tmp\ccTYAR93.o
 .debug_line    0x00000000616cf052      0x7a6 C:\msys64\tmp\cc2LD5lo.o
 .debug_line    0x00000000616cf7f8      0x936 C:\msys64\tmp\cctiLsmQ.o
 .debug_line    0x00000000616d012e     0x135d C:\msys64\tmp\cckEQkSt.o
 .debug_line    0x00000000616d148b      0x363 C:\msys64\tmp\ccxxh8wg.o
 .debug_line    0x00000000616d17ee      0x534 C:\msys64\tmp\ccoLUxS8.o
 .debug_line    0x00000000616d1d22      0x6a6 C:\msys64\tmp\cc5FaVq8.o
 .debug_line    0x00000000616d23c8      0x13f C:\msys64\tmp\ccg4nTgg.o
 .debug_line    0x00000000616d2507      0x263 C:\msys64\tmp\ccmZReTk.o
 .debug_line    0x00000000616d276a      0xa94 C:\msys64\tmp\ccA4uJAu.o
 .debug_line    0x00000000616d31fe     0x1228 C:\msys64\tmp\ccS3faXP.o
 .debug_line    0x00000000616d4426      0x183 C:\msys64\tmp\ccoUgfsm.o
 .debug_line    0x00000000616d45a9      0x735 C:\msys64\tmp\ccUcMoTZ.o
 .debug_line    0x00000000616d4cde      0x8f7 C:\msys64\tmp\ccidGW4M.o
 .debug_line    0x00000000616d55d5       0xe9 C:\msys64\tmp\ccYk3DtG.o
 .debug_line    0x00000000616d56be      0xb2b C:\msys64\tmp\ccQIpGaD.o
 .debug_line    0x00000000616d61e9      0x14e C:/msys64/mingw64/bin/../lib/gcc/x86_64-w64-mingw32/8.2.1/../../../../x86_64-w64-mingw32/lib/../lib/libws2_32.a(lib64_libws2_32_a-gai_strerrorA.o)
 .debug_line    0x00000000616d6337      0x16c C:/msys64/mingw64/bin/../lib/gcc/x86_64-w64-mingw32/8.2.1/../../../../x86_64-w64-mingw32/lib/../lib/libws2_32.a(lib64_libws2_32_a-gai_strerrorW.o)
 .debug_line    0x00000000616d64a3      0x2a5 C:/msys64/mingw64/bin/../lib/gcc/x86_64-w64-mingw32/8.2.1/../../../../x86_64-w64-mingw32/lib/../lib/libmingw32.a(lib64_libmingw32_a-atonexit.o)
 .debug_line    0x00000000616d6748      0x24d C:/msys64/mingw64/bin/../lib/gcc/x86_64-w64-mingw32/8.2.1/../../../../x86_64-w64-mingw32/lib/../lib/libmingw32.a(lib64_libmingw32_a-gccmain.o)
 .debug_line    0x00000000616d6995      0x270 C:/msys64/mingw64/bin/../lib/gcc/x86_64-w64-mingw32/8.2.1/../../../../x86_64-w64-mingw32/lib/../lib/libmingw32.a(lib64_libmingw32_a-natstart.o)
 .debug_line    0x00000000616d6c05      0x1be C:/msys64/mingw64/bin/../lib/gcc/x86_64-w64-mingw32/8.2.1/../../../../x86_64-w64-mingw32/lib/../lib/libmingw32.a(lib64_libmingw32_a-gs_support.o)
 .debug_line    0x00000000616d6dc3      0x151 C:/msys64/mingw64/bin/../lib/gcc/x86_64-w64-mingw32/8.2.1/../../../../x86_64-w64-mingw32/lib/../lib/libmingw32.a(lib64_libmingw32_a-tlssup.o)
 .debug_line    0x00000000616d6f14       0x65 C:/msys64/mingw64/bin/../lib/gcc/x86_64-w64-mingw32/8.2.1/../../../../x86_64-w64-mingw32/lib/../lib/libmingw32.a(lib64_libmingw32_a-cinitexe.o)
 .debug_line    0x00000000616d6f79      0x2ae C:/msys64/mingw64/bin/../lib/gcc/x86_64-w64-mingw32/8.2.1/../../../../x86_64-w64-mingw32/lib/../lib/libmingw32.a(lib64_libmingw32_a-mingw_helpers.o)
 .debug_line    0x00000000616d7227      0x3cb C:/msys64/mingw64/bin/../lib/gcc/x86_64-w64-mingw32/8.2.1/../../../../x86_64-w64-mingw32/lib/../lib/libmingw32.a(lib64_libmingw32_a-pseudo-reloc.o)
 .debug_line    0x00000000616d75f2      0x32c C:/msys64/mingw64/bin/../lib/gcc/x86_64-w64-mingw32/8.2.1/../../../../x86_64-w64-mingw32/lib/../lib/libmingw32.a(lib64_libmingw32_a-crt_handler.o)
 .debug_line    0x00000000616d791e      0x1ee C:/msys64/mingw64/bin/../lib/gcc/x86_64-w64-mingw32/8.2.1/../../../../x86_64-w64-mingw32/lib/../lib/libmingw32.a(lib64_libmingw32_a-tlsthrd.o)
 .debug_line    0x00000000616d7b0c       0x64 C:/msys64/mingw64/bin/../lib/gcc/x86_64-w64-mingw32/8.2.1/../../../../x86_64-w64-mingw32/lib/../lib/libmingw32.a(lib64_libmingw32_a-tlsmcrt.o)
 .debug_line    0x00000000616d7b70       0x6e C:/msys64/mingw64/bin/../lib/gcc/x86_64-w64-mingw32/8.2.1/../../../../x86_64-w64-mingw32/lib/../lib/libmingw32.a(lib64_libmingw32_a-pseudo-reloc-list.o)
 .debug_line    0x00000000616d7bde      0x32e C:/msys64/mingw64/bin/../lib/gcc/x86_64-w64-mingw32/8.2.1/../../../../x86_64-w64-mingw32/lib/../lib/libmingw32.a(lib64_libmingw32_a-pesect.o)
 .debug_line    0x00000000616d7f0c       0x7c C:/msys64/mingw64/bin/../lib/gcc/x86_64-w64-mingw32/8.2.1/../../../../x86_64-w64-mingw32/lib/../lib/libmingw32.a(lib64_libmingw32_a-CRT_fp10.o)
 .debug_line    0x00000000616d7f88      0x218 C:/msys64/mingw64/bin/../lib/gcc/x86_64-w64-mingw32/8.2.1/../../../../x86_64-w64-mingw32/lib/../lib/libmingwex.a(lib64_libmingwex_a-dllentry.o)
 .debug_line    0x00000000616d81a0      0x215 C:/msys64/mingw64/bin/../lib/gcc/x86_64-w64-mingw32/8.2.1/../../../../x86_64-w64-mingw32/lib/../lib/libmingwex.a(lib64_libmingwex_a-dllmain.o)
 .debug_line    0x00000000616d83b5      0x118 C:/msys64/mingw64/bin/../lib/gcc/x86_64-w64-mingw32/8.2.1/../../../../x86_64-w64-mingw32/lib/../lib/libmingwex.a(lib64_libmingwex_a-strtodnrp.o)
 .debug_line    0x00000000616d84cd       0xca C:/msys64/mingw64/bin/../lib/gcc/x86_64-w64-mingw32/8.2.1/../../../../x86_64-w64-mingw32/lib/../lib/libmingwex.a(lib64_libmingwex_a-fpclassify.o)
 .debug_line    0x00000000616d8597       0xc2 C:/msys64/mingw64/bin/../lib/gcc/x86_64-w64-mingw32/8.2.1/../../../../x86_64-w64-mingw32/lib/../lib/libmingwex.a(lib64_libmingwex_a-isnan.o)
 .debug_line    0x00000000616d8659       0xdb C:/msys64/mingw64/bin/../lib/gcc/x86_64-w64-mingw32/8.2.1/../../../../x86_64-w64-mingw32/lib/../lib/libmingwex.a(lib64_libmingwex_a-modf.o)
 .debug_line    0x00000000616d8734       0xb6 C:/msys64/mingw64/bin/../lib/gcc/x86_64-w64-mingw32/8.2.1/../../../../x86_64-w64-mingw32/lib/../lib/libmingwex.a(lib64_libmingwex_a-powf.o)
 .debug_line    0x00000000616d87ea      0x110 C:/msys64/mingw64/bin/../lib/gcc/x86_64-w64-mingw32/8.2.1/../../../../x86_64-w64-mingw32/lib/../lib/libmingwex.a(lib64_libmingwex_a-sqrt.o)
 .debug_line    0x00000000616d88fa       0xcd C:/msys64/mingw64/bin/../lib/gcc/x86_64-w64-mingw32/8.2.1/../../../../x86_64-w64-mingw32/lib/../lib/libmingwex.a(lib64_libmingwex_a-difftime64.o)
 .debug_line    0x00000000616d89c7      0x2d8 C:/msys64/mingw64/bin/../lib/gcc/x86_64-w64-mingw32/8.2.1/../../../../x86_64-w64-mingw32/lib/../lib/libmingwex.a(lib64_libmingwex_a-gettimeofday.o)
 .debug_line    0x00000000616d8c9f      0x153 C:/msys64/mingw64/bin/../lib/gcc/x86_64-w64-mingw32/8.2.1/../../../../x86_64-w64-mingw32/lib/../lib/libmingwex.a(lib64_libmingwex_a-strtoimax.o)
 .debug_line    0x00000000616d8df2      0x14a C:/msys64/mingw64/bin/../lib/gcc/x86_64-w64-mingw32/8.2.1/../../../../x86_64-w64-mingw32/lib/../lib/libmingwex.a(lib64_libmingwex_a-strtoumax.o)
 .debug_line    0x00000000616d8f3c      0x2ad C:/msys64/mingw64/bin/../lib/gcc/x86_64-w64-mingw32/8.2.1/../../../../x86_64-w64-mingw32/lib/../lib/libmingwex.a(lib64_libmingwex_a-wassert.o)
 .debug_line    0x00000000616d91e9       0xd3 C:/msys64/mingw64/bin/../lib/gcc/x86_64-w64-mingw32/8.2.1/../../../../x86_64-w64-mingw32/lib/../lib/libmingwex.a(lib64_libmingwex_a-atoll.o)
 .debug_line    0x00000000616d92bc      0x39d C:/msys64/mingw64/bin/../lib/gcc/x86_64-w64-mingw32/8.2.1/../../../../x86_64-w64-mingw32/lib/../lib/libmingwex.a(lib64_libmingwex_a-fseeko64.o)
 .debug_line    0x00000000616d9659       0xd1 C:/msys64/mingw64/bin/../lib/gcc/x86_64-w64-mingw32/8.2.1/../../../../x86_64-w64-mingw32/lib/../lib/libmingwex.a(lib64_libmingwex_a-ftello64.o)
 .debug_line    0x00000000616d972a       0xd7 C:/msys64/mingw64/bin/../lib/gcc/x86_64-w64-mingw32/8.2.1/../../../../x86_64-w64-mingw32/lib/../lib/libmingwex.a(lib64_libmingwex_a-vsnprintf.o)
 .debug_line    0x00000000616d9801       0xbd C:/msys64/mingw64/bin/../lib/gcc/x86_64-w64-mingw32/8.2.1/../../../../x86_64-w64-mingw32/lib/../lib/libmingwex.a(lib64_libmingwex_a-atan2.o)
 .debug_line    0x00000000616d98be       0xf4 C:/msys64/mingw64/bin/../lib/gcc/x86_64-w64-mingw32/8.2.1/../../../../x86_64-w64-mingw32/lib/../lib/libmingwex.a(lib64_libmingwex_a-cos.o)
 .debug_line    0x00000000616d99b2       0x54 C:/msys64/mingw64/bin/../lib/gcc/x86_64-w64-mingw32/8.2.1/../../../../x86_64-w64-mingw32/lib/../lib/libmingwex.a(lib64_libmingwex_a-cosl_internal.o)
 .debug_line    0x00000000616d9a06      0x11a C:/msys64/mingw64/bin/../lib/gcc/x86_64-w64-mingw32/8.2.1/../../../../x86_64-w64-mingw32/lib/../lib/libmingwex.a(lib64_libmingwex_a-exp.o)
 .debug_line    0x00000000616d9b20       0x9f C:/msys64/mingw64/bin/../lib/gcc/x86_64-w64-mingw32/8.2.1/../../../../x86_64-w64-mingw32/lib/../lib/libmingwex.a(lib64_libmingwex_a-floor.o)
 .debug_line    0x00000000616d9bbf       0x7c C:/msys64/mingw64/bin/../lib/gcc/x86_64-w64-mingw32/8.2.1/../../../../x86_64-w64-mingw32/lib/../lib/libmingwex.a(lib64_libmingwex_a-fmod.o)
 .debug_line    0x00000000616d9c3b       0xed C:/msys64/mingw64/bin/../lib/gcc/x86_64-w64-mingw32/8.2.1/../../../../x86_64-w64-mingw32/lib/../lib/libmingwex.a(lib64_libmingwex_a-ldexp.o)
 .debug_line    0x00000000616d9d28      0x104 C:/msys64/mingw64/bin/../lib/gcc/x86_64-w64-mingw32/8.2.1/../../../../x86_64-w64-mingw32/lib/../lib/libmingwex.a(lib64_libmingwex_a-log.o)
 .debug_line    0x00000000616d9e2c      0x214 C:/msys64/mingw64/bin/../lib/gcc/x86_64-w64-mingw32/8.2.1/../../../../x86_64-w64-mingw32/lib/../lib/libmingwex.a(lib64_libmingwex_a-pow.o)
 .debug_line    0x00000000616da040       0xf4 C:/msys64/mingw64/bin/../lib/gcc/x86_64-w64-mingw32/8.2.1/../../../../x86_64-w64-mingw32/lib/../lib/libmingwex.a(lib64_libmingwex_a-sin.o)
 .debug_line    0x00000000616da134       0x58 C:/msys64/mingw64/bin/../lib/gcc/x86_64-w64-mingw32/8.2.1/../../../../x86_64-w64-mingw32/lib/../lib/libmingwex.a(lib64_libmingwex_a-sinl_internal.o)
 .debug_line    0x00000000616da18c      0x823 C:/msys64/mingw64/bin/../lib/gcc/x86_64-w64-mingw32/8.2.1/../../../../x86_64-w64-mingw32/lib/../lib/libmingwex.a(lib64_libmingwex_a-strtodg.o)
 .debug_line    0x00000000616da9af      0x17b C:/msys64/mingw64/bin/../lib/gcc/x86_64-w64-mingw32/8.2.1/../../../../x86_64-w64-mingw32/lib/../lib/libmingwex.a(lib64_libmingwex_a-sum.o)
 .debug_line    0x00000000616dab2a      0x1b6 C:/msys64/mingw64/bin/../lib/gcc/x86_64-w64-mingw32/8.2.1/../../../../x86_64-w64-mingw32/lib/../lib/libmingwex.a(lib64_libmingwex_a-powi.o)
 .debug_line    0x00000000616dace0       0x5e C:/msys64/mingw64/bin/../lib/gcc/x86_64-w64-mingw32/8.2.1/../../../../x86_64-w64-mingw32/lib/../lib/libmingwex.a(lib64_libmingwex_a-exp2l.o)
 .debug_line    0x00000000616dad3e       0x58 C:/msys64/mingw64/bin/../lib/gcc/x86_64-w64-mingw32/8.2.1/../../../../x86_64-w64-mingw32/lib/../lib/libmingwex.a(lib64_libmingwex_a-internal_logl.o)
 .debug_line    0x00000000616dad96       0x5b C:/msys64/mingw64/bin/../lib/gcc/x86_64-w64-mingw32/8.2.1/../../../../x86_64-w64-mingw32/lib/../lib/libmingwex.a(lib64_libmingwex_a-log2l.o)
 .debug_line    0x00000000616dadf1      0x30a C:/msys64/mingw64/bin/../lib/gcc/x86_64-w64-mingw32/8.2.1/../../../../x86_64-w64-mingw32/lib/../lib/libmingwex.a(lib64_libmingwex_a-gethex.o)
 .debug_line    0x00000000616db0fb      0x14d C:/msys64/mingw64/bin/../lib/gcc/x86_64-w64-mingw32/8.2.1/../../../../x86_64-w64-mingw32/lib/../lib/libmingwex.a(lib64_libmingwex_a-gmisc.o)
 .debug_line    0x00000000616db248       0xfb C:/msys64/mingw64/bin/../lib/gcc/x86_64-w64-mingw32/8.2.1/../../../../x86_64-w64-mingw32/lib/../lib/libmingwex.a(lib64_libmingwex_a-hd_init.o)
 .debug_line    0x00000000616db343      0x1b3 C:/msys64/mingw64/bin/../lib/gcc/x86_64-w64-mingw32/8.2.1/../../../../x86_64-w64-mingw32/lib/../lib/libmingwex.a(lib64_libmingwex_a-hexnan.o)
 .debug_line    0x00000000616db4f6      0x53d C:/msys64/mingw64/bin/../lib/gcc/x86_64-w64-mingw32/8.2.1/../../../../x86_64-w64-mingw32/lib/../lib/libmingwex.a(lib64_libmingwex_a-misc.o)
 .debug_line    0x00000000616dba33      0x18e C:/msys64/mingw64/bin/../lib/gcc/x86_64-w64-mingw32/8.2.1/../../../../x86_64-w64-mingw32/lib/../lib/libmingwex.a(lib64_libmingwex_a-smisc.o)
 .debug_line    0x00000000616dbbc1      0x2c0 C:/msys64/mingw64/bin/../lib/gcc/x86_64-w64-mingw32/8.2.1/../../../../x86_64-w64-mingw32/lib/../lib/libmingw32.a(lib64_libmingw32_a-merr.o)

.zdebug_line
 *(.zdebug_line)

.debug_frame    0x00000000616dc000    0x1f200
 *(.debug_frame)
 .debug_frame   0x00000000616dc000      0x170 C:/msys64/mingw64/bin/../lib/gcc/x86_64-w64-mingw32/8.2.1/../../../../x86_64-w64-mingw32/lib/../lib/dllcrt2.o
 .debug_frame   0x00000000616dc170     0x1730 C:\msys64\tmp\ccfy01SD.o
 .debug_frame   0x00000000616dd8a0      0x388 C:\msys64\tmp\ccWMuz0v.o
 .debug_frame   0x00000000616ddc28      0x388 C:\msys64\tmp\ccFOXHzz.o
 .debug_frame   0x00000000616ddfb0      0x650 C:\msys64\tmp\ccLjWXKz.o
 .debug_frame   0x00000000616de600      0x838 C:\msys64\tmp\ccz1diiN.o
 .debug_frame   0x00000000616dee38      0x348 C:\msys64\tmp\ccVizNw9.o
 .debug_frame   0x00000000616df180     0x1210 C:\msys64\tmp\ccjhsTYI.o
 .debug_frame   0x00000000616e0390     0x1058 C:\msys64\tmp\ccLt5nLD.o
 .debug_frame   0x00000000616e13e8      0x1d8 C:\msys64\tmp\ccuoZVRF.o
 .debug_frame   0x00000000616e15c0      0x2c8 C:\msys64\tmp\cctFmZYO.o
 .debug_frame   0x00000000616e1888      0x8c8 C:\msys64\tmp\ccuduyC5.o
 .debug_frame   0x00000000616e2150      0x160 C:\msys64\tmp\ccJuBzPw.o
 .debug_frame   0x00000000616e22b0      0xaa0 C:\msys64\tmp\ccTqPSxT.o
 .debug_frame   0x00000000616e2d50    0x117d0 C:\msys64\tmp\ccXRde14.o
 .debug_frame   0x00000000616f4520      0x1d0 C:\msys64\tmp\ccpSIAqr.o
 .debug_frame   0x00000000616f46f0      0x230 C:\msys64\tmp\ccZkAuiV.o
 .debug_frame   0x00000000616f4920      0x180 C:\msys64\tmp\ccJabTGs.o
 .debug_frame   0x00000000616f4aa0      0x338 C:\msys64\tmp\ccQHA7kH.o
 .debug_frame   0x00000000616f4dd8       0x68 C:\msys64\tmp\ccDKFcP3.o
 .debug_frame   0x00000000616f4e40       0xb8 C:\msys64\tmp\ccRApjM5.o
 .debug_frame   0x00000000616f4ef8      0x378 C:\msys64\tmp\cc5MSZGd.o
 .debug_frame   0x00000000616f5270      0x6a8 C:\msys64\tmp\ccxqqLTc.o
 .debug_frame   0x00000000616f5918      0x160 C:\msys64\tmp\ccenaSVZ.o
 .debug_frame   0x00000000616f5a78      0x428 C:\msys64\tmp\ccSZ239v.o
 .debug_frame   0x00000000616f5ea0      0x1e0 C:\msys64\tmp\ccvj8G4H.o
 .debug_frame   0x00000000616f6080      0x3c0 C:\msys64\tmp\ccldb7oK.o
 .debug_frame   0x00000000616f6440      0x3e8 C:\msys64\tmp\cc1vz69F.o
 .debug_frame   0x00000000616f6828      0x130 C:\msys64\tmp\ccXkOUMF.o
 .debug_frame   0x00000000616f6958      0x220 C:\msys64\tmp\cc7I1SCN.o
 .debug_frame   0x00000000616f6b78      0x278 C:\msys64\tmp\ccaJ2lTQ.o
 .debug_frame   0x00000000616f6df0      0x108 C:\msys64\tmp\ccTYAR93.o
 .debug_frame   0x00000000616f6ef8      0x110 C:\msys64\tmp\cc2LD5lo.o
 .debug_frame   0x00000000616f7008      0x3d8 C:\msys64\tmp\cctiLsmQ.o
 .debug_frame   0x00000000616f73e0      0x660 C:\msys64\tmp\cckEQkSt.o
 .debug_frame   0x00000000616f7a40      0x298 C:\msys64\tmp\ccxxh8wg.o
 .debug_frame   0x00000000616f7cd8      0x1c8 C:\msys64\tmp\ccoLUxS8.o
 .debug_frame   0x00000000616f7ea0      0x2a0 C:\msys64\tmp\cc5FaVq8.o
 .debug_frame   0x00000000616f8140       0x90 C:\msys64\tmp\ccg4nTgg.o
 .debug_frame   0x00000000616f81d0      0x130 C:\msys64\tmp\ccmZReTk.o
 .debug_frame   0x00000000616f8300      0x338 C:\msys64\tmp\ccA4uJAu.o
 .debug_frame   0x00000000616f8638      0x788 C:\msys64\tmp\ccS3faXP.o
 .debug_frame   0x00000000616f8dc0      0x178 C:\msys64\tmp\ccoUgfsm.o
 .debug_frame   0x00000000616f8f38      0x2c0 C:\msys64\tmp\ccUcMoTZ.o
 .debug_frame   0x00000000616f91f8      0x348 C:\msys64\tmp\ccidGW4M.o
 .debug_frame   0x00000000616f9540       0x70 C:\msys64\tmp\ccYk3DtG.o
 .debug_frame   0x00000000616f95b0      0x130 C:\msys64\tmp\ccQIpGaD.o
 .debug_frame   0x00000000616f96e0       0x38 C:/msys64/mingw64/bin/../lib/gcc/x86_64-w64-mingw32/8.2.1/../../../../x86_64-w64-mingw32/lib/../lib/libws2_32.a(lib64_libws2_32_a-gai_strerrorA.o)
 .debug_frame   0x00000000616f9718       0x40 C:/msys64/mingw64/bin/../lib/gcc/x86_64-w64-mingw32/8.2.1/../../../../x86_64-w64-mingw32/lib/../lib/libws2_32.a(lib64_libws2_32_a-gai_strerrorW.o)
 .debug_frame   0x00000000616f9758       0x70 C:/msys64/mingw64/bin/../lib/gcc/x86_64-w64-mingw32/8.2.1/../../../../x86_64-w64-mingw32/lib/../lib/libmingw32.a(lib64_libmingw32_a-atonexit.o)
 .debug_frame   0x00000000616f97c8       0x88 C:/msys64/mingw64/bin/../lib/gcc/x86_64-w64-mingw32/8.2.1/../../../../x86_64-w64-mingw32/lib/../lib/libmingw32.a(lib64_libmingw32_a-gccmain.o)
 .debug_frame   0x00000000616f9850       0xb8 C:/msys64/mingw64/bin/../lib/gcc/x86_64-w64-mingw32/8.2.1/../../../../x86_64-w64-mingw32/lib/../lib/libmingw32.a(lib64_libmingw32_a-gs_support.o)
 .debug_frame   0x00000000616f9908       0xa8 C:/msys64/mingw64/bin/../lib/gcc/x86_64-w64-mingw32/8.2.1/../../../../x86_64-w64-mingw32/lib/../lib/libmingw32.a(lib64_libmingw32_a-tlssup.o)
 .debug_frame   0x00000000616f99b0       0x48 C:/msys64/mingw64/bin/../lib/gcc/x86_64-w64-mingw32/8.2.1/../../../../x86_64-w64-mingw32/lib/../lib/libmingw32.a(lib64_libmingw32_a-mingw_helpers.o)
 .debug_frame   0x00000000616f99f8       0xf0 C:/msys64/mingw64/bin/../lib/gcc/x86_64-w64-mingw32/8.2.1/../../../../x86_64-w64-mingw32/lib/../lib/libmingw32.a(lib64_libmingw32_a-pseudo-reloc.o)
 .debug_frame   0x00000000616f9ae8       0xe8 C:/msys64/mingw64/bin/../lib/gcc/x86_64-w64-mingw32/8.2.1/../../../../x86_64-w64-mingw32/lib/../lib/libmingw32.a(lib64_libmingw32_a-crt_handler.o)
 .debug_frame   0x00000000616f9bd0      0x130 C:/msys64/mingw64/bin/../lib/gcc/x86_64-w64-mingw32/8.2.1/../../../../x86_64-w64-mingw32/lib/../lib/libmingw32.a(lib64_libmingw32_a-tlsthrd.o)
 .debug_frame   0x00000000616f9d00      0x198 C:/msys64/mingw64/bin/../lib/gcc/x86_64-w64-mingw32/8.2.1/../../../../x86_64-w64-mingw32/lib/../lib/libmingw32.a(lib64_libmingw32_a-pesect.o)
 .debug_frame   0x00000000616f9e98       0x30 C:/msys64/mingw64/bin/../lib/gcc/x86_64-w64-mingw32/8.2.1/../../../../x86_64-w64-mingw32/lib/../lib/libmingw32.a(lib64_libmingw32_a-CRT_fp10.o)
 .debug_frame   0x00000000616f9ec8       0x30 C:/msys64/mingw64/bin/../lib/gcc/x86_64-w64-mingw32/8.2.1/../../../../x86_64-w64-mingw32/lib/../lib/libmingwex.a(lib64_libmingwex_a-dllentry.o)
 .debug_frame   0x00000000616f9ef8       0x30 C:/msys64/mingw64/bin/../lib/gcc/x86_64-w64-mingw32/8.2.1/../../../../x86_64-w64-mingw32/lib/../lib/libmingwex.a(lib64_libmingwex_a-dllmain.o)
 .debug_frame   0x00000000616f9f28       0x48 C:/msys64/mingw64/bin/../lib/gcc/x86_64-w64-mingw32/8.2.1/../../../../x86_64-w64-mingw32/lib/../lib/libmingwex.a(lib64_libmingwex_a-strtodnrp.o)
 .debug_frame   0x00000000616f9f70       0x30 C:/msys64/mingw64/bin/../lib/gcc/x86_64-w64-mingw32/8.2.1/../../../../x86_64-w64-mingw32/lib/../lib/libmingwex.a(lib64_libmingwex_a-fpclassify.o)
 .debug_frame   0x00000000616f9fa0       0x30 C:/msys64/mingw64/bin/../lib/gcc/x86_64-w64-mingw32/8.2.1/../../../../x86_64-w64-mingw32/lib/../lib/libmingwex.a(lib64_libmingwex_a-isnan.o)
 .debug_frame   0x00000000616f9fd0       0x40 C:/msys64/mingw64/bin/../lib/gcc/x86_64-w64-mingw32/8.2.1/../../../../x86_64-w64-mingw32/lib/../lib/libmingwex.a(lib64_libmingwex_a-modf.o)
 .debug_frame   0x00000000616fa010       0x38 C:/msys64/mingw64/bin/../lib/gcc/x86_64-w64-mingw32/8.2.1/../../../../x86_64-w64-mingw32/lib/../lib/libmingwex.a(lib64_libmingwex_a-powf.o)
 .debug_frame   0x00000000616fa048       0x58 C:/msys64/mingw64/bin/../lib/gcc/x86_64-w64-mingw32/8.2.1/../../../../x86_64-w64-mingw32/lib/../lib/libmingwex.a(lib64_libmingwex_a-sqrt.o)
 .debug_frame   0x00000000616fa0a0       0x30 C:/msys64/mingw64/bin/../lib/gcc/x86_64-w64-mingw32/8.2.1/../../../../x86_64-w64-mingw32/lib/../lib/libmingwex.a(lib64_libmingwex_a-difftime64.o)
 .debug_frame   0x00000000616fa0d0       0xb0 C:/msys64/mingw64/bin/../lib/gcc/x86_64-w64-mingw32/8.2.1/../../../../x86_64-w64-mingw32/lib/../lib/libmingwex.a(lib64_libmingwex_a-gettimeofday.o)
 .debug_frame   0x00000000616fa180       0x88 C:/msys64/mingw64/bin/../lib/gcc/x86_64-w64-mingw32/8.2.1/../../../../x86_64-w64-mingw32/lib/../lib/libmingwex.a(lib64_libmingwex_a-strtoimax.o)
 .debug_frame   0x00000000616fa208       0x88 C:/msys64/mingw64/bin/../lib/gcc/x86_64-w64-mingw32/8.2.1/../../../../x86_64-w64-mingw32/lib/../lib/libmingwex.a(lib64_libmingwex_a-strtoumax.o)
 .debug_frame   0x00000000616fa290       0xb0 C:/msys64/mingw64/bin/../lib/gcc/x86_64-w64-mingw32/8.2.1/../../../../x86_64-w64-mingw32/lib/../lib/libmingwex.a(lib64_libmingwex_a-wassert.o)
 .debug_frame   0x00000000616fa340       0x30 C:/msys64/mingw64/bin/../lib/gcc/x86_64-w64-mingw32/8.2.1/../../../../x86_64-w64-mingw32/lib/../lib/libmingwex.a(lib64_libmingwex_a-atoll.o)
 .debug_frame   0x00000000616fa370      0x1a8 C:/msys64/mingw64/bin/../lib/gcc/x86_64-w64-mingw32/8.2.1/../../../../x86_64-w64-mingw32/lib/../lib/libmingwex.a(lib64_libmingwex_a-fseeko64.o)
 .debug_frame   0x00000000616fa518       0x40 C:/msys64/mingw64/bin/../lib/gcc/x86_64-w64-mingw32/8.2.1/../../../../x86_64-w64-mingw32/lib/../lib/libmingwex.a(lib64_libmingwex_a-ftello64.o)
 .debug_frame   0x00000000616fa558       0x30 C:/msys64/mingw64/bin/../lib/gcc/x86_64-w64-mingw32/8.2.1/../../../../x86_64-w64-mingw32/lib/../lib/libmingwex.a(lib64_libmingwex_a-vsnprintf.o)
 .debug_frame   0x00000000616fa588       0x38 C:/msys64/mingw64/bin/../lib/gcc/x86_64-w64-mingw32/8.2.1/../../../../x86_64-w64-mingw32/lib/../lib/libmingwex.a(lib64_libmingwex_a-atan2.o)
 .debug_frame   0x00000000616fa5c0       0x48 C:/msys64/mingw64/bin/../lib/gcc/x86_64-w64-mingw32/8.2.1/../../../../x86_64-w64-mingw32/lib/../lib/libmingwex.a(lib64_libmingwex_a-cos.o)
 .debug_frame   0x00000000616fa608       0x48 C:/msys64/mingw64/bin/../lib/gcc/x86_64-w64-mingw32/8.2.1/../../../../x86_64-w64-mingw32/lib/../lib/libmingwex.a(lib64_libmingwex_a-exp.o)
 .debug_frame   0x00000000616fa650       0x38 C:/msys64/mingw64/bin/../lib/gcc/x86_64-w64-mingw32/8.2.1/../../../../x86_64-w64-mingw32/lib/../lib/libmingwex.a(lib64_libmingwex_a-fmod.o)
 .debug_frame   0x00000000616fa688       0x38 C:/msys64/mingw64/bin/../lib/gcc/x86_64-w64-mingw32/8.2.1/../../../../x86_64-w64-mingw32/lib/../lib/libmingwex.a(lib64_libmingwex_a-ldexp.o)
 .debug_frame   0x00000000616fa6c0       0x60 C:/msys64/mingw64/bin/../lib/gcc/x86_64-w64-mingw32/8.2.1/../../../../x86_64-w64-mingw32/lib/../lib/libmingwex.a(lib64_libmingwex_a-log.o)
 .debug_frame   0x00000000616fa720       0xa0 C:/msys64/mingw64/bin/../lib/gcc/x86_64-w64-mingw32/8.2.1/../../../../x86_64-w64-mingw32/lib/../lib/libmingwex.a(lib64_libmingwex_a-pow.o)
 .debug_frame   0x00000000616fa7c0       0x48 C:/msys64/mingw64/bin/../lib/gcc/x86_64-w64-mingw32/8.2.1/../../../../x86_64-w64-mingw32/lib/../lib/libmingwex.a(lib64_libmingwex_a-sin.o)
 .debug_frame   0x00000000616fa808      0x198 C:/msys64/mingw64/bin/../lib/gcc/x86_64-w64-mingw32/8.2.1/../../../../x86_64-w64-mingw32/lib/../lib/libmingwex.a(lib64_libmingwex_a-strtodg.o)
 .debug_frame   0x00000000616fa9a0       0x70 C:/msys64/mingw64/bin/../lib/gcc/x86_64-w64-mingw32/8.2.1/../../../../x86_64-w64-mingw32/lib/../lib/libmingwex.a(lib64_libmingwex_a-sum.o)
 .debug_frame   0x00000000616faa10       0x48 C:/msys64/mingw64/bin/../lib/gcc/x86_64-w64-mingw32/8.2.1/../../../../x86_64-w64-mingw32/lib/../lib/libmingwex.a(lib64_libmingwex_a-powi.o)
 .debug_frame   0x00000000616faa58       0x88 C:/msys64/mingw64/bin/../lib/gcc/x86_64-w64-mingw32/8.2.1/../../../../x86_64-w64-mingw32/lib/../lib/libmingwex.a(lib64_libmingwex_a-gethex.o)
 .debug_frame   0x00000000616faae0       0x90 C:/msys64/mingw64/bin/../lib/gcc/x86_64-w64-mingw32/8.2.1/../../../../x86_64-w64-mingw32/lib/../lib/libmingwex.a(lib64_libmingwex_a-gmisc.o)
 .debug_frame   0x00000000616fab70       0x30 C:/msys64/mingw64/bin/../lib/gcc/x86_64-w64-mingw32/8.2.1/../../../../x86_64-w64-mingw32/lib/../lib/libmingwex.a(lib64_libmingwex_a-hd_init.o)
 .debug_frame   0x00000000616faba0       0x88 C:/msys64/mingw64/bin/../lib/gcc/x86_64-w64-mingw32/8.2.1/../../../../x86_64-w64-mingw32/lib/../lib/libmingwex.a(lib64_libmingwex_a-hexnan.o)
 .debug_frame   0x00000000616fac28      0x3c8 C:/msys64/mingw64/bin/../lib/gcc/x86_64-w64-mingw32/8.2.1/../../../../x86_64-w64-mingw32/lib/../lib/libmingwex.a(lib64_libmingwex_a-misc.o)
 .debug_frame   0x00000000616faff0      0x128 C:/msys64/mingw64/bin/../lib/gcc/x86_64-w64-mingw32/8.2.1/../../../../x86_64-w64-mingw32/lib/../lib/libmingwex.a(lib64_libmingwex_a-smisc.o)
 .debug_frame   0x00000000616fb118       0x90 C:/msys64/mingw64/bin/../lib/gcc/x86_64-w64-mingw32/8.2.1/../../../../x86_64-w64-mingw32/lib/../lib/libmingw32.a(lib64_libmingw32_a-merr.o)

.zdebug_frame
 *(.zdebug_frame)

.debug_str      0x00000000616fc000     0x3200
 *(.debug_str)
 .debug_str     0x00000000616fc000       0xe0 C:/msys64/mingw64/bin/../lib/gcc/x86_64-w64-mingw32/8.2.1/../../../../x86_64-w64-mingw32/lib/../lib/dllcrt2.o
 .debug_str     0x00000000616fc0e0       0x81 C:\msys64\tmp\ccfy01SD.o
 .debug_str     0x00000000616fc161       0x13 C:\msys64\tmp\ccWMuz0v.o
 .debug_str     0x00000000616fc174       0x13 C:\msys64\tmp\ccFOXHzz.o
 .debug_str     0x00000000616fc187       0x23 C:\msys64\tmp\ccLjWXKz.o
 .debug_str     0x00000000616fc1aa       0x59 C:\msys64\tmp\ccz1diiN.o
 .debug_str     0x00000000616fc203       0x39 C:\msys64\tmp\ccVizNw9.o
 .debug_str     0x00000000616fc23c       0x6b C:\msys64\tmp\ccjhsTYI.o
 .debug_str     0x00000000616fc2a7       0x75 C:\msys64\tmp\ccLt5nLD.o
 .debug_str     0x00000000616fc31c       0x34 C:\msys64\tmp\ccuoZVRF.o
 .debug_str     0x00000000616fc350       0x15 C:\msys64\tmp\cctFmZYO.o
 .debug_str     0x00000000616fc365       0x70 C:\msys64\tmp\ccuduyC5.o
 .debug_str     0x00000000616fc3d5       0x15 C:\msys64\tmp\ccJuBzPw.o
 .debug_str     0x00000000616fc3ea      0x195 C:\msys64\tmp\ccTqPSxT.o
 .debug_str     0x00000000616fc57f     0x1874 C:\msys64\tmp\ccXRde14.o
 .debug_str     0x00000000616fddf3       0x2e C:\msys64\tmp\ccpSIAqr.o
 .debug_str     0x00000000616fde21       0x27 C:\msys64\tmp\ccZkAuiV.o
 .debug_str     0x00000000616fde48       0x13 C:\msys64\tmp\ccJabTGs.o
 .debug_str     0x00000000616fde5b       0xbc C:\msys64\tmp\ccQHA7kH.o
 .debug_str     0x00000000616fdf17        0x0 C:\msys64\tmp\ccDKFcP3.o
 .debug_str     0x00000000616fdf17       0x1c C:\msys64\tmp\ccRApjM5.o
 .debug_str     0x00000000616fdf33       0x49 C:\msys64\tmp\cc5MSZGd.o
 .debug_str     0x00000000616fdf7c       0x3e C:\msys64\tmp\ccxqqLTc.o
 .debug_str     0x00000000616fdfba       0x23 C:\msys64\tmp\ccenaSVZ.o
 .debug_str     0x00000000616fdfdd       0x3a C:\msys64\tmp\ccSZ239v.o
 .debug_str     0x00000000616fe017       0x34 C:\msys64\tmp\ccvj8G4H.o
 .debug_str     0x00000000616fe04b       0x41 C:\msys64\tmp\ccldb7oK.o
 .debug_str     0x00000000616fe08c       0x8b C:\msys64\tmp\cc1vz69F.o
 .debug_str     0x00000000616fe117        0x0 C:\msys64\tmp\ccXkOUMF.o
 .debug_str     0x00000000616fe117        0xd C:\msys64\tmp\cc7I1SCN.o
 .debug_str     0x00000000616fe124       0x2d C:\msys64\tmp\ccaJ2lTQ.o
 .debug_str     0x00000000616fe151        0x7 C:\msys64\tmp\ccTYAR93.o
 .debug_str     0x00000000616fe158       0x21 C:\msys64\tmp\cc2LD5lo.o
 .debug_str     0x00000000616fe179       0x38 C:\msys64\tmp\cctiLsmQ.o
 .debug_str     0x00000000616fe1b1       0x42 C:\msys64\tmp\cckEQkSt.o
 .debug_str     0x00000000616fe1f3       0x1f C:\msys64\tmp\ccxxh8wg.o
 .debug_str     0x00000000616fe212       0x8b C:\msys64\tmp\ccoLUxS8.o
 .debug_str     0x00000000616fe29d       0x26 C:\msys64\tmp\cc5FaVq8.o
 .debug_str     0x00000000616fe2c3        0x0 C:\msys64\tmp\ccg4nTgg.o
 .debug_str     0x00000000616fe2c3        0x7 C:\msys64\tmp\ccmZReTk.o
 .debug_str     0x00000000616fe2ca       0x22 C:\msys64\tmp\ccA4uJAu.o
 .debug_str     0x00000000616fe2ec       0x89 C:\msys64\tmp\ccS3faXP.o
 .debug_str     0x00000000616fe375       0x1d C:\msys64\tmp\ccoUgfsm.o
 .debug_str     0x00000000616fe392        0xc C:\msys64\tmp\ccUcMoTZ.o
 .debug_str     0x00000000616fe39e       0x16 C:\msys64\tmp\ccidGW4M.o
 .debug_str     0x00000000616fe3b4        0x0 C:\msys64\tmp\ccYk3DtG.o
 .debug_str     0x00000000616fe3b4        0x0 C:\msys64\tmp\ccQIpGaD.o
 .debug_str     0x00000000616fe3b4       0x20 C:/msys64/mingw64/bin/../lib/gcc/x86_64-w64-mingw32/8.2.1/../../../../x86_64-w64-mingw32/lib/../lib/libws2_32.a(lib64_libws2_32_a-gai_strerrorA.o)
 .debug_str     0x00000000616fe3d4       0x18 C:/msys64/mingw64/bin/../lib/gcc/x86_64-w64-mingw32/8.2.1/../../../../x86_64-w64-mingw32/lib/../lib/libws2_32.a(lib64_libws2_32_a-gai_strerrorW.o)
 .debug_str     0x00000000616fe3ec       0x4d C:/msys64/mingw64/bin/../lib/gcc/x86_64-w64-mingw32/8.2.1/../../../../x86_64-w64-mingw32/lib/../lib/libmingw32.a(lib64_libmingw32_a-atonexit.o)
 .debug_str     0x00000000616fe439        0x9 C:/msys64/mingw64/bin/../lib/gcc/x86_64-w64-mingw32/8.2.1/../../../../x86_64-w64-mingw32/lib/../lib/libmingw32.a(lib64_libmingw32_a-gccmain.o)
 .debug_str     0x00000000616fe442       0x21 C:/msys64/mingw64/bin/../lib/gcc/x86_64-w64-mingw32/8.2.1/../../../../x86_64-w64-mingw32/lib/../lib/libmingw32.a(lib64_libmingw32_a-natstart.o)
 .debug_str     0x00000000616fe463      0x118 C:/msys64/mingw64/bin/../lib/gcc/x86_64-w64-mingw32/8.2.1/../../../../x86_64-w64-mingw32/lib/../lib/libmingw32.a(lib64_libmingw32_a-gs_support.o)
 .debug_str     0x00000000616fe57b       0x3c C:/msys64/mingw64/bin/../lib/gcc/x86_64-w64-mingw32/8.2.1/../../../../x86_64-w64-mingw32/lib/../lib/libmingw32.a(lib64_libmingw32_a-tlssup.o)
 .debug_str     0x00000000616fe5b7        0x0 C:/msys64/mingw64/bin/../lib/gcc/x86_64-w64-mingw32/8.2.1/../../../../x86_64-w64-mingw32/lib/../lib/libmingw32.a(lib64_libmingw32_a-cinitexe.o)
 .debug_str     0x00000000616fe5b7       0x21 C:/msys64/mingw64/bin/../lib/gcc/x86_64-w64-mingw32/8.2.1/../../../../x86_64-w64-mingw32/lib/../lib/libmingw32.a(lib64_libmingw32_a-mingw_helpers.o)
 .debug_str     0x00000000616fe5d8       0xac C:/msys64/mingw64/bin/../lib/gcc/x86_64-w64-mingw32/8.2.1/../../../../x86_64-w64-mingw32/lib/../lib/libmingw32.a(lib64_libmingw32_a-pseudo-reloc.o)
 .debug_str     0x00000000616fe684       0x92 C:/msys64/mingw64/bin/../lib/gcc/x86_64-w64-mingw32/8.2.1/../../../../x86_64-w64-mingw32/lib/../lib/libmingw32.a(lib64_libmingw32_a-crt_handler.o)
 .debug_str     0x00000000616fe716       0x85 C:/msys64/mingw64/bin/../lib/gcc/x86_64-w64-mingw32/8.2.1/../../../../x86_64-w64-mingw32/lib/../lib/libmingw32.a(lib64_libmingw32_a-tlsthrd.o)
 .debug_str     0x00000000616fe79b        0x0 C:/msys64/mingw64/bin/../lib/gcc/x86_64-w64-mingw32/8.2.1/../../../../x86_64-w64-mingw32/lib/../lib/libmingw32.a(lib64_libmingw32_a-tlsmcrt.o)
 .debug_str     0x00000000616fe79b        0x0 C:/msys64/mingw64/bin/../lib/gcc/x86_64-w64-mingw32/8.2.1/../../../../x86_64-w64-mingw32/lib/../lib/libmingw32.a(lib64_libmingw32_a-pseudo-reloc-list.o)
 .debug_str     0x00000000616fe79b       0x5d C:/msys64/mingw64/bin/../lib/gcc/x86_64-w64-mingw32/8.2.1/../../../../x86_64-w64-mingw32/lib/../lib/libmingw32.a(lib64_libmingw32_a-pesect.o)
 .debug_str     0x00000000616fe7f8        0x0 C:/msys64/mingw64/bin/../lib/gcc/x86_64-w64-mingw32/8.2.1/../../../../x86_64-w64-mingw32/lib/../lib/libmingw32.a(lib64_libmingw32_a-CRT_fp10.o)
 .debug_str     0x00000000616fe7f8        0x9 C:/msys64/mingw64/bin/../lib/gcc/x86_64-w64-mingw32/8.2.1/../../../../x86_64-w64-mingw32/lib/../lib/libmingwex.a(lib64_libmingwex_a-dllentry.o)
 .debug_str     0x00000000616fe801        0x9 C:/msys64/mingw64/bin/../lib/gcc/x86_64-w64-mingw32/8.2.1/../../../../x86_64-w64-mingw32/lib/../lib/libmingwex.a(lib64_libmingwex_a-dllmain.o)
 .debug_str     0x00000000616fe80a        0xa C:/msys64/mingw64/bin/../lib/gcc/x86_64-w64-mingw32/8.2.1/../../../../x86_64-w64-mingw32/lib/../lib/libmingwex.a(lib64_libmingwex_a-strtodnrp.o)
 .debug_str     0x00000000616fe814       0x13 C:/msys64/mingw64/bin/../lib/gcc/x86_64-w64-mingw32/8.2.1/../../../../x86_64-w64-mingw32/lib/../lib/libmingwex.a(lib64_libmingwex_a-fpclassify.o)
 .debug_str     0x00000000616fe827       0x13 C:/msys64/mingw64/bin/../lib/gcc/x86_64-w64-mingw32/8.2.1/../../../../x86_64-w64-mingw32/lib/../lib/libmingwex.a(lib64_libmingwex_a-isnan.o)
 .debug_str     0x00000000616fe83a       0x4d C:/msys64/mingw64/bin/../lib/gcc/x86_64-w64-mingw32/8.2.1/../../../../x86_64-w64-mingw32/lib/../lib/libmingwex.a(lib64_libmingwex_a-modf.o)
 .debug_str     0x00000000616fe887        0x0 C:/msys64/mingw64/bin/../lib/gcc/x86_64-w64-mingw32/8.2.1/../../../../x86_64-w64-mingw32/lib/../lib/libmingwex.a(lib64_libmingwex_a-powf.o)
 .debug_str     0x00000000616fe887       0x63 C:/msys64/mingw64/bin/../lib/gcc/x86_64-w64-mingw32/8.2.1/../../../../x86_64-w64-mingw32/lib/../lib/libmingwex.a(lib64_libmingwex_a-sqrt.o)
 .debug_str     0x00000000616fe8ea        0x0 C:/msys64/mingw64/bin/../lib/gcc/x86_64-w64-mingw32/8.2.1/../../../../x86_64-w64-mingw32/lib/../lib/libmingwex.a(lib64_libmingwex_a-difftime64.o)
 .debug_str     0x00000000616fe8ea       0x41 C:/msys64/mingw64/bin/../lib/gcc/x86_64-w64-mingw32/8.2.1/../../../../x86_64-w64-mingw32/lib/../lib/libmingwex.a(lib64_libmingwex_a-gettimeofday.o)
 .debug_str     0x00000000616fe92b        0x9 C:/msys64/mingw64/bin/../lib/gcc/x86_64-w64-mingw32/8.2.1/../../../../x86_64-w64-mingw32/lib/../lib/libmingwex.a(lib64_libmingwex_a-strtoimax.o)
 .debug_str     0x00000000616fe934        0x9 C:/msys64/mingw64/bin/../lib/gcc/x86_64-w64-mingw32/8.2.1/../../../../x86_64-w64-mingw32/lib/../lib/libmingwex.a(lib64_libmingwex_a-strtoumax.o)
 .debug_str     0x00000000616fe93d       0x50 C:/msys64/mingw64/bin/../lib/gcc/x86_64-w64-mingw32/8.2.1/../../../../x86_64-w64-mingw32/lib/../lib/libmingwex.a(lib64_libmingwex_a-wassert.o)
 .debug_str     0x00000000616fe98d        0x0 C:/msys64/mingw64/bin/../lib/gcc/x86_64-w64-mingw32/8.2.1/../../../../x86_64-w64-mingw32/lib/../lib/libmingwex.a(lib64_libmingwex_a-atoll.o)
 .debug_str     0x00000000616fe98d       0x53 C:/msys64/mingw64/bin/../lib/gcc/x86_64-w64-mingw32/8.2.1/../../../../x86_64-w64-mingw32/lib/../lib/libmingwex.a(lib64_libmingwex_a-fseeko64.o)
 .debug_str     0x00000000616fe9e0        0x0 C:/msys64/mingw64/bin/../lib/gcc/x86_64-w64-mingw32/8.2.1/../../../../x86_64-w64-mingw32/lib/../lib/libmingwex.a(lib64_libmingwex_a-ftello64.o)
 .debug_str     0x00000000616fe9e0        0xb C:/msys64/mingw64/bin/../lib/gcc/x86_64-w64-mingw32/8.2.1/../../../../x86_64-w64-mingw32/lib/../lib/libmingwex.a(lib64_libmingwex_a-vsnprintf.o)
 .debug_str     0x00000000616fe9eb        0x0 C:/msys64/mingw64/bin/../lib/gcc/x86_64-w64-mingw32/8.2.1/../../../../x86_64-w64-mingw32/lib/../lib/libmingwex.a(lib64_libmingwex_a-atan2.o)
 .debug_str     0x00000000616fe9eb       0x73 C:/msys64/mingw64/bin/../lib/gcc/x86_64-w64-mingw32/8.2.1/../../../../x86_64-w64-mingw32/lib/../lib/libmingwex.a(lib64_libmingwex_a-cos.o)
 .debug_str     0x00000000616fea5e       0x53 C:/msys64/mingw64/bin/../lib/gcc/x86_64-w64-mingw32/8.2.1/../../../../x86_64-w64-mingw32/lib/../lib/libmingwex.a(lib64_libmingwex_a-cosl_internal.o)
 .debug_str     0x00000000616feab1       0x63 C:/msys64/mingw64/bin/../lib/gcc/x86_64-w64-mingw32/8.2.1/../../../../x86_64-w64-mingw32/lib/../lib/libmingwex.a(lib64_libmingwex_a-exp.o)
 .debug_str     0x00000000616feb14       0x4b C:/msys64/mingw64/bin/../lib/gcc/x86_64-w64-mingw32/8.2.1/../../../../x86_64-w64-mingw32/lib/../lib/libmingwex.a(lib64_libmingwex_a-floor.o)
 .debug_str     0x00000000616feb5f        0x0 C:/msys64/mingw64/bin/../lib/gcc/x86_64-w64-mingw32/8.2.1/../../../../x86_64-w64-mingw32/lib/../lib/libmingwex.a(lib64_libmingwex_a-fmod.o)
 .debug_str     0x00000000616feb5f       0x4d C:/msys64/mingw64/bin/../lib/gcc/x86_64-w64-mingw32/8.2.1/../../../../x86_64-w64-mingw32/lib/../lib/libmingwex.a(lib64_libmingwex_a-ldexp.o)
 .debug_str     0x00000000616febac       0x73 C:/msys64/mingw64/bin/../lib/gcc/x86_64-w64-mingw32/8.2.1/../../../../x86_64-w64-mingw32/lib/../lib/libmingwex.a(lib64_libmingwex_a-log.o)
 .debug_str     0x00000000616fec1f       0x63 C:/msys64/mingw64/bin/../lib/gcc/x86_64-w64-mingw32/8.2.1/../../../../x86_64-w64-mingw32/lib/../lib/libmingwex.a(lib64_libmingwex_a-pow.o)
 .debug_str     0x00000000616fec82       0x73 C:/msys64/mingw64/bin/../lib/gcc/x86_64-w64-mingw32/8.2.1/../../../../x86_64-w64-mingw32/lib/../lib/libmingwex.a(lib64_libmingwex_a-sin.o)
 .debug_str     0x00000000616fecf5       0x53 C:/msys64/mingw64/bin/../lib/gcc/x86_64-w64-mingw32/8.2.1/../../../../x86_64-w64-mingw32/lib/../lib/libmingwex.a(lib64_libmingwex_a-sinl_internal.o)
 .debug_str     0x00000000616fed48      0x10a C:/msys64/mingw64/bin/../lib/gcc/x86_64-w64-mingw32/8.2.1/../../../../x86_64-w64-mingw32/lib/../lib/libmingwex.a(lib64_libmingwex_a-strtodg.o)
 .debug_str     0x00000000616fee52       0x22 C:/msys64/mingw64/bin/../lib/gcc/x86_64-w64-mingw32/8.2.1/../../../../x86_64-w64-mingw32/lib/../lib/libmingwex.a(lib64_libmingwex_a-sum.o)
 .debug_str     0x00000000616fee74       0x63 C:/msys64/mingw64/bin/../lib/gcc/x86_64-w64-mingw32/8.2.1/../../../../x86_64-w64-mingw32/lib/../lib/libmingwex.a(lib64_libmingwex_a-powi.o)
 .debug_str     0x00000000616feed7       0x4b C:/msys64/mingw64/bin/../lib/gcc/x86_64-w64-mingw32/8.2.1/../../../../x86_64-w64-mingw32/lib/../lib/libmingwex.a(lib64_libmingwex_a-exp2l.o)
 .debug_str     0x00000000616fef22       0x53 C:/msys64/mingw64/bin/../lib/gcc/x86_64-w64-mingw32/8.2.1/../../../../x86_64-w64-mingw32/lib/../lib/libmingwex.a(lib64_libmingwex_a-internal_logl.o)
 .debug_str     0x00000000616fef75       0x4b C:/msys64/mingw64/bin/../lib/gcc/x86_64-w64-mingw32/8.2.1/../../../../x86_64-w64-mingw32/lib/../lib/libmingwex.a(lib64_libmingwex_a-log2l.o)
 .debug_str     0x00000000616fefc0       0x7c C:/msys64/mingw64/bin/../lib/gcc/x86_64-w64-mingw32/8.2.1/../../../../x86_64-w64-mingw32/lib/../lib/libmingwex.a(lib64_libmingwex_a-gethex.o)
 .debug_str     0x00000000616ff03c        0x9 C:/msys64/mingw64/bin/../lib/gcc/x86_64-w64-mingw32/8.2.1/../../../../x86_64-w64-mingw32/lib/../lib/libmingwex.a(lib64_libmingwex_a-gmisc.o)
 .debug_str     0x00000000616ff045        0x0 C:/msys64/mingw64/bin/../lib/gcc/x86_64-w64-mingw32/8.2.1/../../../../x86_64-w64-mingw32/lib/../lib/libmingwex.a(lib64_libmingwex_a-hd_init.o)
 .debug_str     0x00000000616ff045       0x18 C:/msys64/mingw64/bin/../lib/gcc/x86_64-w64-mingw32/8.2.1/../../../../x86_64-w64-mingw32/lib/../lib/libmingwex.a(lib64_libmingwex_a-hexnan.o)
 .debug_str     0x00000000616ff05d       0x79 C:/msys64/mingw64/bin/../lib/gcc/x86_64-w64-mingw32/8.2.1/../../../../x86_64-w64-mingw32/lib/../lib/libmingwex.a(lib64_libmingwex_a-misc.o)
 .debug_str     0x00000000616ff0d6       0x2e C:/msys64/mingw64/bin/../lib/gcc/x86_64-w64-mingw32/8.2.1/../../../../x86_64-w64-mingw32/lib/../lib/libmingwex.a(lib64_libmingwex_a-smisc.o)
 .debug_str     0x00000000616ff104       0x3d C:/msys64/mingw64/bin/../lib/gcc/x86_64-w64-mingw32/8.2.1/../../../../x86_64-w64-mingw32/lib/../lib/libmingw32.a(lib64_libmingw32_a-merr.o)

.zdebug_str
 *(.zdebug_str)

.debug_loc      0x0000000061700000    0x11e00
 *(.debug_loc)
 .debug_loc     0x0000000061700000      0x838 C:/msys64/mingw64/bin/../lib/gcc/x86_64-w64-mingw32/8.2.1/../../../../x86_64-w64-mingw32/lib/../lib/dllcrt2.o
 .debug_loc     0x0000000061700838       0x39 C:/msys64/mingw64/bin/../lib/gcc/x86_64-w64-mingw32/8.2.1/../../../../x86_64-w64-mingw32/lib/../lib/libws2_32.a(lib64_libws2_32_a-gai_strerrorA.o)
 .debug_loc     0x0000000061700871       0x4c C:/msys64/mingw64/bin/../lib/gcc/x86_64-w64-mingw32/8.2.1/../../../../x86_64-w64-mingw32/lib/../lib/libws2_32.a(lib64_libws2_32_a-gai_strerrorW.o)
 .debug_loc     0x00000000617008bd       0xf7 C:/msys64/mingw64/bin/../lib/gcc/x86_64-w64-mingw32/8.2.1/../../../../x86_64-w64-mingw32/lib/../lib/libmingw32.a(lib64_libmingw32_a-atonexit.o)
 .debug_loc     0x00000000617009b4       0xa5 C:/msys64/mingw64/bin/../lib/gcc/x86_64-w64-mingw32/8.2.1/../../../../x86_64-w64-mingw32/lib/../lib/libmingw32.a(lib64_libmingw32_a-gccmain.o)
 .debug_loc     0x0000000061700a59      0x1b3 C:/msys64/mingw64/bin/../lib/gcc/x86_64-w64-mingw32/8.2.1/../../../../x86_64-w64-mingw32/lib/../lib/libmingw32.a(lib64_libmingw32_a-gs_support.o)
 .debug_loc     0x0000000061700c0c      0x2de C:/msys64/mingw64/bin/../lib/gcc/x86_64-w64-mingw32/8.2.1/../../../../x86_64-w64-mingw32/lib/../lib/libmingw32.a(lib64_libmingw32_a-tlssup.o)
 .debug_loc     0x0000000061700eea      0x817 C:/msys64/mingw64/bin/../lib/gcc/x86_64-w64-mingw32/8.2.1/../../../../x86_64-w64-mingw32/lib/../lib/libmingw32.a(lib64_libmingw32_a-pseudo-reloc.o)
 .debug_loc     0x0000000061701701      0x92b C:/msys64/mingw64/bin/../lib/gcc/x86_64-w64-mingw32/8.2.1/../../../../x86_64-w64-mingw32/lib/../lib/libmingw32.a(lib64_libmingw32_a-crt_handler.o)
 .debug_loc     0x000000006170202c      0x695 C:/msys64/mingw64/bin/../lib/gcc/x86_64-w64-mingw32/8.2.1/../../../../x86_64-w64-mingw32/lib/../lib/libmingw32.a(lib64_libmingw32_a-tlsthrd.o)
 .debug_loc     0x00000000617026c1      0x551 C:/msys64/mingw64/bin/../lib/gcc/x86_64-w64-mingw32/8.2.1/../../../../x86_64-w64-mingw32/lib/../lib/libmingw32.a(lib64_libmingw32_a-pesect.o)
 .debug_loc     0x0000000061702c12      0x117 C:/msys64/mingw64/bin/../lib/gcc/x86_64-w64-mingw32/8.2.1/../../../../x86_64-w64-mingw32/lib/../lib/libmingwex.a(lib64_libmingwex_a-strtodnrp.o)
 .debug_loc     0x0000000061702d29       0x36 C:/msys64/mingw64/bin/../lib/gcc/x86_64-w64-mingw32/8.2.1/../../../../x86_64-w64-mingw32/lib/../lib/libmingwex.a(lib64_libmingwex_a-fpclassify.o)
 .debug_loc     0x0000000061702d5f       0x3e C:/msys64/mingw64/bin/../lib/gcc/x86_64-w64-mingw32/8.2.1/../../../../x86_64-w64-mingw32/lib/../lib/libmingwex.a(lib64_libmingwex_a-isnan.o)
 .debug_loc     0x0000000061702d9d      0x17e C:/msys64/mingw64/bin/../lib/gcc/x86_64-w64-mingw32/8.2.1/../../../../x86_64-w64-mingw32/lib/../lib/libmingwex.a(lib64_libmingwex_a-modf.o)
 .debug_loc     0x0000000061702f1b       0x78 C:/msys64/mingw64/bin/../lib/gcc/x86_64-w64-mingw32/8.2.1/../../../../x86_64-w64-mingw32/lib/../lib/libmingwex.a(lib64_libmingwex_a-powf.o)
 .debug_loc     0x0000000061702f93      0x357 C:/msys64/mingw64/bin/../lib/gcc/x86_64-w64-mingw32/8.2.1/../../../../x86_64-w64-mingw32/lib/../lib/libmingwex.a(lib64_libmingwex_a-sqrt.o)
 .debug_loc     0x00000000617032ea       0x39 C:/msys64/mingw64/bin/../lib/gcc/x86_64-w64-mingw32/8.2.1/../../../../x86_64-w64-mingw32/lib/../lib/libmingwex.a(lib64_libmingwex_a-difftime64.o)
 .debug_loc     0x0000000061703323      0x26a C:/msys64/mingw64/bin/../lib/gcc/x86_64-w64-mingw32/8.2.1/../../../../x86_64-w64-mingw32/lib/../lib/libmingwex.a(lib64_libmingwex_a-gettimeofday.o)
 .debug_loc     0x000000006170358d      0x33c C:/msys64/mingw64/bin/../lib/gcc/x86_64-w64-mingw32/8.2.1/../../../../x86_64-w64-mingw32/lib/../lib/libmingwex.a(lib64_libmingwex_a-strtoimax.o)
 .debug_loc     0x00000000617038c9      0x2dd C:/msys64/mingw64/bin/../lib/gcc/x86_64-w64-mingw32/8.2.1/../../../../x86_64-w64-mingw32/lib/../lib/libmingwex.a(lib64_libmingwex_a-strtoumax.o)
 .debug_loc     0x0000000061703ba6      0x444 C:/msys64/mingw64/bin/../lib/gcc/x86_64-w64-mingw32/8.2.1/../../../../x86_64-w64-mingw32/lib/../lib/libmingwex.a(lib64_libmingwex_a-wassert.o)
 .debug_loc     0x0000000061703fea       0x39 C:/msys64/mingw64/bin/../lib/gcc/x86_64-w64-mingw32/8.2.1/../../../../x86_64-w64-mingw32/lib/../lib/libmingwex.a(lib64_libmingwex_a-atoll.o)
 .debug_loc     0x0000000061704023      0xa9d C:/msys64/mingw64/bin/../lib/gcc/x86_64-w64-mingw32/8.2.1/../../../../x86_64-w64-mingw32/lib/../lib/libmingwex.a(lib64_libmingwex_a-fseeko64.o)
 .debug_loc     0x0000000061704ac0       0x39 C:/msys64/mingw64/bin/../lib/gcc/x86_64-w64-mingw32/8.2.1/../../../../x86_64-w64-mingw32/lib/../lib/libmingwex.a(lib64_libmingwex_a-ftello64.o)
 .debug_loc     0x0000000061704af9       0xe4 C:/msys64/mingw64/bin/../lib/gcc/x86_64-w64-mingw32/8.2.1/../../../../x86_64-w64-mingw32/lib/../lib/libmingwex.a(lib64_libmingwex_a-vsnprintf.o)
 .debug_loc     0x0000000061704bdd       0x7c C:/msys64/mingw64/bin/../lib/gcc/x86_64-w64-mingw32/8.2.1/../../../../x86_64-w64-mingw32/lib/../lib/libmingwex.a(lib64_libmingwex_a-atan2.o)
 .debug_loc     0x0000000061704c59      0x1d1 C:/msys64/mingw64/bin/../lib/gcc/x86_64-w64-mingw32/8.2.1/../../../../x86_64-w64-mingw32/lib/../lib/libmingwex.a(lib64_libmingwex_a-cos.o)
 .debug_loc     0x0000000061704e2a      0x300 C:/msys64/mingw64/bin/../lib/gcc/x86_64-w64-mingw32/8.2.1/../../../../x86_64-w64-mingw32/lib/../lib/libmingwex.a(lib64_libmingwex_a-exp.o)
 .debug_loc     0x000000006170512a       0x7c C:/msys64/mingw64/bin/../lib/gcc/x86_64-w64-mingw32/8.2.1/../../../../x86_64-w64-mingw32/lib/../lib/libmingwex.a(lib64_libmingwex_a-fmod.o)
 .debug_loc     0x00000000617051a6      0x29c C:/msys64/mingw64/bin/../lib/gcc/x86_64-w64-mingw32/8.2.1/../../../../x86_64-w64-mingw32/lib/../lib/libmingwex.a(lib64_libmingwex_a-ldexp.o)
 .debug_loc     0x0000000061705442      0x1d9 C:/msys64/mingw64/bin/../lib/gcc/x86_64-w64-mingw32/8.2.1/../../../../x86_64-w64-mingw32/lib/../lib/libmingwex.a(lib64_libmingwex_a-log.o)
 .debug_loc     0x000000006170561b      0x676 C:/msys64/mingw64/bin/../lib/gcc/x86_64-w64-mingw32/8.2.1/../../../../x86_64-w64-mingw32/lib/../lib/libmingwex.a(lib64_libmingwex_a-pow.o)
 .debug_loc     0x0000000061705c91      0x1d1 C:/msys64/mingw64/bin/../lib/gcc/x86_64-w64-mingw32/8.2.1/../../../../x86_64-w64-mingw32/lib/../lib/libmingwex.a(lib64_libmingwex_a-sin.o)
 .debug_loc     0x0000000061705e62     0x5b4b C:/msys64/mingw64/bin/../lib/gcc/x86_64-w64-mingw32/8.2.1/../../../../x86_64-w64-mingw32/lib/../lib/libmingwex.a(lib64_libmingwex_a-strtodg.o)
 .debug_loc     0x000000006170b9ad      0x42f C:/msys64/mingw64/bin/../lib/gcc/x86_64-w64-mingw32/8.2.1/../../../../x86_64-w64-mingw32/lib/../lib/libmingwex.a(lib64_libmingwex_a-sum.o)
 .debug_loc     0x000000006170bddc      0x49d C:/msys64/mingw64/bin/../lib/gcc/x86_64-w64-mingw32/8.2.1/../../../../x86_64-w64-mingw32/lib/../lib/libmingwex.a(lib64_libmingwex_a-powi.o)
 .debug_loc     0x000000006170c279     0x1b38 C:/msys64/mingw64/bin/../lib/gcc/x86_64-w64-mingw32/8.2.1/../../../../x86_64-w64-mingw32/lib/../lib/libmingwex.a(lib64_libmingwex_a-gethex.o)
 .debug_loc     0x000000006170ddb1      0x3e3 C:/msys64/mingw64/bin/../lib/gcc/x86_64-w64-mingw32/8.2.1/../../../../x86_64-w64-mingw32/lib/../lib/libmingwex.a(lib64_libmingwex_a-gmisc.o)
 .debug_loc     0x000000006170e194      0x127 C:/msys64/mingw64/bin/../lib/gcc/x86_64-w64-mingw32/8.2.1/../../../../x86_64-w64-mingw32/lib/../lib/libmingwex.a(lib64_libmingwex_a-hd_init.o)
 .debug_loc     0x000000006170e2bb      0xa9e C:/msys64/mingw64/bin/../lib/gcc/x86_64-w64-mingw32/8.2.1/../../../../x86_64-w64-mingw32/lib/../lib/libmingwex.a(lib64_libmingwex_a-hexnan.o)
 .debug_loc     0x000000006170ed59     0x22c1 C:/msys64/mingw64/bin/../lib/gcc/x86_64-w64-mingw32/8.2.1/../../../../x86_64-w64-mingw32/lib/../lib/libmingwex.a(lib64_libmingwex_a-misc.o)
 .debug_loc     0x000000006171101a      0xb78 C:/msys64/mingw64/bin/../lib/gcc/x86_64-w64-mingw32/8.2.1/../../../../x86_64-w64-mingw32/lib/../lib/libmingwex.a(lib64_libmingwex_a-smisc.o)
 .debug_loc     0x0000000061711b92      0x232 C:/msys64/mingw64/bin/../lib/gcc/x86_64-w64-mingw32/8.2.1/../../../../x86_64-w64-mingw32/lib/../lib/libmingw32.a(lib64_libmingw32_a-merr.o)

.zdebug_loc
 *(.zdebug_loc)

.debug_macinfo
 *(.debug_macinfo)

.zdebug_macinfo
 *(.zdebug_macinfo)

.debug_weaknames
 *(.debug_weaknames)

.zdebug_weaknames
 *(.zdebug_weaknames)

.debug_funcnames
 *(.debug_funcnames)

.zdebug_funcnames
 *(.zdebug_funcnames)

.debug_typenames
 *(.debug_typenames)

.zdebug_typenames
 *(.zdebug_typenames)

.debug_varnames
 *(.debug_varnames)

.zdebug_varnames
 *(.zdebug_varnames)

.debug_macro
 *(.debug_macro)

.zdebug_macro
 *(.zdebug_macro)

.debug_ranges   0x0000000061712000     0x3e00
 *(.debug_ranges)
 .debug_ranges  0x0000000061712000      0x110 C:/msys64/mingw64/bin/../lib/gcc/x86_64-w64-mingw32/8.2.1/../../../../x86_64-w64-mingw32/lib/../lib/dllcrt2.o
 .debug_ranges  0x0000000061712110       0x30 C:\msys64\tmp\ccfy01SD.o
 .debug_ranges  0x0000000061712140       0x30 C:\msys64\tmp\ccz1diiN.o
 .debug_ranges  0x0000000061712170       0xf0 C:\msys64\tmp\ccVizNw9.o
 .debug_ranges  0x0000000061712260       0x60 C:\msys64\tmp\ccjhsTYI.o
 .debug_ranges  0x00000000617122c0      0x2a0 C:\msys64\tmp\ccLt5nLD.o
 .debug_ranges  0x0000000061712560       0x30 C:\msys64\tmp\ccuoZVRF.o
 .debug_ranges  0x0000000061712590      0x210 C:\msys64\tmp\ccTqPSxT.o
 .debug_ranges  0x00000000617127a0     0x2790 C:\msys64\tmp\ccXRde14.o
 .debug_ranges  0x0000000061714f30       0x30 C:\msys64\tmp\ccZkAuiV.o
 .debug_ranges  0x0000000061714f60       0x30 C:\msys64\tmp\ccenaSVZ.o
 .debug_ranges  0x0000000061714f90       0x60 C:\msys64\tmp\ccaJ2lTQ.o
 .debug_ranges  0x0000000061714ff0       0x60 C:\msys64\tmp\ccTYAR93.o
 .debug_ranges  0x0000000061715050       0x30 C:\msys64\tmp\cctiLsmQ.o
 .debug_ranges  0x0000000061715080       0x60 C:\msys64\tmp\cc5FaVq8.o
 .debug_ranges  0x00000000617150e0       0xc0 C:\msys64\tmp\ccS3faXP.o
 .debug_ranges  0x00000000617151a0      0x210 C:/msys64/mingw64/bin/../lib/gcc/x86_64-w64-mingw32/8.2.1/../../../../x86_64-w64-mingw32/lib/../lib/libmingw32.a(lib64_libmingw32_a-pseudo-reloc.o)
 .debug_ranges  0x00000000617153b0       0x30 C:/msys64/mingw64/bin/../lib/gcc/x86_64-w64-mingw32/8.2.1/../../../../x86_64-w64-mingw32/lib/../lib/libmingw32.a(lib64_libmingw32_a-tlsthrd.o)
 .debug_ranges  0x00000000617153e0      0x170 C:/msys64/mingw64/bin/../lib/gcc/x86_64-w64-mingw32/8.2.1/../../../../x86_64-w64-mingw32/lib/../lib/libmingw32.a(lib64_libmingw32_a-pesect.o)
 .debug_ranges  0x0000000061715550       0x30 C:/msys64/mingw64/bin/../lib/gcc/x86_64-w64-mingw32/8.2.1/../../../../x86_64-w64-mingw32/lib/../lib/libmingwex.a(lib64_libmingwex_a-sqrt.o)
 .debug_ranges  0x0000000061715580       0x30 C:/msys64/mingw64/bin/../lib/gcc/x86_64-w64-mingw32/8.2.1/../../../../x86_64-w64-mingw32/lib/../lib/libmingwex.a(lib64_libmingwex_a-cos.o)
 .debug_ranges  0x00000000617155b0       0x60 C:/msys64/mingw64/bin/../lib/gcc/x86_64-w64-mingw32/8.2.1/../../../../x86_64-w64-mingw32/lib/../lib/libmingwex.a(lib64_libmingwex_a-exp.o)
 .debug_ranges  0x0000000061715610       0x30 C:/msys64/mingw64/bin/../lib/gcc/x86_64-w64-mingw32/8.2.1/../../../../x86_64-w64-mingw32/lib/../lib/libmingwex.a(lib64_libmingwex_a-log.o)
 .debug_ranges  0x0000000061715640       0xe0 C:/msys64/mingw64/bin/../lib/gcc/x86_64-w64-mingw32/8.2.1/../../../../x86_64-w64-mingw32/lib/../lib/libmingwex.a(lib64_libmingwex_a-pow.o)
 .debug_ranges  0x0000000061715720       0x30 C:/msys64/mingw64/bin/../lib/gcc/x86_64-w64-mingw32/8.2.1/../../../../x86_64-w64-mingw32/lib/../lib/libmingwex.a(lib64_libmingwex_a-sin.o)
 .debug_ranges  0x0000000061715750      0x170 C:/msys64/mingw64/bin/../lib/gcc/x86_64-w64-mingw32/8.2.1/../../../../x86_64-w64-mingw32/lib/../lib/libmingwex.a(lib64_libmingwex_a-strtodg.o)
 .debug_ranges  0x00000000617158c0       0x70 C:/msys64/mingw64/bin/../lib/gcc/x86_64-w64-mingw32/8.2.1/../../../../x86_64-w64-mingw32/lib/../lib/libmingwex.a(lib64_libmingwex_a-powi.o)
 .debug_ranges  0x0000000061715930       0x30 C:/msys64/mingw64/bin/../lib/gcc/x86_64-w64-mingw32/8.2.1/../../../../x86_64-w64-mingw32/lib/../lib/libmingwex.a(lib64_libmingwex_a-gethex.o)
 .debug_ranges  0x0000000061715960      0x2b0 C:/msys64/mingw64/bin/../lib/gcc/x86_64-w64-mingw32/8.2.1/../../../../x86_64-w64-mingw32/lib/../lib/libmingwex.a(lib64_libmingwex_a-misc.o)

.zdebug_ranges
 *(.zdebug_ranges)

.debug_types
 *(.debug_types .gnu.linkonce.wt.*)

.zdebug_types
 *(.zdebug_types .zdebug.gnu.linkonce.wt.*)

.debug_gdb_scripts
 *(.debug_gdb_scripts)

.zdebug_gdb_scripts
 *(.zdebug_gdb_scripts)
OUTPUT(Plugins/x86_64/tolua.dll pei-x86-64)
LOAD dll stuff
